 cardboard_msvc

 Timestamp is 5bdcc350 (Fri Nov  2 15:36:16 2018)

 Preferred load address is 00400000

 Start         Length     Name                   Class
 0001:00000000 00006a80H .text                   CODE
 0001:00006a80 00016660H .text$di                CODE
 0001:0001d0e0 001b2080H .text$mn                CODE
 0001:001cf160 000052c0H .text$x                 CODE
 0001:001d4420 00002302H .text$yd                CODE
 0002:00000000 000004d8H .idata$5                DATA
 0002:000004d8 00000004H .00cfg                  DATA
 0002:000004dc 00000004H .CRT$XCA                DATA
 0002:000004e0 00000004H .CRT$XCAA               DATA
 0002:000004e4 00001520H .CRT$XCU                DATA
 0002:00001a04 00000004H .CRT$XCZ                DATA
 0002:00001a08 00000004H .CRT$XIA                DATA
 0002:00001a0c 00000004H .CRT$XIAA               DATA
 0002:00001a10 00000004H .CRT$XIAC               DATA
 0002:00001a14 00000014H .CRT$XIC                DATA
 0002:00001a28 00000004H .CRT$XIZ                DATA
 0002:00001a2c 00000004H .CRT$XLA                DATA
 0002:00001a30 00000004H .CRT$XLZ                DATA
 0002:00001a34 00000004H .CRT$XPA                DATA
 0002:00001a38 00000008H .CRT$XPX                DATA
 0002:00001a40 00000004H .CRT$XPXA               DATA
 0002:00001a44 00000004H .CRT$XPZ                DATA
 0002:00001a48 00000004H .CRT$XTA                DATA
 0002:00001a4c 00000014H .CRT$XTZ                DATA
 0002:00001a50 00000000H .gfids$x                DATA
 0002:00001a50 00000000H .gfids$y                DATA
 0002:00001a60 00020e40H .rdata                  DATA
 0002:000228a0 00000018H .rdata$T                DATA
 0002:000228b8 0000193cH .rdata$r                DATA
 0002:000241f4 0000008cH .rdata$zzz              DATA
 0002:00024280 000003fcH .rdata$zzzdbg           DATA
 0002:0002467c 00000004H .rtc$IAA                DATA
 0002:00024680 00000004H .rtc$IZZ                DATA
 0002:00024684 00000004H .rtc$TAA                DATA
 0002:00024688 00000004H .rtc$TZZ                DATA
 0002:0002468c 00000004H .tls                    DATA
 0002:00024690 00000004H .tls$                   DATA
 0002:00024694 00000004H .tls$ZZZ                DATA
 0002:00024698 00007934H .xdata$x                DATA
 0002:0002bfcc 00000000H .edata                  DATA
 0002:0002bfcc 000000dcH .idata$2                DATA
 0002:0002c0a8 00000014H .idata$3                DATA
 0002:0002c0bc 000004d8H .idata$4                DATA
 0002:0002c594 000013faH .idata$6                DATA
 0003:00000000 000062f0H .data                   DATA
 0003:000062f0 00000a50H .data$r                 DATA
 0003:00006d40 000bf9d4H .bss                    DATA
 0004:00000000 000000f0H .rsrc$01                DATA
 0004:000000f0 00004bc8H .rsrc$02                DATA

  Address         Publics by Value              Rva+Base       Lib:Object

 0000:00000000       ___guard_iat_count         00000000     <absolute>
 0000:00000000       ___guard_longjmp_count     00000000     <absolute>
 0000:00000000       __except_list              00000000     <absolute>
 0000:00000000       ___guard_fids_count        00000000     <absolute>
 0000:00000000       ___guard_longjmp_table     00000000     <absolute>
 0000:00000000       ___hybrid_code_map_count   00000000     <absolute>
 0000:00000000       ___hybrid_auxiliary_iat    00000000     <absolute>
 0000:00000000       ___volatile_metadata       00000000     <absolute>
 0000:00000000       ___safe_se_handler_count   00000000     <absolute>
 0000:00000000       ___dynamic_value_reloc_table 00000000     <absolute>
 0000:00000000       ___guard_fids_table        00000000     <absolute>
 0000:00000000       ___hybrid_code_map         00000000     <absolute>
 0000:00000000       ___safe_se_handler_table   00000000     <absolute>
 0000:00000000       ___guard_iat_table         00000000     <absolute>
 0000:00000000       ___enclave_config          00000000     <absolute>
 0000:0000002c       __tls_array                0000002c     <absolute>
 0000:00000100       ___guard_flags             00000100     <absolute>
 0000:00000000       ___ImageBase               00400000     <linker-defined>
 0001:00000000       _enet_host_create          00401000 f   enet:host.o
 0001:000003f0       _enet_host_destroy         004013f0 f   enet:host.o
 0001:00000480       _enet_host_connect         00401480 f   enet:host.o
 0001:000006f0       _enet_host_broadcast       004016f0 f   enet:host.o
 0001:00000770       _enet_host_compress        00401770 f   enet:host.o
 0001:000007e0       _enet_host_channel_limit   004017e0 f   enet:host.o
 0001:00000800       _enet_host_bandwidth_limit 00401800 f   enet:host.o
 0001:00000820       _enet_host_bandwidth_throttle 00401820 f   enet:host.o
 0001:00000c00       _enet_peer_throttle_configure 00401c00 f   enet:peer.o
 0001:00000e00       _enet_peer_throttle        00401e00 f   enet:peer.o
 0001:00000e80       _enet_peer_receive         00401e80 f   enet:peer.o
 0001:00000ef0       _enet_peer_reset_queues    00401ef0 f   enet:peer.o
 0001:00001200       _enet_peer_on_connect      00402200 f   enet:peer.o
 0001:00001230       _enet_peer_on_disconnect   00402230 f   enet:peer.o
 0001:00001260       _enet_peer_reset           00402260 f   enet:peer.o
 0001:00001440       _enet_peer_ping_interval   00402440 f   enet:peer.o
 0001:00001460       _enet_peer_timeout         00402460 f   enet:peer.o
 0001:000014b0       _enet_peer_queue_acknowledgement 004024b0 f   enet:peer.o
 0001:00001590       _enet_peer_setup_outgoing_command 00402590 f   enet:peer.o
 0001:00001710       _enet_peer_ping            00402710 f   enet:peer.o
 0001:00001760       _enet_peer_disconnect      00402760 f   enet:peer.o
 0001:00001840       _enet_peer_queue_outgoing_command 00402840 f   enet:peer.o
 0001:00001a60       _enet_peer_send            00402a60 f   enet:peer.o
 0001:00001d90       _enet_peer_disconnect_now  00402d90 f   enet:peer.o
 0001:00001ff0       _enet_peer_disconnect_later 00402ff0 f   enet:peer.o
 0001:00002130       _enet_peer_dispatch_incoming_unreliable_commands 00403130 f   enet:peer.o
 0001:000023b0       _enet_peer_dispatch_incoming_reliable_commands 004033b0 f   enet:peer.o
 0001:000024b0       _enet_peer_queue_incoming_command 004034b0 f   enet:peer.o
 0001:00002980       _enet_initialize           00403980 f   enet:win32.o
 0001:00002a00       _enet_deinitialize         00403a00 f   enet:win32.o
 0001:00002a20       _enet_host_random_seed     00403a20 f   enet:win32.o
 0001:00002a30       _enet_time_get             00403a30 f   enet:win32.o
 0001:00002a50       _enet_time_set             00403a50 f   enet:win32.o
 0001:00002a70       _enet_address_set_host     00403a70 f   enet:win32.o
 0001:00002ad0       _enet_address_get_host_ip  00403ad0 f   enet:win32.o
 0001:00002b30       _enet_address_get_host     00403b30 f   enet:win32.o
 0001:00002bd0       _enet_socket_bind          00403bd0 f   enet:win32.o
 0001:00002c60       _enet_socket_get_address   00403c60 f   enet:win32.o
 0001:00002cc0       _enet_socket_listen        00403cc0 f   enet:win32.o
 0001:00002d00       _enet_socket_create        00403d00 f   enet:win32.o
 0001:00002d30       _enet_socket_set_option    00403d30 f   enet:win32.o
 0001:00002eb0       _enet_socket_get_option    00403eb0 f   enet:win32.o
 0001:00002f10       _enet_socket_connect       00403f10 f   enet:win32.o
 0001:00002fb0       _enet_socket_accept        00403fb0 f   enet:win32.o
 0001:00003040       _enet_socket_shutdown      00404040 f   enet:win32.o
 0001:00003070       _enet_socket_destroy       00404070 f   enet:win32.o
 0001:00003090       _enet_socket_send          00404090 f   enet:win32.o
 0001:00003180       _enet_socket_receive       00404180 f   enet:win32.o
 0001:00003270       _enet_socketset_select     00404270 f   enet:win32.o
 0001:000032d0       _enet_socket_wait          004042d0 f   enet:win32.o
 0001:00004460       _enet_protocol_command_size 00405460 f   enet:protocol.o
 0001:00004470       _enet_host_flush           00405470 f   enet:protocol.o
 0001:000048b0       _enet_host_check_events    004058b0 f   enet:protocol.o
 0001:00004a10       _enet_host_service         00405a10 f   enet:protocol.o
 0001:000065d0       _enet_packet_create        004075d0 f   enet:packet.o
 0001:00006680       _enet_packet_destroy       00407680 f   enet:packet.o
 0001:000066d0       _enet_packet_resize        004076d0 f   enet:packet.o
 0001:00006730       _enet_crc32                00407730 f   enet:packet.o
 0001:00006930       _enet_initialize_with_callbacks 00407930 f   enet:callbacks.o
 0001:00006980       _enet_linked_version       00407980 f   enet:callbacks.o
 0001:00006990       _enet_malloc               00407990 f   enet:callbacks.o
 0001:000069d0       _enet_free                 004079d0 f   enet:callbacks.o
 0001:000069e0       _enet_list_clear           004079e0 f   enet:list.o
 0001:000069f0       _enet_list_insert          004079f0 f   enet:list.o
 0001:00006a10       _enet_list_remove          00407a10 f   enet:list.o
 0001:00006a30       _enet_list_move            00407a30 f   enet:list.o
 0001:00006a60       _enet_list_size            00407a60 f   enet:list.o
 0001:0001d0e0       ?gentex@BlendBrush@@QAEXXZ 0041e0e0 f i blend.obj
 0001:0001d2c0       ?cleanup@ImageData@@QAEXXZ 0041e2c0 f i blend.obj
 0001:0001d300       ??1ImageData@@QAE@XZ       0041e300 f i blend.obj
 0001:0001d370       ??0ImageData@@QAE@XZ       0041e370 f i blend.obj
 0001:0001d390       ?newstring@@YAPADPBD@Z     0041e390 f i blend.obj
 0001:0001d3d0       ??0lightcacheentry@@QAE@XZ 0041e3d0 f i lightmap.obj
 0001:0001d420       ??1lightcacheentry@@QAE@XZ 0041e420 f i lightmap.obj
 0001:0001d470       ??1?$hashbase@U?$hashset@Ulayoutinfo@@@@Ulayoutinfo@@U2@U2@@@QAE@XZ 0041e470 f i lightmap.obj
 0001:0001d4c0       ??1?$vector@Uvec2@@@@QAE@XZ 0041e4c0 f i worldio.obj
 0001:0001d4c0       ??1?$vector@Usortkey@@@@QAE@XZ 0041e4c0 f i octarender.obj
 0001:0001d4c0       ??1?$vector@Urotlimit@ragdollskel@@@@QAE@XZ 0041e4c0 f i rendermodel.obj
 0001:0001d4c0       ??1?$vector@Umergedface@@@@QAE@XZ 0041e4c0 f i octarender.obj
 0001:0001d4c0       ??1?$vector@Uvertex@@@@QAE@XZ 0041e4c0 f i octarender.obj
 0001:0001d4c0       ??1?$vector@Uscore@captureclientmode@game@@@@QAE@XZ 0041e4c0 f i client1.obj
 0001:0001d4c0       ??1?$vector@Uipmask@@@@QAE@XZ 0041e4c0 f i server1.obj
 0001:0001d4c0       ??1?$vector@Uvvertbump@vertmodel@@@@QAE@XZ 0041e4c0 f i rendermodel.obj
 0001:0001d4c0       ??1?$vector@Ulightmaptask@@@@QAE@XZ 0041e4c0 f i lightmap.obj
 0001:0001d4c0       ??1?$vector@Uivec2@@@@QAE@XZ 0041e4c0 f i worldio.obj
 0001:0001d4c0       ??1?$vector@Uhitinfo@server@@@@QAE@XZ 0041e4c0 f i server1.obj
 0001:0001d4c0       ??1?$vector@Uflag@ctfservmode@server@@@@QAE@XZ 0041e4c0 f i server1.obj
 0001:0001d4c0       ??1?$vector@Uskelcacheentry@skelmodel@@@@QAE@XZ 0041e4c0 f i rendermodel.obj
 0001:0001d4c0       ??1?$vector@Ubase@collectclientmode@game@@@@QAE@XZ 0041e4c0 f i client1.obj
 0001:0001d4c0       ??1?$vector@USlotShaderParamState@@@@QAE@XZ 0041e4c0 f i shader.obj
 0001:0001d4c0       ??1?$vector@Uvvertbumpw@skelmodel@@@@QAE@XZ 0041e4c0 f i rendermodel.obj
 0001:0001d4c0       ??1?$vector@Uvert@vertmodel@@@@QAE@XZ 0041e4c0 f i rendermodel.obj
 0001:0001d4c0       ??1?$vector@Uvvertn@vertmodel@@@@QAE@XZ 0041e4c0 f i rendermodel.obj
 0001:0001d4c0       ??1?$vector@Uholdspawn@ctfclientmode@game@@@@QAE@XZ 0041e4c0 f i client1.obj
 0001:0001d4c0       ??1?$vector@Utransparentmodel@@@@QAE@XZ 0041e4c0 f i rendermodel.obj
 0001:0001d4c0       ??1?$vector@Uvec@@@@QAE@XZ 0041e4c0 f i worldio.obj
 0001:0001d4c0       ??1?$vector@Uvotecount@server@@@@QAE@XZ 0041e4c0 f i server1.obj
 0001:0001d4c0       ??1?$vector@Uvert@skelmodel@@@@QAE@XZ 0041e4c0 f i rendermodel.obj
 0001:0001d4c0       ??1?$vector@Upoly@@@@QAE@XZ 0041e4c0 f i octa.obj
 0001:0001d4c0       ??1?$vector@Uvvertbump@skelmodel@@@@QAE@XZ 0041e4c0 f i rendermodel.obj
 0001:0001d4c0       ??1?$vector@Ujoint@ragdollskel@@@@QAE@XZ 0041e4c0 f i rendermodel.obj
 0001:0001d4c0       ??1?$vector@Uscore@captureservmode@server@@@@QAE@XZ 0041e4c0 f i server1.obj
 0001:0001d4c0       ??1?$vector@Uaviindexentry@@@@QAE@XZ 0041e4c0 f i movie.obj
 0001:0001d4c0       ??1?$vector@Utoken@collectclientmode@game@@@@QAE@XZ 0041e4c0 f i client1.obj
 0001:0001d4c0       ??1?$vector@Usmdbone@@@@QAE@XZ 0041e4c0 f i rendermodel.obj
 0001:0001d4c0       ??1?$vector@Ueditline@@@@QAE@XZ 0041e4c0 f i 3dgui.obj
 0001:0001d4c0       ??1?$vector@Ubaseinfo@captureclientmode@game@@@@QAE@XZ 0041e4c0 f i client1.obj
 0001:0001d4c0       ??1?$vector@Udualquat@@@@QAE@XZ 0041e4c0 f i rendermodel.obj
 0001:0001d4c0       ??1?$vector@Uanimspec@animmodel@@@@QAE@XZ 0041e4c0 f i rendermodel.obj
 0001:0001d4c0       ??1?$vector@Umd5hierarchy@@@@QAE@XZ 0041e4c0 f i rendermodel.obj
 0001:0001d4c0       ??1?$vector@Uantipode@skelmodel@@@@QAE@XZ 0041e4c0 f i rendermodel.obj
 0001:0001d4c0       ??1?$vector@Uvertex@prefabmesh@@@@QAE@XZ 0041e4c0 f i octaedit.obj
 0001:0001d4c0       ??1?$vector@ULocalShaderParamState@@@@QAE@XZ 0041e4c0 f i shader.obj
 0001:0001d4c0       ??1?$vector@Uholdspawn@ctfservmode@server@@@@QAE@XZ 0041e4c0 f i server1.obj
 0001:0001d4c0       ??1?$vector@USlotShaderParam@@@@QAE@XZ 0041e4c0 f i octaedit.obj
 0001:0001d4c0       ??1?$vector@UUniformLoc@@@@QAE@XZ 0041e4c0 f i shader.obj
 0001:0001d4c0       ??1?$vector@Uwaterinfo@@@@QAE@XZ 0041e4c0 f i material.obj
 0001:0001d4c0       ??1?$vector@Utcvert@vertmodel@@@@QAE@XZ 0041e4c0 f i rendermodel.obj
 0001:0001d4c0       ??1?$vector@Unode@wpcache@ai@@@@QAE@XZ 0041e4c0 f i waypoint.obj
 0001:0001d4c0       ??1?$vector@Uvvertnw@skelmodel@@@@QAE@XZ 0041e4c0 f i rendermodel.obj
 0001:0001d4c0       ??1?$vector@Uvvertn@skelmodel@@@@QAE@XZ 0041e4c0 f i rendermodel.obj
 0001:0001d4c0       ??1?$vector@UAttribLoc@@@@QAE@XZ 0041e4c0 f i shader.obj
 0001:0001d4c0       ??1?$vector@Uufval@unionfind@@@@QAE@XZ 0041e4c0 f i material.obj
 0001:0001d4c0       ??1?$vector@Ureljoint@ragdollskel@@@@QAE@XZ 0041e4c0 f i rendermodel.obj
 0001:0001d4c0       ??1?$vector@Uskin@animmodel@@@@QAE@XZ 0041e4c0 f i rendermodel.obj
 0001:0001d4c0       ??1?$vector@Ugrasstri@@@@QAE@XZ 0041e4c0 f i octarender.obj
 0001:0001d4c0       ??1?$vector@UGlobalShaderParamUse@@@@QAE@XZ 0041e4c0 f i shader.obj
 0001:0001d4c0       ??1?$vector@Umesh@BIH@@@@QAE@XZ 0041e4c0 f i rendermodel.obj
 0001:0001d4c0       ??1?$vector@Ubaseinfo@captureservmode@server@@@@QAE@XZ 0041e4c0 f i server1.obj
 0001:0001d4c0       ??1?$vector@Uflag@ctfclientmode@game@@@@QAE@XZ 0041e4c0 f i client1.obj
 0001:0001d4c0       ??1?$vector@Utri@skelmodel@@@@QAE@XZ 0041e4c0 f i rendermodel.obj
 0001:0001d4c0       ??1?$vector@Uaistate@ai@@@@QAE@XZ 0041e4c0 f i ai.obj
 0001:0001d4c0       ??1?$vector@Uobstacle@avoidset@ai@@@@QAE@XZ 0041e4c0 f i ai.obj
 0001:0001d4c0       ??1?$vector@Uavisegmentinfo@@@@QAE@XZ 0041e4c0 f i movie.obj
 0001:0001d4c0       ??1?$vector@Uteamscore@@@@QAE@XZ 0041e4c0 f i scoreboard.obj
 0001:0001d4c0       ??1?$vector@Uvert@ragdollskel@@@@QAE@XZ 0041e4c0 f i rendermodel.obj
 0001:0001d4c0       ??1?$vector@Upitchdep@skelmodel@@@@QAE@XZ 0041e4c0 f i rendermodel.obj
 0001:0001d4c0       ??1?$vector@Ublendcombo@skelmodel@@@@QAE@XZ 0041e4c0 f i rendermodel.obj
 0001:0001d4c0       ??1?$vector@Usortitem@@@@QAE@XZ 0041e4c0 f i command.obj
 0001:0001d4c0       ??1?$vector@Upitchtarget@skelmodel@@@@QAE@XZ 0041e4c0 f i rendermodel.obj
 0001:0001d4c0       ??1?$vector@Usoundslot@@@@QAE@XZ 0041e4c0 f i sound.obj
 0001:0001d4c0       ??1?$vector@Utri@ragdollskel@@@@QAE@XZ 0041e4c0 f i rendermodel.obj
 0001:0001d4c0       ??1?$vector@Ulinkedpart@animmodel@@@@QAE@XZ 0041e4c0 f i rendermodel.obj
 0001:0001d4c0       ??1?$vector@Usoundconfig@@@@QAE@XZ 0041e4c0 f i sound.obj
 0001:0001d4c0       ??1?$vector@Utri@vertmodel@@@@QAE@XZ 0041e4c0 f i rendermodel.obj
 0001:0001d4c0       ??1?$vector@Ufacebounds@@@@QAE@XZ 0041e4c0 f i octarender.obj
 0001:0001d4c0       ??1?$vector@Ubase@collectservmode@server@@@@QAE@XZ 0041e4c0 f i server1.obj
 0001:0001d4c0       ??1?$vector@UTex@Slot@@@@QAE@XZ 0041e4c0 f i texture.obj
 0001:0001d4c0       ??1?$vector@Utoken@collectservmode@server@@@@QAE@XZ 0041e4c0 f i server1.obj
 0001:0001d4c0       ??1?$vector@Umd5joint@@@@QAE@XZ 0041e4c0 f i rendermodel.obj
 0001:0001d4c0       ??1?$vector@Upitchcorrect@skelmodel@@@@QAE@XZ 0041e4c0 f i rendermodel.obj
 0001:0001d4c0       ??1?$vector@Ucharinfo@font@@@@QAE@XZ 0041e4c0 f i rendertext.obj
 0001:0001d4c0       ??1?$vector@Ucrcinfo@server@@@@QAE@XZ 0041e4c0 f i server1.obj
 0001:0001d4c0       ??1?$vector@Ubatchedmodel@@@@QAE@XZ 0041e4c0 f i rendermodel.obj
 0001:0001d4c0       ??1?$vector@Urotfriction@ragdollskel@@@@QAE@XZ 0041e4c0 f i rendermodel.obj
 0001:0001d4c0       ??1?$vector@Udistlimit@ragdollskel@@@@QAE@XZ 0041e4c0 f i rendermodel.obj
 0001:0001d4c0       ??1?$vector@Umaterialsurface@@@@QAE@XZ 0041e4c0 f i octarender.obj
 0001:0001d510       ??0?$vector@PAD@@QAE@XZ    0041e510 f i server.obj
 0001:0001d510       ??0?$vector@Ulightmaptask@@@@QAE@XZ 0041e510 f i lightmap.obj
 0001:0001d510       ??0?$vector@E@@QAE@XZ      0041e510 f i octaedit.obj
 0001:0001d510       ??0?$vector@PAUvtxarray@@@@QAE@XZ 0041e510 f i octarender.obj
 0001:0001d510       ??0?$vector@PAUclientinfo@server@@@@QAE@XZ 0041e510 f i server1.obj
 0001:0001d510       ??0?$vector@D@@QAE@XZ      0041e510 f i worldio.obj
 0001:0001d510       ??0?$vector@G@@QAE@XZ      0041e510 f i octaedit.obj
 0001:0001d510       ??0?$vector@Uvec@@@@QAE@XZ 0041e510 f i worldio.obj
 0001:0001d510       ??0?$vector@Ufacebounds@@@@QAE@XZ 0041e510 f i octarender.obj
 0001:0001d510       ??0?$vector@Uanimspec@animmodel@@@@QAE@XZ 0041e510 f i rendermodel.obj
 0001:0001d510       ??0?$vector@Umergedface@@@@QAE@XZ 0041e510 f i octarender.obj
 0001:0001d530       ?add@?$vector@PAUlightmapworker@@@@QAEAAPAUlightmapworker@@ABQAU2@@Z 0041e530 f i lightmap.obj
 0001:0001d620       ??1?$vector@PAUplink@@@@QAE@XZ 0041e620 f i octa.obj
 0001:0001d620       ??1?$vector@PAUvtxarray@@@@QAE@XZ 0041e620 f i octarender.obj
 0001:0001d620       ??1?$vector@PAUclientinfo@server@@@@QAE@XZ 0041e620 f i server1.obj
 0001:0001d620       ??1?$vector@PAUpart@animmodel@@@@QAE@XZ 0041e620 f i rendermodel.obj
 0001:0001d620       ??1?$vector@PAD@@QAE@XZ    0041e620 f i server.obj
 0001:0001d620       ??1?$vector@PAUmaterialsurface@@@@QAE@XZ 0041e620 f i pvs.obj
 0001:0001d620       ??1?$vector@PAUgameevent@server@@@@QAE@XZ 0041e620 f i server1.obj
 0001:0001d620       ??1?$vector@PAUTexture@@@@QAE@XZ 0041e620 f i rendertext.obj
 0001:0001d620       ??1?$vector@PAUextentity@@@@QAE@XZ 0041e620 f i entities.obj
 0001:0001d620       ??1?$vector@D@@QAE@XZ      0041e620 f i worldio.obj
 0001:0001d620       ??1?$vector@G@@QAE@XZ      0041e620 f i octaedit.obj
 0001:0001d620       ??1?$vector@PAUident@@@@QAE@XZ 0041e620 f i command.obj
 0001:0001d620       ??1?$vector@PAUfpsent@@@@QAE@XZ 0041e620 f i ai.obj
 0001:0001d620       ??1?$vector@H@@QAE@XZ      0041e620 f i lightmap.obj
 0001:0001d620       ??1?$vector@PAUShader@@@@QAE@XZ 0041e620 f i shader.obj
 0001:0001d620       ??1?$vector@I@@QAE@XZ      0041e620 f i command.obj
 0001:0001d620       ??1?$vector@PAUmesh@animmodel@@@@QAE@XZ 0041e620 f i rendermodel.obj
 0001:0001d620       ??1?$vector@PBUextentity@@@@QAE@XZ 0041e620 f i lightmap.obj
 0001:0001d620       ??1?$vector@E@@QAE@XZ      0041e620 f i octaedit.obj
 0001:0001d620       ??1?$vector@PAUkeym@@@@QAE@XZ 0041e620 f i console.obj
 0001:0001d620       ??1?$vector@PAUskelmeshgroup@skelmodel@@@@QAE@XZ 0041e620 f i rendermodel.obj
 0001:0001d620       ??1?$vector@PAUphysent@@@@QAE@XZ 0041e620 f i physics.obj
 0001:0001d620       ??1?$vector@PAUoctaentities@@@@QAE@XZ 0041e620 f i octarender.obj
 0001:0001d660       ?add@?$vector@ULightMapTexture@@@@QAEAAULightMapTexture@@XZ 0041e660 f i lightmap.obj
 0001:0001d770       ?shrink@?$vector@ULightMap@@@@QAEXH@Z 0041e770 f i lightmap.obj
 0001:0001d7f0       ?add@?$vector@ULightMap@@@@QAEAAULightMap@@XZ 0041e7f0 f i lightmap.obj
 0001:0001d980       ??A?$vector@PAUfpsent@@@@QAEAAPAUfpsent@@H@Z 0041e980 f i ai.obj
 0001:0001d980       ??A?$vector@PAUclientinfo@server@@@@QAEAAPAUclientinfo@server@@H@Z 0041e980 f i server1.obj
 0001:0001d980       ??A?$vector@PAUident@@@@QAEAAPAUident@@H@Z 0041e980 f i command.obj
 0001:0001d980       ??A?$vector@PAUextentity@@@@QAEAAPAUextentity@@H@Z 0041e980 f i lightmap.obj
 0001:0001d990       ?add@?$vector@H@@QAEAAHABH@Z 0041e990 f i lightmap.obj
 0001:0001d990       ?add@?$vector@PAUoctaentities@@@@QAEAAPAUoctaentities@@ABQAU2@@Z 0041e990 f i octarender.obj
 0001:0001d990       ?add@?$vector@I@@QAEAAIABI@Z 0041e990 f i command.obj
 0001:0001d9d0       ?deletechunks@?$hashbase@U?$hashset@Ulayoutinfo@@@@Ulayoutinfo@@U2@U2@@@QAEXXZ 0041e9d0 f i lightmap.obj
 0001:0001da10       ?growbuf@?$vector@Ulightmaptask@@@@QAEXH@Z 0041ea10 f i lightmap.obj
 0001:0001daa0       ?growbuf@?$vector@PAUoctaentities@@@@QAEXH@Z 0041eaa0 f i octarender.obj
 0001:0001daa0       ?growbuf@?$vector@I@@QAEXH@Z 0041eaa0 f i command.obj
 0001:0001daa0       ?growbuf@?$vector@H@@QAEXH@Z 0041eaa0 f i lightmap.obj
 0001:0001daa0       ?growbuf@?$vector@PAUTexture@@@@QAEXH@Z 0041eaa0 f i rendertext.obj
 0001:0001daa0       ?growbuf@?$vector@PAUplink@@@@QAEXH@Z 0041eaa0 f i octa.obj
 0001:0001db30       ??$formatstring@$0BAE@@@YAXAAY0BAE@DPBDZZ 0041eb30 f i lightmap.obj
 0001:0001db70       ?insert@?$hashbase@U?$hashset@Ulayoutinfo@@@@Ulayoutinfo@@U2@U2@@@QAEPAUchain@1@I@Z 0041eb70 f i lightmap.obj
 0001:0001dcd0       ___local_stdio_printf_options 0041ecd0 f i lightmap.obj
 0001:0001dce0       ?calcsize@ImageData@@QBEHXZ 0041ece0 f i lightmap.obj
 0001:0001dd90       ??0ImageData@@QAE@HHHPAE@Z 0041ed90 f i lightmap.obj
 0001:0001de10       ?boundbox@model@@QAEXAAUvec@@0@Z 0041ee10 f i lightmap.obj
 0001:0001de80       ?above@model@@QAEMXZ       0041ee80 f i lightmap.obj
 0001:0001df00       ?finalize@LightMap@@QAEXXZ 0041ef00 f i lightmap.obj
 0001:0001df50       ?toplane@plane@@QAE_NABUvec@@00@Z 0041ef50 f i lightmap.obj
 0001:0001e0b0       ?iszero@vec@@QBE_NXZ       0041f0b0 f i lightmap.obj
 0001:0001e0f0       ??0PackNode@@QAE@GGGG@Z    0041f0f0 f i lightmap.obj
 0001:0001e140       ??1PackNode@@QAE@XZ        0041f140 f i lightmap.obj
 0001:0001e170       ?clear@PackNode@@QAEXXZ    0041f170 f i lightmap.obj
 0001:0001e1c0       ?add@vec@@QAEAAU1@ABU1@@Z  0041f1c0 f i lightmap.obj
 0001:0001e200       _sqrtf                     0041f200 f i lightmap.obj
 0001:0001e230       ?normalize@vec@@QAEAAU1@XZ 0041f230 f i lightmap.obj
 0001:0001e290       ??Avec@@QAEAAMH@Z          0041f290 f i lightmap.obj
 0001:0001e2a0       _cosf                      0041f2a0 f i lightmap.obj
 0001:0001e2d0       _sinf                      0041f2d0 f i lightmap.obj
 0001:0001e300       ??0vec@@QAE@MM@Z           0041f300 f i lightmap.obj
 0001:0001e3b0       ??0vec@@QAE@MMM@Z          0041f3b0 f i lightmap.obj
 0001:0001e3d0       ??1?$hashbase@U?$hashset@Unormalgroup@@@@Unormalgroup@@U2@U2@@@QAE@XZ 0041f3d0 f i normal.obj
 0001:0001e420       ?deletechunks@?$hashbase@U?$hashset@Unormalgroup@@@@Unormalgroup@@U2@U2@@@QAEXXZ 0041f420 f i normal.obj
 0001:0001e460       ??$access@Uvec@@U1@@?$hashbase@U?$hashset@Unormalgroup@@@@Unormalgroup@@U2@U2@@@QAEAAUnormalgroup@@ABUvec@@0@Z 0041f460 f i normal.obj
 0001:0001e530       ??$access@Uvec@@@?$hashbase@U?$hashset@Unormalgroup@@@@Unormalgroup@@U2@U2@@@QAEPAUnormalgroup@@ABUvec@@@Z 0041f530 f i normal.obj
 0001:0001e5c0       ?insert@?$hashbase@U?$hashset@Unormalgroup@@@@Unormalgroup@@U2@U2@@@QAEPAUchain@1@I@Z 0041f5c0 f i normal.obj
 0001:0001e7a0       ??9vec@@QBE_NABU0@@Z       0041f7a0 f i normal.obj
 0001:0001e7e0       ?cross@vec@@QAEAAU1@ABU1@00@Z 0041f7e0 f i normal.obj
 0001:0001e8a0       ??8vec@@QBE_NABU0@@Z       0041f8a0 f i normal.obj
 0001:0001e8e0       ??1?$hashtable@Uivec@@H@@QAE@XZ 0041f8e0 f i rendermodel.obj
 0001:0001e8e0       ??1?$hashtable@Uvec@@H@@QAE@XZ 0041f8e0 f i worldio.obj
 0001:0001e8e0       ??1?$hashset@Uplink@@@@QAE@XZ 0041f8e0 f i octa.obj
 0001:0001e920       ??1?$hashbase@U?$hashtable@Ucfkey@@Ucfpolys@@@@U?$hashtableentry@Ucfkey@@Ucfpolys@@@@Ucfkey@@Ucfpolys@@@@QAE@XZ 0041f920 f i octa.obj
 0001:0001e970       ??1?$hashbase@U?$hashset@Uplink@@@@Uplink@@U2@U2@@@QAE@XZ 0041f970 f i octa.obj
 0001:0001e970       ??1?$hashbase@U?$hashtable@Uivec@@H@@U?$hashtableentry@Uivec@@H@@Uivec@@H@@QAE@XZ 0041f970 f i rendermodel.obj
 0001:0001e970       ??1?$hashbase@U?$hashtable@Uvec@@H@@U?$hashtableentry@Uvec@@H@@Uvec@@H@@QAE@XZ 0041f970 f i worldio.obj
 0001:0001e9e0       ?deletechunks@?$hashbase@U?$hashtable@Ucfkey@@Ucfpolys@@@@U?$hashtableentry@Ucfkey@@Ucfpolys@@@@Ucfkey@@Ucfpolys@@@@QAEXXZ 0041f9e0 f i octa.obj
 0001:0001ea60       ??1chain@?$hashbase@U?$hashtable@Ucfkey@@Ucfpolys@@@@U?$hashtableentry@Ucfkey@@Ucfpolys@@@@Ucfkey@@Ucfpolys@@@@QAE@XZ 0041fa60 f i octa.obj
 0001:0001ead0       ??1?$hashtableentry@Ucfkey@@Ucfpolys@@@@QAE@XZ 0041fad0 f i octa.obj
 0001:0001eb30       ??1unionfind@@QAE@XZ       0041fb30 f i material.obj
 0001:0001eb30       ??1wpcache@ai@@QAE@XZ      0041fb30 f i waypoint.obj
 0001:0001eb30       ??1cfpolys@@QAE@XZ         0041fb30 f i octa.obj
 0001:0001eb90       ?insert@?$hashbase@U?$hashtable@Ucfkey@@Ucfpolys@@@@U?$hashtableentry@Ucfkey@@Ucfpolys@@@@Ucfkey@@Ucfpolys@@@@QAEPAUchain@1@I@Z 0041fb90 f i octa.obj
 0001:0001ed40       ?insert@?$hashbase@U?$hashset@Uplink@@@@Uplink@@U2@U2@@@QAEPAUchain@1@I@Z 0041fd40 f i octa.obj
 0001:0001eef0       ??0chain@?$hashbase@U?$hashtable@Ucfkey@@Ucfpolys@@@@U?$hashtableentry@Ucfkey@@Ucfpolys@@@@Ucfkey@@Ucfpolys@@@@QAE@XZ 0041fef0 f i octa.obj
 0001:0001ef50       ??9ivec2@@QBE_NABU0@@Z     0041ff50 f i octa.obj
 0001:0001ef70       ?cross@ivec@@QAEAAU1@ABU1@0@Z 0041ff70 f i octa.obj
 0001:0001efc0       ??1prefab@@QAE@XZ          0041ffc0 f i octaedit.obj
 0001:0001f010       ?addvert@prefabmesh@@QAEHABUvertex@1@@Z 00420010 f i octaedit.obj
 0001:0001f1d0       ??1prefabmesh@@QAE@XZ      004201d0 f i octaedit.obj
 0001:0001f280       ??0vslotref@@QAE@AAH@Z     00420280 f i octaedit.obj
 0001:0001f360       ??1vslotref@@QAE@XZ        00420360 f i octaedit.obj
 0001:0001f370       ?isheightmap@@YA_NHH_NPAUcube@@@Z 00420370 f i octaedit.obj
 0001:0001f3c0       ?gui@texturegui@@UAEXAAUg3d_gui@@_N@Z 004203c0 f i octaedit.obj
 0001:0001f7a0       ??_Emenu@@UAEPAXI@Z        004207a0 f i * CIL library *:* CIL module *
 0001:0001f7a0       ??_Gmenu@@UAEPAXI@Z        004207a0 f i menus.obj
 0001:0001f7a0       ??_Etexturegui@@UAEPAXI@Z  004207a0 f i * CIL library *:* CIL module *
 0001:0001f7a0       ??_Gtexturegui@@UAEPAXI@Z  004207a0 f i octaedit.obj
 0001:0001f7f0       ??1?$hashbase@U?$hashnameset@Uprefab@@@@Uprefab@@PBDU2@@@QAE@XZ 004207f0 f i octaedit.obj
 0001:0001f880       ?add@?$vector@Ucrcinfo@server@@@@QAEAAUcrcinfo@server@@ABU23@@Z 00420880 f i server1.obj
 0001:0001f880       ?add@?$vector@Uteamscore@@@@QAEAAUteamscore@@ABU2@@Z 00420880 f i client1.obj
 0001:0001f880       ?add@?$vector@Uvslotmap@@@@QAEAAUvslotmap@@ABU2@@Z 00420880 f i octaedit.obj
 0001:0001f940       ?add@?$vector@PAUeditinfo@@@@QAEAAPAUeditinfo@@ABQAU2@@Z 00420940 f i octaedit.obj
 0001:0001fa20       ?remove@?$vector@G@@QAEGH@Z 00420a20 f i octaedit.obj
 0001:0001fa70       ?add@?$vector@G@@QAEAAGABG@Z 00420a70 f i octaedit.obj
 0001:0001fb20       ?add@?$vector@USlotShaderParam@@@@QAEAAUSlotShaderParam@@ABU2@@Z 00420b20 f i octaedit.obj
 0001:0001fb70       ?put@?$vector@E@@QAEXPBEH@Z 00420b70 f i octaedit.obj
 0001:0001fb70       ?put@?$vector@D@@QAEXPBDH@Z 00420b70 f i server.obj
 0001:0001fbb0       ?pad@?$vector@E@@QAEPAEH@Z 00420bb0 f i octaedit.obj
 0001:0001fbf0       ?growbuf@?$vector@Uentity@@@@QAEXH@Z 00420bf0 f i world.obj
 0001:0001fbf0       ?growbuf@?$vector@USlotShaderParam@@@@QAEXH@Z 00420bf0 f i octaedit.obj
 0001:0001fc80       ?growbuf@?$vector@E@@QAEXH@Z 00420c80 f i octaedit.obj
 0001:0001fc80       ?growbuf@?$vector@D@@QAEXH@Z 00420c80 f i worldio.obj
 0001:0001fd10       ??1chain@?$hashbase@U?$hashnameset@Uprefab@@@@Uprefab@@PBDU2@@@QAE@XZ 00420d10 f i octaedit.obj
 0001:0001fd70       ?length@?$databuf@E@@QBEHXZ 00420d70 f i octaedit.obj
 0001:0001fd80       ??$access@PAD@?$hashbase@U?$hashnameset@Uprefab@@@@Uprefab@@PBDU2@@@QAEPAUprefab@@ABQAD@Z 00420d80 f i octaedit.obj
 0001:0001fdf0       ??$find@H@?$vector@H@@QAEHABH@Z 00420df0 f i octaedit.obj
 0001:0001fe20       ?get@?$databuf@E@@QAEHPAEH@Z 00420e20 f i octaedit.obj
 0001:0001fe60       ?insert@?$hashbase@U?$hashnameset@Uprefab@@@@Uprefab@@PBDU2@@@QAEPAUchain@1@I@Z 00420e60 f i octaedit.obj
 0001:00020030       ?get@?$databuf@E@@QAEABEXZ 00421030 f i octaedit.obj
 0001:00020050       ??0chain@?$hashbase@U?$hashnameset@Uprefab@@@@Uprefab@@PBDU2@@@QAE@XZ 00421050 f i octaedit.obj
 0001:000200b0       ?add@?$vector@D@@QAEAADABD@Z 004210b0 f i serverbrowser.obj
 0001:000200b0       ?add@?$vector@E@@QAEAAEABE@Z 004210b0 f i octaedit.obj
 0001:000200f0       ?dist@vec@@QBEMABU1@@Z     004210f0 f i octaedit.obj
 0001:00020150       ??_Eg3d_callback@@UAEPAXI@Z 00421150 f i * CIL library *:* CIL module *
 0001:00020150       ??_Gg3d_callback@@UAEPAXI@Z 00421150 f i octaedit.obj
 0001:00020180       ??1g3d_callback@@UAE@XZ    00421180 f i octaedit.obj
 0001:00020190       ?resolve@GlobalShaderParam@@QAEPAUGlobalShaderParamState@@XZ 00421190 f i octaedit.obj
 0001:000203d0       ??$mult@Uvec4@@@matrix4@@QAEXABU0@0@Z 004213d0 f i octaedit.obj
 0001:00020870       ?translate@matrix4@@QAEXABUvec@@@Z 00421870 f i octaedit.obj
 0001:00020980       ?rotate_around_y@matrix4@@QAEXM@Z 00421980 f i octaedit.obj
 0001:00020ae0       ?rotate_around_x@matrix4@@QAEXM@Z 00421ae0 f i octaedit.obj
 0001:00020c40       ?rotate_around_z@matrix4@@QAEXM@Z 00421c40 f i octaedit.obj
 0001:00020da0       ?identity@matrix4@@QAEXXZ  00421da0 f i octaedit.obj
 0001:00020de0       ??1VSlot@@QAE@XZ           00421de0 f i octaedit.obj
 0001:00020e40       ?reset@VSlot@@QAEXXZ       00421e40 f i octaedit.obj
 0001:00020ef0       ??0VSlot@@QAE@PAUSlot@@H@Z 00421ef0 f i octaedit.obj
 0001:00020f90       ??8selinfo@@QBE_NABU0@@Z   00421f90 f i octaedit.obj
 0001:00020fe0       ?flushparams@Shader@@QAEXPAUSlot@@@Z 00421fe0 f i octaedit.obj
 0001:00021170       ?set@Shader@@QAEXXZ        00422170 f i octaedit.obj
 0001:000211b0       ?rayintersect@plane@@QAE_NABUvec@@0AAM@Z 004221b0 f i octaedit.obj
 0001:00021240       ??0selinfo@@QAE@XZ         00422240 f i octaedit.obj
 0001:000212a0       ?remaining@?$databuf@E@@QBEHXZ 004222a0 f i octaedit.obj
 0001:000212b0       ?pad@?$databuf@E@@QAEPAEH@Z 004222b0 f i octaedit.obj
 0001:000212d0       ?addvert@verthash@@QAEHABUvertex@@@Z 004222d0 f i octarender.obj
 0001:000214f0       ?remapunlit@vacollect@@QAEXAAU?$vector@Usortkey@@@@@Z 004224f0 f i octarender.obj
 0001:00022000       ?optimize@vacollect@@QAEXXZ 00423000 f i octarender.obj
 0001:000224e0       ?texsort@vacollect@@SA_NABUsortkey@@0@Z 004234e0 f i octarender.obj
 0001:00022580       ?setupdata@vacollect@@QAEXPAUvtxarray@@@Z 00423580 f i octarender.obj
 0001:00022dd0       ??1vacollect@@QAE@XZ       00423dd0 f i octarender.obj
 0001:00022f40       ??1verthash@@QAE@XZ        00423f40 f i octarender.obj
 0001:00022fc0       ??1?$hashtable@Usortkey@@Usortval@@@@QAE@XZ 00423fc0 f i octarender.obj
 0001:00023020       ?add@?$vector@Umergedface@@@@QAEAAUmergedface@@ABU2@@Z 00424020 f i octarender.obj
 0001:00023070       ??1?$hashbase@U?$hashtable@Uedgegroup@@H@@U?$hashtableentry@Uedgegroup@@H@@Uedgegroup@@H@@QAE@XZ 00424070 f i octarender.obj
 0001:000230e0       ?add@?$vector@Usortkey@@@@QAEAAUsortkey@@ABU2@@Z 004240e0 f i octarender.obj
 0001:000231b0       ??1?$hashbase@U?$hashtable@Usortkey@@Usortval@@@@U?$hashtableentry@Usortkey@@Usortval@@@@Usortkey@@Usortval@@@@QAE@XZ 004241b0 f i octarender.obj
 0001:00023200       ??1?$hashbase@U?$hashtable@IUvboinfo@@@@U?$hashtableentry@IUvboinfo@@@@IUvboinfo@@@@QAE@XZ 00424200 f i octarender.obj
 0001:00023270       ?removeobj@?$vector@PAUvtxarray@@@@QAEXABQAUvtxarray@@@Z 00424270 f i octarender.obj
 0001:00023270       ?removeobj@?$vector@PAUclientinfo@server@@@@QAEXABQAUclientinfo@server@@@Z 00424270 f i server1.obj
 0001:00023270       ?removeobj@?$vector@PAUmesh@animmodel@@@@QAEXABQAUmesh@animmodel@@@Z 00424270 f i rendermodel.obj
 0001:00023270       ?removeobj@?$vector@H@@QAEXABH@Z 00424270 f i world.obj
 0001:000232c0       ?add@?$vector@PAUskelmeshgroup@skelmodel@@@@QAEAAPAUskelmeshgroup@skelmodel@@ABQAU23@@Z 004242c0 f i rendermodel.obj
 0001:000232c0       ?add@?$vector@PAUmesh@animmodel@@@@QAEAAPAUmesh@animmodel@@ABQAU23@@Z 004242c0 f i rendermodel.obj
 0001:000232c0       ?add@?$vector@PAUident@@@@QAEAAPAUident@@ABQAU2@@Z 004242c0 f i command.obj
 0001:000232c0       ?add@?$vector@PAUfpsent@@@@QAEAAPAUfpsent@@ABQAU2@@Z 004242c0 f i ai.obj
 0001:000232c0       ?add@?$vector@PAD@@QAEAAPADABQAD@Z 004242c0 f i server.obj
 0001:000232c0       ?add@?$vector@PBD@@QAEAAPBDABQBD@Z 004242c0 f i serverbrowser.obj
 0001:000232c0       ?add@?$vector@PAUclientinfo@server@@@@QAEAAPAUclientinfo@server@@ABQAU23@@Z 004242c0 f i server1.obj
 0001:000232c0       ?add@?$vector@PAUphysent@@@@QAEAAPAUphysent@@ABQAU2@@Z 004242c0 f i physics.obj
 0001:000232c0       ?add@?$vector@PAUpart@animmodel@@@@QAEAAPAUpart@animmodel@@ABQAU23@@Z 004242c0 f i rendermodel.obj
 0001:000232c0       ?add@?$vector@PAUextentity@@@@QAEAAPAUextentity@@ABQAU2@@Z 004242c0 f i world.obj
 0001:000232c0       ?add@?$vector@PAUvtxarray@@@@QAEAAPAUvtxarray@@ABQAU2@@Z 004242c0 f i octarender.obj
 0001:000232c0       ?add@?$vector@PAUmaterialsurface@@@@QAEAAPAUmaterialsurface@@ABQAU2@@Z 004242c0 f i pvs.obj
 0001:00023380       ?growbuf@?$vector@Umergedface@@@@QAEXH@Z 00424380 f i octarender.obj
 0001:00023410       ?deletechunks@?$hashbase@U?$hashtable@Usortkey@@Usortval@@@@U?$hashtableentry@Usortkey@@Usortval@@@@Usortkey@@Usortval@@@@QAEXXZ 00424410 f i octarender.obj
 0001:00023490       ?growbuf@?$vector@Ugrasstri@@@@QAEXH@Z 00424490 f i octarender.obj
 0001:00023520       ??1chain@?$hashbase@U?$hashtable@Usortkey@@Usortval@@@@U?$hashtableentry@Usortkey@@Usortval@@@@Usortkey@@Usortval@@@@QAE@XZ 00424520 f i octarender.obj
 0001:00023580       ??1?$hashtableentry@Usortkey@@Usortval@@@@QAE@XZ 00424580 f i octarender.obj
 0001:000235d0       ??1sortval@@QAE@XZ         004245d0 f i octarender.obj
 0001:00023620       ??$?AUsortkey@@@?$hashbase@U?$hashtable@Usortkey@@Usortval@@@@U?$hashtableentry@Usortkey@@Usortval@@@@Usortkey@@Usortval@@@@QAEAAUsortval@@ABUsortkey@@@Z 00424620 f i octarender.obj
 0001:000236b0       ?insert@?$hashbase@U?$hashtable@Uedgegroup@@H@@U?$hashtableentry@Uedgegroup@@H@@Uedgegroup@@H@@QAEPAUchain@1@I@Z 004246b0 f i octarender.obj
 0001:00023860       ?insert@?$hashbase@U?$hashtable@Usortkey@@Usortval@@@@U?$hashtableentry@Usortkey@@Usortval@@@@Usortkey@@Usortval@@@@QAEPAUchain@1@I@Z 00424860 f i octarender.obj
 0001:00023a10       ?insert@?$hashbase@U?$hashtable@IUvboinfo@@@@U?$hashtableentry@IUvboinfo@@@@IUvboinfo@@@@QAEPAUchain@1@I@Z 00424a10 f i octarender.obj
 0001:00023b70       ??0chain@?$hashbase@U?$hashtable@Usortkey@@Usortval@@@@U?$hashtableentry@Usortkey@@Usortval@@@@Usortkey@@Usortval@@@@QAE@XZ 00424b70 f i octarender.obj
 0001:00023bd0       ?supportpoint@CubePlanes@mpr@@QBE?AUvec@@ABU3@@Z 00424bd0 f i physics.obj
 0001:00023d70       ?contactface@EntOBB@mpr@@QBE?AUvec@@ABU3@0@Z 00424d70 f i physics.obj
 0001:00023fd0       ?supportpoint@EntOBB@mpr@@QBE?AUvec@@ABU3@@Z 00424fd0 f i physics.obj
 0001:000240d0       ?left@EntOBB@mpr@@QBEMXZ   004250d0 f i physics.obj
 0001:00024140       ?right@EntOBB@mpr@@QBEMXZ  00425140 f i physics.obj
 0001:000241b0       ?back@EntOBB@mpr@@QBEMXZ   004251b0 f i physics.obj
 0001:00024220       ?front@EntOBB@mpr@@QBEMXZ  00425220 f i physics.obj
 0001:00024290       ?contactface@EntCylinder@mpr@@QBE?AUvec@@ABU3@0@Z 00425290 f i physics.obj
 0001:000243b0       ?contactface@ModelOBB@mpr@@QBE?AUvec@@ABU3@0@Z 004253b0 f i physics.obj
 0001:000245c0       ??0dynentcacheentry@@QAE@XZ 004255c0 f i physics.obj
 0001:00024610       ??1dynentcacheentry@@QAE@XZ 00425610 f i physics.obj
 0001:00024660       ??$insidebb@Uivec@@H@vec@@QBE_NABUivec@@H@Z 00425660 f i physics.obj
 0001:000246e0       ??$collide@UEntOBB@mpr@@U12@@mpr@@YA_NABUEntOBB@0@0PAUvec@@11@Z 004256e0 f i physics.obj
 0001:00025d30       ??$collide@UEntOBB@mpr@@UEntCylinder@2@@mpr@@YA_NABUEntOBB@0@ABUEntCylinder@0@PAUvec@@22@Z 00426d30 f i physics.obj
 0001:00027450       ??$collide@UEntOBB@mpr@@UModelEllipse@2@@mpr@@YA_NABUEntOBB@0@ABUModelEllipse@0@PAUvec@@22@Z 00428450 f i physics.obj
 0001:00028ba0       ??$collide@UEntOBB@mpr@@UModelOBB@2@@mpr@@YA_NABUEntOBB@0@ABUModelOBB@0@PAUvec@@22@Z 00429ba0 f i physics.obj
 0001:0002a1f0       ??$collide@USolidCube@mpr@@UEntOBB@2@@mpr@@YA_NABUSolidCube@0@ABUEntOBB@0@@Z 0042b1f0 f i physics.obj
 0001:0002ae70       ??$collide@UCubePlanes@mpr@@UEntOBB@2@@mpr@@YA_NABUCubePlanes@0@ABUEntOBB@0@@Z 0042be70 f i physics.obj
 0001:0002ba40       ??$collide@USolidCube@mpr@@UEntCapsule@2@@mpr@@YA_NABUSolidCube@0@ABUEntCapsule@0@@Z 0042ca40 f i physics.obj
 0001:0002c700       ??$collide@UCubePlanes@mpr@@UEntCapsule@2@@mpr@@YA_NABUCubePlanes@0@ABUEntCapsule@0@@Z 0042d700 f i physics.obj
 0001:0002d270       __vfprintf_l               0042e270 f i physics.obj
 0001:0002d2a0       _printf                    0042e2a0 f i physics.obj
 0001:0002d2e0       ?reset@physent@@QAEXXZ     0042e2e0 f i physics.obj
 0001:0002d350       ??0physent@@QAE@XZ         0042e350 f i physics.obj
 0001:0002d3f0       ?collisionbox@model@@QAEMAAUvec@@0@Z 0042e3f0 f i physics.obj
 0001:0002d510       _atan2f                    0042e510 f i physics.obj
 0001:0002d550       ?transform@matrix3@@QBE?AUvec@@ABU2@@Z 0042e550 f i physics.obj
 0001:0002d630       ?setyaw@matrix3@@QAEXM@Z   0042e630 f i physics.obj
 0001:0002d6c0       ??0shaftbb@@QAE@ABUivec@@HABUbvec@@@Z 0042e6c0 f i pvs.obj
 0001:0002d780       ?calcshaft@shaft@@QAEXABUshaftbb@@0@Z 0042e780 f i pvs.obj
 0001:0002dac0       ?inside@shaft@@QBE_NABUshaftbb@@@Z 0042eac0 f i pvs.obj
 0001:0002db70       ??0<unnamed-type-waterplanes>@@QAE@XZ 0042eb70 f i pvs.obj
 0001:0002dbc0       ??1<unnamed-type-waterplanes>@@QAE@XZ 0042ebc0 f i pvs.obj
 0001:0002dc10       ??0pvsworker@@QAE@XZ       0042ec10 f i pvs.obj
 0001:0002dcd0       ??1pvsworker@@QAE@XZ       0042ecd0 f i pvs.obj
 0001:0002dd40       ?hidepvs@pvsworker@@QAEXAAUpvsnode@@@Z 0042ed40 f i pvs.obj
 0001:0002dda0       ?shaftcullpvs@pvsworker@@QAEXAAUshaft@@AAUpvsnode@@ABUivec@@H@Z 0042eda0 f i pvs.obj
 0001:0002dfb0       ?cullpvs@pvsworker@@QAEXAAUpvsnode@@ABUivec@@H@Z 0042efb0 f i pvs.obj
 0001:00030690       ?compresspvs@pvsworker@@QAE_NAAUpvsnode@@HH@Z 00431690 f i pvs.obj
 0001:00030800       ?serializepvs@pvsworker@@QAE_NAAUpvsnode@@H@Z 00431800 f i pvs.obj
 0001:00030a20       ?materialoccluded@pvsworker@@QAE_NAAUpvsnode@@ABUivec@@H11@Z 00431a20 f i pvs.obj
 0001:00030b60       ?materialoccluded@pvsworker@@QAE_NAAU?$vector@PAUmaterialsurface@@@@@Z 00431b60 f i pvs.obj
 0001:00030d20       ?calcpvs@pvsworker@@QAEXABUivec@@H@Z 00431d20 f i pvs.obj
 0001:00030ec0       ?genviewcell@pvsworker@@QAEHABUivec@@H@Z 00431ec0 f i pvs.obj
 0001:000310c0       ?run@pvsworker@@SAHPAX@Z   004320c0 f i pvs.obj
 0001:00031330       ??0viewcellnode@@QAE@XZ    00432330 f i pvs.obj
 0001:00031370       ??_Gviewcellnode@@QAEPAXI@Z 00432370 f i pvs.obj
 0001:000313b0       ?add@?$vector@PAUpvsworker@@@@QAEAAPAUpvsworker@@ABQAU2@@Z 004323b0 f i pvs.obj
 0001:000314a0       ?add@?$vector@Upvsdata@@@@QAEAAUpvsdata@@ABU2@@Z 004324a0 f i pvs.obj
 0001:00031590       ??1?$hashbase@U?$hashtable@Upvsdata@@H@@U?$hashtableentry@Upvsdata@@H@@Upvsdata@@H@@QAE@XZ 00432590 f i pvs.obj
 0001:000315e0       ?add@?$vector@Upvsnode@@@@QAEAAUpvsnode@@XZ 004325e0 f i pvs.obj
 0001:000316d0       ?deletechunks@?$hashbase@U?$hashtable@Upvsdata@@H@@U?$hashtableentry@Upvsdata@@H@@Upvsdata@@H@@QAEXXZ 004326d0 f i pvs.obj
 0001:00031710       ?insert@?$hashbase@U?$hashtable@Upvsdata@@H@@U?$hashtableentry@Upvsdata@@H@@Upvsdata@@H@@QAEPAUchain@1@I@Z 00432710 f i pvs.obj
 0001:000318a0       ?inrange@?$vector@PAUextentity@@@@QBE_NH@Z 004328a0 f i world.obj
 0001:000318a0       ?inrange@?$vector@Usmdbone@@@@QBE_NH@Z 004328a0 f i rendermodel.obj
 0001:000318a0       ?inrange@?$vector@Ucharinfo@font@@@@QBE_NH@Z 004328a0 f i rendertext.obj
 0001:000318c0       ??$copystring@$0BAE@@@YAPADAAY0BAE@DPBD@Z 004328c0 f i world.obj
 0001:000318f0       ?concatstring@@YAPADPADPBDI@Z 004328f0 f i world.obj
 0001:00031930       ?copystring@@YAPADPADPBDI@Z 00432930 f i world.obj
 0001:00031960       ?nformatstring@@YAXPADHPBDZZ 00432960 f i world.obj
 0001:000319a0       ?rotate@vec@@QAEAAU1@MABU1@@Z 004329a0 f i world.obj
 0001:00031b40       ?orthogonal@vec@@QAEXABU1@@Z 00432b40 f i world.obj
 0001:00031c00       ??1?$hashtable@Uvec2@@H@@QAE@XZ 00432c00 f i worldio.obj
 0001:00031c40       ??1?$hashtable@HU?$vector@Uivec2@@@@@@QAE@XZ 00432c40 f i worldio.obj
 0001:00031c80       ??1?$hashbase@U?$hashtable@HU?$vector@Uivec2@@@@@@U?$hashtableentry@HU?$vector@Uivec2@@@@@@HU?$vector@Uivec2@@@@@@QAE@XZ 00432c80 f i worldio.obj
 0001:00031d10       ??1?$hashbase@U?$hashset@Uteaminfo@@@@Uteaminfo@@U2@U2@@@QAE@XZ 00432d10 f i scoreboard.obj
 0001:00031d10       ??1?$hashbase@U?$hashtable@Uvec2@@H@@U?$hashtableentry@Uvec2@@H@@Uvec2@@H@@QAE@XZ 00432d10 f i worldio.obj
 0001:00031d80       ?add@?$vector@Uvec@@@@QAEAAUvec@@ABU2@@Z 00432d80 f i worldio.obj
 0001:00031e50       ?add@?$vector@PAUVSlot@@@@QAEAAPAUVSlot@@ABQAU2@@Z 00432e50 f i worldio.obj
 0001:00031f30       ?getbuf@?$vector@D@@QAEPADXZ 00432f30 f i worldio.obj
 0001:00031f30       ?getbuf@?$vector@PAD@@QAEPAPADXZ 00432f30 f i server.obj
 0001:00031f40       ?reserve@?$vector@D@@QAE?AU?$databuf@D@@H@Z 00432f40 f i worldio.obj
 0001:00031f80       ??1chain@?$hashbase@U?$hashtable@HU?$vector@Uivec2@@@@@@U?$hashtableentry@HU?$vector@Uivec2@@@@@@HU?$vector@Uivec2@@@@@@QAE@XZ 00432f80 f i worldio.obj
 0001:00031fe0       ??1?$hashtableentry@HU?$vector@Uivec2@@@@@@QAE@XZ 00432fe0 f i worldio.obj
 0001:00032040       ?insert@?$hashbase@U?$hashtable@HU?$vector@Uivec2@@@@@@U?$hashtableentry@HU?$vector@Uivec2@@@@@@HU?$vector@Uivec2@@@@@@QAEPAUchain@1@I@Z 00433040 f i worldio.obj
 0001:000321e0       ?insert@?$hashbase@U?$hashtable@Uvec2@@H@@U?$hashtableentry@Uvec2@@H@@Uvec2@@H@@QAEPAUchain@1@I@Z 004331e0 f i worldio.obj
 0001:00032360       ?insert@?$hashbase@U?$hashtable@Uvec@@H@@U?$hashtableentry@Uvec@@H@@Uvec@@H@@QAEPAUchain@1@I@Z 00433360 f i worldio.obj
 0001:00032360       ?insert@?$hashbase@U?$hashtable@Uivec@@H@@U?$hashtableentry@Uivec@@H@@Uivec@@H@@QAEPAUchain@1@I@Z 00433360 f i rendermodel.obj
 0001:000324e0       ??0chain@?$hashbase@U?$hashtable@HU?$vector@Uivec2@@@@@@U?$hashtableentry@HU?$vector@Uivec2@@@@@@HU?$vector@Uivec2@@@@@@QAE@XZ 004334e0 f i worldio.obj
 0001:00032530       ??1packetbuf@@QAE@XZ       00433530 f i client.obj
 0001:00032590       ?length@?$vector@PAUfpsent@@@@QBEHXZ 00433590 f i ai.obj
 0001:00032590       ?length@?$vector@PAD@@QBEHXZ 00433590 f i server.obj
 0001:00032590       ?length@?$vector@PAUclientinfo@server@@@@QBEHXZ 00433590 f i server1.obj
 0001:000325a0       ?overread@?$databuf@E@@QBE_NXZ 004335a0 f i server.obj
 0001:000325b0       ?subbuf@?$databuf@E@@QAE?AU1@H@Z 004335b0 f i server.obj
 0001:000325f0       ?subbuf@packetbuf@@QAE?AU?$databuf@E@@H@Z 004335f0 f i server.obj
 0001:00032670       ?finalize@packetbuf@@QAEPAU_ENetPacket@@XZ 00433670 f i server.obj
 0001:000326a0       ?put@packetbuf@@QAEXPBEH@Z 004336a0 f i server.obj
 0001:00032730       ??0packetbuf@@QAE@HH@Z     00433730 f i server.obj
 0001:00032780       ?compare@serverinfo@@SA_NPAU1@0@Z 00433780 f i serverbrowser.obj
 0001:00032830       ??_Gserverinfo@@QAEPAXI@Z  00433830 f i serverbrowser.obj
 0001:000328c0       ??0editline@@QAE@PBD@Z     004338c0 f i 3dgui.obj
 0001:00032920       ?grow@editline@@QAA_NHPBDZZ 00433920 f i 3dgui.obj
 0001:000329b0       ?append@editline@@QAEXPBD@Z 004339b0 f i 3dgui.obj
 0001:00032a10       ?read@editline@@QAE_NPAUstream@@H@Z 00433a10 f i 3dgui.obj
 0001:00032b70       ?del@editline@@QAEXHH@Z    00433b70 f i 3dgui.obj
 0001:00032bd0       ?insert@editline@@QAEXPADHH@Z 00433bd0 f i 3dgui.obj
 0001:00032c50       ?combinelines@editline@@QAEXAAU?$vector@Ueditline@@@@@Z 00433c50 f i 3dgui.obj
 0001:00032e10       ?clear@editor@@QAEXPBD@Z   00433e10 f i 3dgui.obj
 0001:00032f00       ?setfile@editor@@QAEXPBD@Z 00433f00 f i 3dgui.obj
 0001:00032f60       ?load@editor@@QAEXXZ       00433f60 f i 3dgui.obj
 0001:00033080       ?region@editor@@QAE_NAAH000@Z 00434080 f i 3dgui.obj
 0001:00033180       ?currentline@editor@@QAEAAUeditline@@XZ 00434180 f i 3dgui.obj
 0001:000331e0       ?copyselectionto@editor@@QAEXPAU1@@Z 004341e0 f i 3dgui.obj
 0001:000333f0       ?selectiontostring@editor@@QAEPADXZ 004343f0 f i 3dgui.obj
 0001:00033580       ?removelines@editor@@QAEXHH@Z 00434580 f i 3dgui.obj
 0001:00033620       ?del@editor@@QAE_NXZ       00434620 f i 3dgui.obj
 0001:00033800       ?insert@editor@@QAEXD@Z    00434800 f i 3dgui.obj
 0001:000338f0       ?insert@editor@@QAEXPBD@Z  004348f0 f i 3dgui.obj
 0001:00033aa0       ?insertallfrom@editor@@QAEXPAU1@@Z 00434aa0 f i 3dgui.obj
 0001:00033c20       ?key@editor@@QAEXH@Z       00434c20 f i 3dgui.obj
 0001:00033f80       ?input@editor@@QAEXPBDH@Z  00434f80 f i 3dgui.obj
 0001:00034130       ?draw@editor@@QAEXHHH_N@Z  00435130 f i 3dgui.obj
 0001:00034d40       ?allowautotab@gui@@UAE_N_N@Z 00435d40 f i 3dgui.obj
 0001:00034d60       ?autotab@gui@@QAEXXZ       00435d60 f i 3dgui.obj
 0001:00034dd0       ?shouldtab@gui@@UAE_NXZ    00435dd0 f i 3dgui.obj
 0001:00034e70       ?tab@gui@@UAEXPBDH@Z       00435e70 f i 3dgui.obj
 0001:00035110       ?pushlist@gui@@UAEXXZ      00436110 f i 3dgui.obj
 0001:00035230       ?poplist@gui@@UAEXXZ       00436230 f i 3dgui.obj
 0001:00035330       ?text@gui@@UAEHPBDH0@Z     00436330 f i 3dgui.obj
 0001:00035360       ?button@gui@@UAEHPBDH0@Z   00436360 f i 3dgui.obj
 0001:00035390       ?title@gui@@UAEHPBDH0@Z    00436390 f i 3dgui.obj
 0001:000353c0       ?separator@gui@@UAEXXZ     004363c0 f i 3dgui.obj
 0001:000353f0       ?progress@gui@@UAEXM@Z     004363f0 f i 3dgui.obj
 0001:00035430       ?strut@gui@@UAEXM@Z        00436430 f i 3dgui.obj
 0001:00035490       ?space@gui@@UAEXM@Z        00436490 f i 3dgui.obj
 0001:000354f0       ?spring@gui@@UAEXH@Z       004364f0 f i 3dgui.obj
 0001:000355b0       ?column@gui@@UAEXH@Z       004365b0 f i 3dgui.obj
 0001:000355e0       ?layout@gui@@QAEHHH@Z      004365e0 f i 3dgui.obj
 0001:000356b0       ?mergehits@gui@@UAE_N_N@Z  004366b0 f i 3dgui.obj
 0001:000356d0       ?ishit@gui@@QAE_NHHHH@Z    004366d0 f i 3dgui.obj
 0001:000357c0       ?image@gui@@UAEHPAUTexture@@M_N@Z 004367c0 f i 3dgui.obj
 0001:00035880       ?texture@gui@@UAEHAAUVSlot@@M_N@Z 00436880 f i 3dgui.obj
 0001:00035940       ?playerpreview@gui@@UAEHHHHM_N@Z 00436940 f i 3dgui.obj
 0001:00035ef0       ?modelpreview@gui@@UAEHPBDHM_N@Z 00436ef0 f i 3dgui.obj
 0001:00036450       ?prefabpreview@gui@@UAEHPBDABUvec@@M_N@Z 00437450 f i 3dgui.obj
 0001:000368c0       ?slider@gui@@UAEXAAHHHHPBD@Z 004378c0 f i 3dgui.obj
 0001:00036b90       ?field@gui@@UAEPADPBDHHH0H@Z 00437b90 f i 3dgui.obj
 0001:00036bc0       ?keyfield@gui@@UAEPADPBDHHH0H@Z 00437bc0 f i 3dgui.obj
 0001:00036bf0       ?field_@gui@@QAEPADPBDHHH0HH@Z 00437bf0 f i 3dgui.obj
 0001:00037250       ?rect_@gui@@QAEXMMMM_N@Z   00438250 f i 3dgui.obj
 0001:000373b0       ?rect_@gui@@QAEXMMMMH@Z    004383b0 f i 3dgui.obj
 0001:000376d0       ?text_@gui@@QAEXPBDHHH_N1@Z 004386d0 f i 3dgui.obj
 0001:00037750       ?background@gui@@UAEXHHH@Z 00438750 f i 3dgui.obj
 0001:000378d0       ?icon_@gui@@QAEXPAUTexture@@_NHHH1@Z 004388d0 f i 3dgui.obj
 0001:00037af0       ?previewslot@gui@@QAEXAAUVSlot@@_NHHH1@Z 00438af0 f i 3dgui.obj
 0001:00038a70       ?line_@gui@@QAEXHM@Z       00439a70 f i 3dgui.obj
 0001:00038c90       ?textbox@gui@@UAEXPBDHHH@Z 00439c90 f i 3dgui.obj
 0001:00038d70       ?button_@gui@@QAEHPBDH0_N1@Z 00439d70 f i 3dgui.obj
 0001:00038f70       ?drawskin@gui@@SAXHHHHHHHABUvec@@M@Z 00439f70 f i 3dgui.obj
 0001:00039540       ?start@gui@@UAEXHMPAH_N@Z  0043a540 f i 3dgui.obj
 0001:00039a80       ?adjustcolumns@gui@@QAEXXZ 0043aa80 f i 3dgui.obj
 0001:00039c00       ?end@gui@@UAEXXZ           0043ac00 f i 3dgui.obj
 0001:0003a140       ?add@?$vector@Ulist@gui@@@@QAEAAUlist@gui@@XZ 0043b140 f i 3dgui.obj
 0001:0003a210       ?insert@?$vector@PAUeditor@@@@QAEAAPAUeditor@@HABQAU2@@Z 0043b210 f i 3dgui.obj
 0001:0003a260       ?add@?$vector@PAUeditor@@@@QAEAAPAUeditor@@ABQAU2@@Z 0043b260 f i 3dgui.obj
 0001:0003a350       ?insert@?$vector@Ueditline@@@@QAEAAUeditline@@HABU2@@Z 0043b350 f i 3dgui.obj
 0001:0003a400       ?add@?$vector@Ueditline@@@@QAEAAUeditline@@XZ 0043b400 f i 3dgui.obj
 0001:0003a450       ??_Ggui@@UAEPAXI@Z         0043b450 f i 3dgui.obj
 0001:0003a450       ??_Egui@@UAEPAXI@Z         0043b450 f i * CIL library *:* CIL module *
 0001:0003a4a0       ??1gui@@UAE@XZ             0043b4a0 f i 3dgui.obj
 0001:0003a4e0       ?growbuf@?$vector@Ueditline@@@@QAEXH@Z 0043b4e0 f i 3dgui.obj
 0001:0003a570       ??4gui@@QAEAAU0@ABU0@@Z    0043b570 f i 3dgui.obj
 0001:0003a5e0       ??0gui@@QAE@ABU0@@Z        0043b5e0 f i 3dgui.obj
 0001:0003a690       ??_Gg3d_gui@@UAEPAXI@Z     0043b690 f i 3dgui.obj
 0001:0003a690       ??_Eg3d_gui@@UAEPAXI@Z     0043b690 f i * CIL library *:* CIL module *
 0001:0003a6c0       ?update@partrenderer@@UAEXXZ 0043b6c0 f i renderparticles.obj
 0001:0003a6c0       ?cleanup@meshgroup@animmodel@@UAEXXZ 0043b6c0 f i rendermodel.obj
 0001:0003a6c0       ?cleanup@model@@UAEXXZ     0043b6c0 f i rendermodel.obj
 0001:0003a6c0       ?cleanup@partrenderer@@UAEXXZ 0043b6c0 f i renderparticles.obj
 0001:0003a6c0       ?startrender@model@@UAEXXZ 0043b6c0 f i rendermodel.obj
 0001:0003a6c0       ?update@servmode@server@@UAEXXZ 0043b6c0 f i server1.obj
 0001:0003a6c0       ?pushlist@g3d_gui@@UAEXXZ  0043b6c0 f i 3dgui.obj
 0001:0003a6c0       ?preload@clientmode@game@@UAEXXZ 0043b6c0 f i client1.obj
 0001:0003a6c0       ?rendergame@clientmode@game@@UAEXXZ 0043b6c0 f i client1.obj
 0001:0003a6c0       ?startrender@textrenderer@@UAEXXZ 0043b6c0 f i renderparticles.obj
 0001:0003a6c0       ?cleanup@servmode@server@@UAEXXZ 0043b6c0 f i server1.obj
 0001:0003a6c0       ?intermission@servmode@server@@UAEXXZ 0043b6c0 f i server1.obj
 0001:0003a6c0       ?doclear@rendertarget@@UAEXXZ 0043b6c0 f i glare.obj
 0001:0003a6c0       @_guard_check_icall_nop@4  0043b6c0 f i LIBCMT:guard_support.obj
 0001:0003a6c0       ?setup@servmode@server@@UAEXXZ 0043b6c0 f i server1.obj
 0001:0003a6c0       ?startload@animmodel@@UAEXXZ 0043b6c0 f i rendermodel.obj
 0001:0003a6c0       ?preloadmeshes@model@@UAEXXZ 0043b6c0 f i rendermodel.obj
 0001:0003a6c0       ?endrender@model@@UAEXXZ   0043b6c0 f i rendermodel.obj
 0001:0003a6c0       ?endrender@textrenderer@@UAEXXZ 0043b6c0 f i renderparticles.obj
 0001:0003a6c0       ?setup@clientmode@game@@UAEXXZ 0043b6c0 f i client1.obj
 0001:0003a6c0       ?endload@animmodel@@UAEXXZ 0043b6c0 f i rendermodel.obj
 0001:0003a6c0       ?gameover@clientmode@game@@UAEXXZ 0043b6c0 f i client1.obj
 0001:0003a6c0       ?poplist@g3d_gui@@UAEXXZ   0043b6c0 f i 3dgui.obj
 0001:0003a6c0       ?newmap@servmode@server@@UAEXXZ 0043b6c0 f i server1.obj
 0001:0003a6c0       ?flushpart@animmodel@@UAEXXZ 0043b6c0 f i rendermodel.obj
 0001:0003a6c0       __initialize_invalid_parameter_handler 0043b6c0 f i LIBCMT:invalid_parameter_handler.obj
 0001:0003a6c0       __initialize_denormal_control 0043b6c0 f i LIBCMT:denormal_control.obj
 0001:0003a6d0       ?screenrect@rendertarget@@UBE_NXZ 0043b6d0 f i glare.obj
 0001:0003a6d0       ?skeletal@model@@UBE_NXZ   0043b6d0 f i rendermodel.obj
 0001:0003a6d0       ?hidefrags@servmode@server@@UAE_NXZ 0043b6d0 f i server1.obj
 0001:0003a6d0       ?flipdebug@shadowmaptexture@@UBE_NXZ 0043b6d0 f i shadowmap.obj
 0001:0003a6d0       ?swaptexs@rendertarget@@UBE_NXZ 0043b6d0 f i glare.obj
 0001:0003a6d0       ?loadconfig@animmodel@@UAE_NXZ 0043b6d0 f i rendermodel.obj
 0001:0003a6d0       ?loadconfig@md2@@UAE_NXZ   0043b6d0 f i rendermodel.obj
 0001:0003a6d0       ?loaddefaultparts@animmodel@@UAE_NXZ 0043b6d0 f i rendermodel.obj
 0001:0003a6d0       ?envmapped@model@@UAE_NXZ  0043b6d0 f i rendermodel.obj
 0001:0003a6d0       ?hidefrags@clientmode@game@@UAE_NXZ 0043b6d0 f i client1.obj
 0001:0003a6d0       ?shouldtab@g3d_gui@@UAE_NXZ 0043b6d0 f i 3dgui.obj
 0001:0003a6d0       ?flipy@animmodel@@UBE_NXZ  0043b6d0 f i rendermodel.obj
 0001:0003a6d0       ?keepable@gameevent@server@@UBE_NXZ 0043b6d0 f i server1.obj
 0001:0003a6e0       ?playerpreview@g3d_gui@@UAEHHHHM_N@Z 0043b6e0 f i 3dgui.obj
 0001:0003a6f0       ?modelpreview@g3d_gui@@UAEHPBDHM_N@Z 0043b6f0 f i 3dgui.obj
 0001:0003a6f0       ?prefabpreview@g3d_gui@@UAEHPBDABUvec@@M_N@Z 0043b6f0 f i 3dgui.obj
 0001:0003a700       ??1g3d_gui@@UAE@XZ         0043b700 f i 3dgui.obj
 0001:0003a710       ?ortho@matrix4@@QAEXMMMMMM@Z 0043b710 f i 3dgui.obj
 0001:0003a850       ?newstring@@YAPADPBDI@Z    0043b850 f i 3dgui.obj
 0001:0003a890       ?traverse@BIH@@QAE_NABUmesh@1@ABUvec@@11MAAMHPAUnode@1@MM@Z 0043b890 f i bih.obj
 0001:0003ac90       ?traverse@BIH@@QAE_NABUvec@@0MAAMH@Z 0043bc90 f i bih.obj
 0001:0003aeb0       ?ceil@ivec@@SA?AU1@ABUvec@@@Z 0043beb0 f i bih.obj
 0001:0003af30       ?floor@ivec@@SA?AU1@ABUvec@@@Z 0043bf30 f i bih.obj
 0001:0003afb0       ?transform@matrix4x3@@QBE?AUvec@@ABU2@@Z 0043bfb0 f i bih.obj
 0001:0003b0b0       ??1blobrenderer@@QAE@XZ    0043c0b0 f i blob.obj
 0001:0003b140       ?cleanup@blobrenderer@@QAEXXZ 0043c140 f i blob.obj
 0001:0003b1d0       ?init@blobrenderer@@QAEXH@Z 0043c1d0 f i blob.obj
 0001:0003b3f0       ?freeblob@blobrenderer@@QAE_NXZ 0043c3f0 f i blob.obj
 0001:0003b470       ?newblob@blobrenderer@@QAEAAUblobinfo@@ABUvec@@M@Z 0043c470 f i blob.obj
 0001:0003b4f0       ?addtris@blobrenderer@@QAEXPBUvec@@H@Z 0043c4f0 f i blob.obj
 0001:0003bb80       ?gentris@blobrenderer@@QAEXAAUcube@@HABUivec@@HPAUmaterialsurface@@H@Z 0043cb80 f i blob.obj
 0001:0003c6b0       ?findescaped@blobrenderer@@QAEXPAUcube@@ABUivec@@HH@Z 0043d6b0 f i blob.obj
 0001:0003c7a0       ?gentris@blobrenderer@@QAEXPAUcube@@ABUivec@@HH@Z 0043d7a0 f i blob.obj
 0001:0003cba0       ?setuprenderstate@blobrenderer@@SAXXZ 0043dba0 f i blob.obj
 0001:0003cc80       ?renderblob@blobrenderer@@QAEXABUvec@@MM@Z 0043dc80 f i blob.obj
 0001:0003d270       ?flushblobs@blobrenderer@@QAEXXZ 0043e270 f i blob.obj
 0001:0003d630       ??$clip@$0A@@blobrenderer@@SAHPBUvec@@HMMPAU1@@Z 0043e630 f i blob.obj
 0001:0003d9a0       ??$clip@$00@blobrenderer@@SAHPBUvec@@HMMPAU1@@Z 0043e9a0 f i blob.obj
 0001:0003dd00       ??$clip@$01@blobrenderer@@SAHPBUvec@@HMMPAU1@@Z 0043ed00 f i blob.obj
 0001:0003e060       ??$split@$01@blobrenderer@@SAHPBUvec@@HMMPAU1@@Z 0043f060 f i blob.obj
 0001:0003e3c0       ??1decalrenderer@@QAE@XZ   0043f3c0 f i decal.obj
 0001:0003e420       ?freedecal@decalrenderer@@QAEHXZ 0043f420 f i decal.obj
 0001:0003e490       ?fadeindecals@decalrenderer@@QAEXXZ 0043f490 f i decal.obj
 0001:0003e770       ?fadeoutdecals@decalrenderer@@QAEXXZ 0043f770 f i decal.obj
 0001:0003ea50       ?render@decalrenderer@@QAEXXZ 0043fa50 f i decal.obj
 0001:0003ecd0       ?adddecal@decalrenderer@@QAEXABUvec@@0MABUbvec@@H@Z 0043fcd0 f i decal.obj
 0001:0003f0c0       ?clip@decalrenderer@@SAHPBUvec@@HABU2@MMPAU2@@Z 004400c0 f i decal.obj
 0001:0003f4a0       ?gentris@decalrenderer@@QAEXAAUcube@@HABUivec@@HPAUmaterialsurface@@H@Z 004404a0 f i decal.obj
 0001:00040af0       ?findmaterials@decalrenderer@@QAEXPAUvtxarray@@@Z 00441af0 f i decal.obj
 0001:00040c80       ?findescaped@decalrenderer@@QAEXPAUcube@@ABUivec@@HH@Z 00441c80 f i decal.obj
 0001:00040d70       ?gentris@decalrenderer@@QAEXPAUcube@@ABUivec@@HH@Z 00441d70 f i decal.obj
 0001:00040fb0       ??1rendertarget@@UAE@XZ    00441fb0 f i glare.obj
 0001:00040fc0       ?attachment@rendertarget@@UBEIXZ 00441fc0 f i glare.obj
 0001:00040fd0       ?colorformats@rendertarget@@UBEPBIXZ 00441fd0 f i glare.obj
 0001:00040fe0       ?depthformats@rendertarget@@UBEPBIXZ 00441fe0 f i glare.obj
 0001:00040ff0       ?filter@rendertarget@@UBE_NXZ 00441ff0 f i glare.obj
 0001:00040ff0       ?hidefrags@captureclientmode@game@@UAE_NXZ 00441ff0 f i client1.obj
 0001:00040ff0       ?hidefrags@captureservmode@server@@UAE_NXZ 00441ff0 f i server1.obj
 0001:00040ff0       __should_initialize_environment 00441ff0 f i LIBCMT:env_mode.obj
 0001:00040ff0       ?hidefrags@collectservmode@server@@UAE_NXZ 00441ff0 f i server1.obj
 0001:00040ff0       ?skeletal@skelmodel@@UBE_NXZ 00441ff0 f i rendermodel.obj
 0001:00040ff0       ?keepable@explodeevent@server@@UBE_NXZ 00441ff0 f i server1.obj
 0001:00040ff0       ___acrt_uninitialize_command_line 00441ff0 f i libucrt:argv_data.obj
 0001:00040ff0       ?dorender@rendertarget@@UAE_NXZ 00441ff0 f i glare.obj
 0001:00040ff0       ?flush@stream@@UAE_NXZ     00441ff0 f i stream.obj
 0001:00040ff0       ?flipy@obj@@UBE_NXZ        00441ff0 f i rendermodel.obj
 0001:00040ff0       ?depthtest@rendertarget@@UBE_NXZ 00441ff0 f i glare.obj
 0001:00040ff0       ?swaptexs@shadowmaptexture@@UBE_NXZ 00441ff0 f i shadowmap.obj
 0001:00040ff0       ?flipy@md3@@UBE_NXZ        00441ff0 f i rendermodel.obj
 0001:00040ff0       ?hidefrags@ctfservmode@server@@UAE_NXZ 00441ff0 f i server1.obj
 0001:00040ff0       ?flipdebug@rendertarget@@UBE_NXZ 00441ff0 f i glare.obj
 0001:00040ff0       ?hidefrags@collectclientmode@game@@UAE_NXZ 00441ff0 f i client1.obj
 0001:00040ff0       ?shouldrender@rendertarget@@UAE_NXZ 00441ff0 f i glare.obj
 0001:00040ff0       ?flipy@md2@@UBE_NXZ        00441ff0 f i rendermodel.obj
 0001:00040ff0       ?hidefrags@ctfclientmode@game@@UAE_NXZ 00441ff0 f i client1.obj
 0001:00040ff0       ?screenrect@depthfxtexture@@UBE_NXZ 00441ff0 f i renderparticles.obj
 0001:00041000       ?cleanupblur@rendertarget@@QAEXXZ 00442000 f i glare.obj
 0001:00041060       ?setupblur@rendertarget@@QAEXXZ 00442060 f i glare.obj
 0001:00041210       ?setup@rendertarget@@QAEXHH@Z 00442210 f i glare.obj
 0001:00041410       ?rendertiles@rendertarget@@QAEXXZ 00442410 f i glare.obj
 0001:00041900       ?doblur@rendertarget@@UAEXHM@Z 00442900 f i glare.obj
 0001:00041af0       ?scissorrender@rendertarget@@UAE_NAAH000@Z 00442af0 f i glare.obj
 0001:00041cc0       ?scissorblur@rendertarget@@UAE_NAAH000@Z 00442cc0 f i glare.obj
 0001:00041e80       ?render@rendertarget@@QAEXHHHM@Z 00442e80 f i glare.obj
 0001:00042170       ?leavegame@servmode@server@@UAEXPAUclientinfo@2@_N@Z 00443170 f i server1.obj
 0001:00042170       ?dodebug@rendertarget@@UAEXHH@Z 00443170 f i glare.obj
 0001:00042170       ?setglare@model@@UAEXMM@Z  00443170 f i rendermodel.obj
 0001:00042170       ?died@servmode@server@@UAEXPAUclientinfo@2@0@Z 00443170 f i server1.obj
 0001:00042180       ?debug@rendertarget@@QAEXXZ 00443180 f i glare.obj
 0001:000422c0       ??_Grendertarget@@UAEPAXI@Z 004432c0 f i glare.obj
 0001:000422c0       ??_Erendertarget@@UAEPAXI@Z 004432c0 f i * CIL library *:* CIL module *
 0001:000422f0       ?dorender@glaretexture@@UAE_NXZ 004432f0 f i glare.obj
 0001:00042440       ??_Gshadowmaptexture@@UAEPAXI@Z 00443440 f i shadowmap.obj
 0001:00042440       ??_Eglaretexture@@UAEPAXI@Z 00443440 f i * CIL library *:* CIL module *
 0001:00042440       ??_Gdepthfxtexture@@UAEPAXI@Z 00443440 f i renderparticles.obj
 0001:00042440       ??_Eshadowmaptexture@@UAEPAXI@Z 00443440 f i * CIL library *:* CIL module *
 0001:00042440       ??_Gglaretexture@@UAEPAXI@Z 00443440 f i glare.obj
 0001:00042440       ??_Edepthfxtexture@@UAEPAXI@Z 00443440 f i * CIL library *:* CIL module *
 0001:000424a0       ?setf@LocalShaderParam@@QAEXMMMM@Z 004434a0 f i glare.obj
 0001:00042680       ??0grasswedge@@QAE@H@Z     00443680 f i grass.obj
 0001:00042b50       ?add@?$vector@Ugrassvert@@@@QAEAAUgrassvert@@XZ 00443b50 f i grass.obj
 0001:00042c40       ??0QuadNode@@QAE@HHH@Z     00443c40 f i material.obj
 0001:00042c80       ??1QuadNode@@QAE@XZ        00443c80 f i material.obj
 0001:00042c80       ?clear@QuadNode@@QAEXXZ    00443c80 f i material.obj
 0001:00042cc0       ?insert@QuadNode@@QAEXHHH@Z 00443cc0 f i material.obj
 0001:00042e10       ?genmatsurfs@QuadNode@@QAEXGEEHAAPAUmaterialsurface@@@Z 00443e10 f i material.obj
 0001:00042f90       ??_GQuadNode@@QAEPAXI@Z    00443f90 f i material.obj
 0001:00042fd0       ?set@GlobalShaderParam@@QAEXABUvec@@M@Z 00443fd0 f i material.obj
 0001:00043030       ?compressfind@unionfind@@QAEHH@Z 00444030 f i material.obj
 0001:00043060       ?unite@unionfind@@QAEXHH@Z 00444060 f i material.obj
 0001:000431b0       ??1?$hashbase@U?$hashset@H@@HHH@@QAE@XZ 004441b0 f i rendermodel.obj
 0001:000431b0       ??1?$hashbase@U?$hashset@PBD@@PBDPBDPBD@@QAE@XZ 004441b0 f i rendergl.obj
 0001:00043220       ?insert@?$hashbase@U?$hashset@PBD@@PBDPBDPBD@@QAEPAUchain@1@I@Z 00444220 f i rendergl.obj
 0001:00043220       ?insert@?$hashbase@U?$hashset@H@@HHH@@QAEPAUchain@1@I@Z 00444220 f i rendermodel.obj
 0001:00043370       ?transform@matrix4x3@@QBE?AUvec@@ABUvec2@@@Z 00444370 f i rendergl.obj
 0001:00043430       ?rotate_around_z@matrix4x3@@QAEXM@Z 00444430 f i rendergl.obj
 0001:00043580       ?identity@matrix4x3@@QAEXXZ 00444580 f i rendergl.obj
 0001:00043600       ?clip@matrix4@@QAEXABUplane@@ABU1@@Z 00444600 f i rendergl.obj
 0001:00043790       ?transposedtransform@matrix4@@QBEXABUplane@@AAU2@@Z 00444790 f i rendergl.obj
 0001:000438b0       ?perspective@matrix4@@QAEXMMMM@Z 004448b0 f i rendergl.obj
 0001:00043a10       ??$mult@Udvec4@@@matrix4@@QAEXABU0@0@Z 00444a10 f i rendergl.obj
 0001:00044090       ___local_stdio_scanf_options 00445090 f i rendergl.obj
 0001:000440a0       __vsscanf_l                004450a0 f i rendergl.obj
 0001:000440d0       _sscanf                    004450d0 f i rendergl.obj
 0001:000440f0       ??0ragdollskel@@QAE@XZ     004450f0 f i rendermodel.obj
 0001:000441e0       ?setupjoints@ragdollskel@@QAEXXZ 004451e0 f i rendermodel.obj
 0001:000446f0       ?setuprotfrictions@ragdollskel@@QAEXXZ 004456f0 f i rendermodel.obj
 0001:00044860       ??0ragdolldata@@QAE@PAUragdollskel@@M@Z 00445860 f i rendermodel.obj
 0001:00044a20       ?calctris@ragdolldata@@QAEXXZ 00445a20 f i rendermodel.obj
 0001:00044c70       ?calcboundsphere@ragdolldata@@QAEXXZ 00445c70 f i rendermodel.obj
 0001:00044da0       ?applyrotlimit@ragdolldata@@QAEXAAUtri@ragdollskel@@0MABUvec@@@Z 00445da0 f i rendermodel.obj
 0001:00045930       ??_Gragdolldata@@QAEPAXI@Z 00446930 f i rendermodel.obj
 0001:000459b0       ?setframes@animpos@animmodel@@QAEXABUaniminfo@@@Z 004469b0 f i rendermodel.obj
 0001:00045a90       ??9animstate@animmodel@@QBE_NABU01@@Z 00446a90 f i rendermodel.obj
 0001:00045b20       ??0shaderparams@animmodel@@QAE@XZ 00446b20 f i rendermodel.obj
 0001:00045b80       ?setshaderparams@skin@animmodel@@QAEXPAUmesh@2@PBUanimstate@2@@Z 00446b80 f i rendermodel.obj
 0001:00046ae0       ?loadshader@skin@animmodel@@QAEPAUShader@@XZ 00447ae0 f i rendermodel.obj
 0001:00046c00       ?bind@skin@animmodel@@QAEXPAUmesh@2@PBUanimstate@2@@Z 00447c00 f i rendermodel.obj
 0001:00046f10       ??1mesh@animmodel@@UAE@XZ  00447f10 f i rendermodel.obj
 0001:00046f60       ?changeteam@collectservmode@server@@UAEXPAUclientinfo@2@PBD1@Z 00447f60 f i server1.obj
 0001:00046f60       ?initclient@servmode@server@@UAEXPAUclientinfo@2@AAUpacketbuf@@_N@Z 00447f60 f i server1.obj
 0001:00046f60       ?drawhud@clientmode@game@@UAEXPAUfpsent@@HH@Z 00447f60 f i client1.obj
 0001:00046f60       ?setenvmap@model@@UAEXMMPAUTexture@@@Z 00447f60 f i rendermodel.obj
 0001:00046f60       ?calcbb@mesh@animmodel@@UAEXAAUvec@@0ABUmatrix4x3@@@Z 00447f60 f i rendermodel.obj
 0001:00046f60       ?changeteam@servmode@server@@UAEXPAUclientinfo@2@PBD1@Z 00447f60 f i server1.obj
 0001:00046f60       ?aifind@clientmode@game@@UAEXPAUfpsent@@AAUaistate@ai@@AAU?$vector@Uinterest@ai@@@@@Z 00447f60 f i client1.obj
 0001:00046f60       ?setglow@model@@UAEXMMM@Z  00447f60 f i rendermodel.obj
 0001:00046f70       ?genBIH@mesh@animmodel@@UAEXAAU1BIH@@@Z 00447f70 f i rendermodel.obj
 0001:00046f70       ?senditems@clientmode@game@@UAEXAAUpacketbuf@@@Z 00447f70 f i client1.obj
 0001:00046f70       ?getteamscores@clientmode@game@@UAEXAAU?$vector@Uteamscore@@@@@Z 00447f70 f i client1.obj
 0001:00046f70       ?preload@meshgroup@animmodel@@UAEXPAUpart@2@@Z 00447f70 f i rendermodel.obj
 0001:00046f70       ?setshader@model@@UAEXPAUShader@@@Z 00447f70 f i rendermodel.obj
 0001:00046f70       ?process@gameevent@server@@UAEXPAUclientinfo@2@@Z 00447f70 f i server1.obj
 0001:00046f70       ?preloadshaders@model@@UAEX_N@Z 00447f70 f i rendermodel.obj
 0001:00046f70       ?setspec@model@@UAEXM@Z    00447f70 f i rendermodel.obj
 0001:00046f70       ?setalphablend@model@@UAEX_N@Z 00447f70 f i rendermodel.obj
 0001:00046f70       ?setcullface@model@@UAEX_N@Z 00447f70 f i rendermodel.obj
 0001:00046f70       ?setalphatest@model@@UAEXM@Z 00447f70 f i rendermodel.obj
 0001:00046f70       ?removeplayer@clientmode@game@@UAEXPAUfpsent@@@Z 00447f70 f i client1.obj
 0001:00046f70       ?respawned@captureclientmode@game@@UAEXPAUfpsent@@@Z 00447f70 f i client1.obj
 0001:00046f70       ?checkitems@clientmode@game@@UAEXPAUfpsent@@@Z 00447f70 f i client1.obj
 0001:00046f70       ?resettracked@partrenderer@@UAEXPAUphysent@@@Z 00447f70 f i renderparticles.obj
 0001:00046f70       ?setambient@model@@UAEXM@Z 00447f70 f i rendermodel.obj
 0001:00046f70       ?setfullbright@model@@UAEXM@Z 00447f70 f i rendermodel.obj
 0001:00046f70       ?init@partrenderer@@UAEXH@Z 00447f70 f i renderparticles.obj
 0001:00046f70       ?spawned@servmode@server@@UAEXPAUclientinfo@2@@Z 00447f70 f i server1.obj
 0001:00046f70       ?entergame@servmode@server@@UAEXPAUclientinfo@2@@Z 00447f70 f i server1.obj
 0001:00046f70       ?respawned@clientmode@game@@UAEXPAUfpsent@@@Z 00447f70 f i client1.obj
 0001:00046f70       ?getteamscores@servmode@server@@UAEXAAU?$vector@Uteamscore@@@@@Z 00447f70 f i server1.obj
 0001:00046f70       ?killpart@listrenderer@@UAEXPAUlistparticle@@@Z 00447f70 f i renderparticles.obj
 0001:00046f80       ?setshader@mesh@animmodel@@UAEXPAUShader@@@Z 00447f80 f i rendermodel.obj
 0001:00046ff0       ?fixqtangent@mesh@animmodel@@SAXAAUquat@@M@Z 00447ff0 f i rendermodel.obj
 0001:00047140       ??1meshgroup@animmodel@@UAE@XZ 00448140 f i rendermodel.obj
 0001:000471f0       ?findtag@meshgroup@animmodel@@UAEHPBD@Z 004481f0 f i rendermodel.obj
 0001:00047200       ?concattagtransform@meshgroup@animmodel@@UAEXPAUpart@2@HABUmatrix4x3@@AAU4@@Z 00448200 f i rendermodel.obj
 0001:00047210       ?genBIH@meshgroup@animmodel@@QAEXAAU?$vector@Uskin@animmodel@@@@AAU?$vector@Umesh@BIH@@@@ABUmatrix4x3@@@Z 00448210 f i rendermodel.obj
 0001:000473a0       ?animkey@meshgroup@animmodel@@UAEPAXXZ 004483a0 f i rendermodel.obj
 0001:000473b0       ?totalframes@meshgroup@animmodel@@UBEHXZ 004483b0 f i rendermodel.obj
 0001:000473b0       ?type@md3@@UBEHXZ          004483b0 f i rendermodel.obj
 0001:000473c0       ?hasframes@meshgroup@animmodel@@QBE_NHH@Z 004483c0 f i rendermodel.obj
 0001:000473f0       ?render@meshgroup@animmodel@@UAEXPBUanimstate@2@MABUvec@@1PAUdynent@@PAUpart@2@@Z 004483f0 f i rendermodel.obj
 0001:000473f0       ?seedemitter@partrenderer@@UAEXAAUparticleemitter@@ABUvec@@1HMH@Z 004483f0 f i renderparticles.obj
 0001:00047400       ?bindpos@meshgroup@animmodel@@QAEXIIPAXH@Z 00448400 f i rendermodel.obj
 0001:000474b0       ?bindnormals@meshgroup@animmodel@@QAEXPAXH@Z 004484b0 f i rendermodel.obj
 0001:00047500       ?bindtangents@meshgroup@animmodel@@QAEXPAXH@Z 00448500 f i rendermodel.obj
 0001:00047550       ?bindbones@meshgroup@animmodel@@QAEXPAX0H@Z 00448550 f i rendermodel.obj
 0001:000475c0       ?read@stream@@UAEIPAXI@Z   004485c0 f i stream.obj
 0001:000475c0       ?loadmeshes@animmodel@@UAEPAUmeshgroup@1@PBDPAD@Z 004485c0 f i rendermodel.obj
 0001:000475c0       ?clipconsole@clientmode@game@@UAEHHH@Z 004485c0 f i client1.obj
 0001:000475c0       ?write@stream@@UAEIPBXI@Z  004485c0 f i stream.obj
 0001:000475c0       ?adddepthfx@partrenderer@@UAEHAAUvec@@0@Z 004485c0 f i renderparticles.obj
 0001:000475d0       ?sharemeshes@animmodel@@QAAPAUmeshgroup@1@PBDZZ 004485d0 f i rendermodel.obj
 0001:000477f0       ??0part@animmodel@@QAE@PAU1@H@Z 004487f0 f i rendermodel.obj
 0001:000478c0       ??1part@animmodel@@UAE@XZ  004488c0 f i rendermodel.obj
 0001:00047990       ?cleanup@part@animmodel@@UAEXXZ 00448990 f i rendermodel.obj
 0001:000479e0       ?calcbb@part@animmodel@@QAEXAAUvec@@0ABUmatrix4x3@@@Z 004489e0 f i rendermodel.obj
 0001:00047ca0       ?genBIH@part@animmodel@@QAEXAAU?$vector@Umesh@BIH@@@@ABUmatrix4x3@@@Z 00448ca0 f i rendermodel.obj
 0001:00047f30       ?link@part@animmodel@@QAE_NPAU12@PBDABUvec@@HHPAU3@@Z 00448f30 f i rendermodel.obj
 0001:000480c0       ?unlink@part@animmodel@@QAE_NPAU12@@Z 004490c0 f i rendermodel.obj
 0001:000481a0       ?initskins@part@animmodel@@QAEXPAUTexture@@0H@Z 004491a0 f i rendermodel.obj
 0001:000482d0       ?envmapped@part@animmodel@@QAE_NXZ 004492d0 f i rendermodel.obj
 0001:00048310       ?getdefaultanim@part@animmodel@@UAEXAAUaniminfo@@HIPAUdynent@@@Z 00449310 f i rendermodel.obj
 0001:00048330       ?calcanim@part@animmodel@@QAE_NHHHHPAUdynent@@HAAUaniminfo@@AAH@Z 00449330 f i rendermodel.obj
 0001:00048770       ?render@part@animmodel@@QAEXHHHMABUvec@@0PAUdynent@@@Z 00449770 f i rendermodel.obj
 0001:000487b0       ?render@part@animmodel@@QAEXHHHMABUvec@@0PAUdynent@@PAUanimstate@2@@Z 004497b0 f i rendermodel.obj
 0001:00049380       ?setanim@part@animmodel@@QAEXHHHHMH@Z 0044a380 f i rendermodel.obj
 0001:00049530       ?loaded@part@animmodel@@UAEXXZ 0044a530 f i rendermodel.obj
 0001:00049620       ?loadanim@skelmeshgroup@skelmodel@@UAEPAUskelanimspec@2@PBD@Z 0044a620 f i rendermodel.obj
 0001:00049620       ?getteamscore@clientmode@game@@UAEHPBD@Z 0044a620 f i client1.obj
 0001:00049620       ?respawnwait@clientmode@game@@UAEHPAUfpsent@@@Z 0044a620 f i client1.obj
 0001:00049620       ?getteamscore@servmode@server@@UAEHPBD@Z 0044a620 f i server1.obj
 0001:00049620       ?linktype@animmodel@@UBEHPAU1@@Z 0044a620 f i rendermodel.obj
 0001:00049630       ?render@animmodel@@QAEXHHHMABUvec@@0PAUdynent@@PAUmodelattach@@@Z 0044a630 f i rendermodel.obj
 0001:000498c0       ?render@animmodel@@UAEXHHHABUvec@@MMPAUdynent@@PAUmodelattach@@00M@Z 0044a8c0 f i rendermodel.obj
 0001:00049e20       ??0animmodel@@QAE@PBD@Z    0044ae20 f i rendermodel.obj
 0001:00049fb0       ??1animmodel@@UAE@XZ       0044afb0 f i rendermodel.obj
 0001:0004a060       ?cleanup@animmodel@@UAEXXZ 0044b060 f i rendermodel.obj
 0001:0004a0e0       ?addpart@animmodel@@QAEAAUpart@1@XZ 0044b0e0 f i rendermodel.obj
 0001:0004a160       ?initmatrix@animmodel@@QAEXAAUmatrix4x3@@@Z 0044b160 f i rendermodel.obj
 0001:0004a300       ?genBIH@animmodel@@QAEXAAU?$vector@Umesh@BIH@@@@@Z 0044b300 f i rendermodel.obj
 0001:0004a340       ?preloadBIH@animmodel@@UAEXXZ 0044b340 f i rendermodel.obj
 0001:0004a3c0       ?setBIH@animmodel@@UAEPAUBIH@@XZ 0044b3c0 f i rendermodel.obj
 0001:0004a470       ?envmapped@animmodel@@UAE_NXZ 0044b470 f i rendermodel.obj
 0001:0004a4d0       ?load@animmodel@@UAE_NXZ   0044b4d0 f i rendermodel.obj
 0001:0004a5d0       ?preloadshaders@animmodel@@UAEX_N@Z 0044b5d0 f i rendermodel.obj
 0001:0004a650       ?preloadmeshes@animmodel@@UAEXXZ 0044b650 f i rendermodel.obj
 0001:0004a690       ?setshader@animmodel@@UAEXPAUShader@@@Z 0044b690 f i rendermodel.obj
 0001:0004a700       ?setenvmap@animmodel@@UAEXMMPAUTexture@@@Z 0044b700 f i rendermodel.obj
 0001:0004a790       ?setspec@animmodel@@UAEXM@Z 0044b790 f i rendermodel.obj
 0001:0004a800       ?setambient@animmodel@@UAEXM@Z 0044b800 f i rendermodel.obj
 0001:0004a870       ?setglow@animmodel@@UAEXMMM@Z 0044b870 f i rendermodel.obj
 0001:0004a8f0       ?setglare@animmodel@@UAEXMM@Z 0044b8f0 f i rendermodel.obj
 0001:0004a960       ?setalphatest@animmodel@@UAEXM@Z 0044b960 f i rendermodel.obj
 0001:0004a9d0       ?setalphablend@animmodel@@UAEX_N@Z 0044b9d0 f i rendermodel.obj
 0001:0004aa50       ?setfullbright@animmodel@@UAEXM@Z 0044ba50 f i rendermodel.obj
 0001:0004aac0       ?setcullface@animmodel@@UAEX_N@Z 0044bac0 f i rendermodel.obj
 0001:0004ab40       ?calcbb@animmodel@@UAEXAAUvec@@0@Z 0044bb40 f i rendermodel.obj
 0001:0004ac50       ?loaded@animmodel@@UAEXXZ  0044bc50 f i rendermodel.obj
 0001:0004acb0       ?startrender@animmodel@@UAEXXZ 0044bcb0 f i rendermodel.obj
 0001:0004ad70       ?disablevbo@animmodel@@SAXXZ 0044bd70 f i rendermodel.obj
 0001:0004ae50       ?endrender@animmodel@@UAEXXZ 0044be50 f i rendermodel.obj
 0001:0004af00       ??_Emesh@animmodel@@UAEPAXI@Z 0044bf00 f i * CIL library *:* CIL module *
 0001:0004af00       ??_Gmesh@animmodel@@UAEPAXI@Z 0044bf00 f i rendermodel.obj
 0001:0004af60       ??_Gmeshgroup@animmodel@@UAEPAXI@Z 0044bf60 f i rendermodel.obj
 0001:0004af60       ??_Emeshgroup@animmodel@@UAEPAXI@Z 0044bf60 f i * CIL library *:* CIL module *
 0001:0004af80       ??_Epart@animmodel@@UAEPAXI@Z 0044bf80 f i * CIL library *:* CIL module *
 0001:0004af80       ??_Gpart@animmodel@@UAEPAXI@Z 0044bf80 f i rendermodel.obj
 0001:0004afa0       ??_Ganimmodel@@UAEPAXI@Z   0044bfa0 f i rendermodel.obj
 0001:0004afa0       ??_Eanimmodel@@UAEPAXI@Z   0044bfa0 f i * CIL library *:* CIL module *
 0001:0004afd0       ??0vertmesh@vertmodel@@QAE@XZ 0044bfd0 f i rendermodel.obj
 0001:0004b050       ?smoothnorms@vertmesh@vertmodel@@QAEXM_N@Z 0044c050 f i rendermodel.obj
 0001:0004b090       ?calcbb@vertmesh@vertmodel@@UAEXAAUvec@@0ABUmatrix4x3@@@Z 0044c090 f i rendermodel.obj
 0001:0004b210       ?genBIH@vertmesh@vertmodel@@UAEXAAUmesh@BIH@@@Z 0044c210 f i rendermodel.obj
 0001:0004b250       ?genvbo@vertmesh@vertmodel@@QAEHAAU?$vector@G@@H@Z 0044c250 f i rendermodel.obj
 0001:0004b3b0       ?interpverts@vertmesh@vertmodel@@QAEXABUanimstate@animmodel@@_NPIAXAAUskin@4@@Z 0044c3b0 f i rendermodel.obj
 0001:0004bc10       ??0tag@vertmodel@@QAE@XZ   0044cc10 f i rendermodel.obj
 0001:0004bc10       ??0videobuffer@recorder@@QAE@XZ 0044cc10 f i movie.obj
 0001:0004bc20       ??1tag@vertmodel@@QAE@XZ   0044cc20 f i rendermodel.obj
 0001:0004bc20       ??1boneinfo@skelmodel@@QAE@XZ 0044cc20 f i rendermodel.obj
 0001:0004bc20       ??1zipfile@@QAE@XZ         0044cc20 f i zip.obj
 0001:0004bc20       ??1videobuffer@recorder@@QAE@XZ 0044cc20 f i movie.obj
 0001:0004bc20       ??1soundsample@@QAE@XZ     0044cc20 f i sound.obj
 0001:0004bc60       ??0vertmeshgroup@vertmodel@@QAE@XZ 0044cc60 f i rendermodel.obj
 0001:0004bd40       ??1vertmeshgroup@vertmodel@@UAE@XZ 0044cd40 f i rendermodel.obj
 0001:0004be20       ?findtag@vertmeshgroup@vertmodel@@UAEHPBD@Z 0044ce20 f i rendermodel.obj
 0001:0004be70       ?animkey@skelmeshgroup@skelmodel@@UAEPAXXZ 0044ce70 f i rendermodel.obj
 0001:0004be70       ?totalframes@vertmeshgroup@vertmodel@@UBEHXZ 0044ce70 f i rendermodel.obj
 0001:0004be80       ?concattagtransform@vertmeshgroup@vertmodel@@UAEXPAUpart@animmodel@@HABUmatrix4x3@@AAU5@@Z 0044ce80 f i rendermodel.obj
 0001:0004c050       ?calctagmatrix@vertmeshgroup@vertmodel@@QAEXPAUpart@animmodel@@HABUanimstate@4@AAUmatrix4@@@Z 0044d050 f i rendermodel.obj
 0001:0004c530       ?genvbo@vertmeshgroup@vertmodel@@QAEX_NAAUvbocacheentry@2@@Z 0044d530 f i rendermodel.obj
 0001:0004c9b0       ?cleanup@vertmeshgroup@vertmodel@@UAEXXZ 0044d9b0 f i rendermodel.obj
 0001:0004ca00       ?preload@vertmeshgroup@vertmodel@@UAEXPAUpart@animmodel@@@Z 0044da00 f i rendermodel.obj
 0001:0004ca70       ?render@vertmeshgroup@vertmodel@@UAEXPBUanimstate@animmodel@@MABUvec@@1PAUdynent@@PAUpart@4@@Z 0044da70 f i rendermodel.obj
 0001:0004cfb0       ??_Gvertmesh@vertmodel@@UAEPAXI@Z 0044dfb0 f i rendermodel.obj
 0001:0004cfb0       ??_Evertmesh@vertmodel@@UAEPAXI@Z 0044dfb0 f i * CIL library *:* CIL module *
 0001:0004d080       ??_Gvertmeshgroup@vertmodel@@UAEPAXI@Z 0044e080 f i rendermodel.obj
 0001:0004d080       ??_Evertmeshgroup@vertmodel@@UAEPAXI@Z 0044e080 f i * CIL library *:* CIL module *
 0001:0004d0b0       ??_Evertmodel@@UAEPAXI@Z   0044e0b0 f i * CIL library *:* CIL module *
 0001:0004d0b0       ??_Gskelmodel@@UAEPAXI@Z   0044e0b0 f i rendermodel.obj
 0001:0004d0b0       ??_Eskelmodel@@UAEPAXI@Z   0044e0b0 f i * CIL library *:* CIL module *
 0001:0004d0b0       ??_Gvertmodel@@UAEPAXI@Z   0044e0b0 f i rendermodel.obj
 0001:0004d110       ??1skelmodel@@UAE@XZ       0044e110 f i rendermodel.obj
 0001:0004d110       ??1vertmodel@@UAE@XZ       0044e110 f i rendermodel.obj
 0001:0004d150       ?sortcmp@blendcombo@skelmodel@@SA_NABU12@0@Z 0044e150 f i rendermodel.obj
 0001:0004d190       ?serialize@blendcombo@skelmodel@@QAEXAAUvvertw@2@@Z 0044e190 f i rendermodel.obj
 0001:0004d300       ??8animcacheentry@skelmodel@@QBE_NABU01@@Z 0044e300 f i rendermodel.obj
 0001:0004d3f0       ?nextversion@skelcacheentry@skelmodel@@QAEXXZ 0044e3f0 f i rendermodel.obj
 0001:0004d4a0       ??0skelmesh@skelmodel@@QAE@XZ 0044e4a0 f i rendermodel.obj
 0001:0004d530       ??1skelmesh@skelmodel@@UAE@XZ 0044e530 f i rendermodel.obj
 0001:0004d5e0       ?calcbb@skelmesh@skelmodel@@UAEXAAUvec@@0ABUmatrix4x3@@@Z 0044e5e0 f i rendermodel.obj
 0001:0004d760       ?genBIH@skelmesh@skelmodel@@UAEXAAUmesh@BIH@@@Z 0044e760 f i rendermodel.obj
 0001:0004d7b0       ?genvbo@skelmesh@skelmodel@@QAEHAAU?$vector@G@@H@Z 0044e7b0 f i rendermodel.obj
 0001:0004d950       ?interpverts@skelmesh@skelmodel@@QAEXPIBUdualquat@@0_NPIAXAAUskin@animmodel@@@Z 0044e950 f i rendermodel.obj
 0001:0004e070       ?setshader@skelmesh@skelmodel@@UAEXPAUShader@@@Z 0044f070 f i rendermodel.obj
 0001:0004e160       ??0boneinfo@skelmodel@@QAE@XZ 0044f160 f i rendermodel.obj
 0001:0004e1d0       ??0skeleton@skelmodel@@QAE@XZ 0044f1d0 f i rendermodel.obj
 0001:0004e370       ??1skeleton@skelmodel@@QAE@XZ 0044f370 f i rendermodel.obj
 0001:0004e590       ?findskelanim@skeleton@skelmodel@@QAEPAUskelanimspec@2@PBDD@Z 0044f590 f i rendermodel.obj
 0001:0004e640       ?addskelanim@skeleton@skelmodel@@QAEAAUskelanimspec@2@PBD@Z 0044f640 f i rendermodel.obj
 0001:0004e750       ?findbone@skeleton@skelmodel@@QAEHPBD@Z 0044f750 f i rendermodel.obj
 0001:0004e7a0       ?findtag@skeleton@skelmodel@@QAEHPBD@Z 0044f7a0 f i rendermodel.obj
 0001:0004e7f0       ?addtag@skeleton@skelmodel@@QAE_NPBDHABUmatrix4x3@@@Z 0044f7f0 f i rendermodel.obj
 0001:0004e970       ?calcantipodes@skeleton@skelmodel@@QAEXXZ 0044f970 f i rendermodel.obj
 0001:0004ec40       ?remapbones@skeleton@skelmodel@@QAEXXZ 0044fc40 f i rendermodel.obj
 0001:0004f0a0       ?addpitchdep@skeleton@skelmodel@@QAEXHH@Z 004500a0 f i rendermodel.obj
 0001:0004f260       ?findpitchcorrect@skeleton@skelmodel@@QAEHH@Z 00450260 f i rendermodel.obj
 0001:0004f2a0       ?initpitchdeps@skeleton@skelmodel@@QAEXXZ 004502a0 f i rendermodel.obj
 0001:0004f850       ?expandbonemask@skeleton@skelmodel@@QAEXPAEHH@Z 00450850 f i rendermodel.obj
 0001:0004f8a0       ?linkchildren@skeleton@skelmodel@@QAEXXZ 004508a0 f i rendermodel.obj
 0001:0004f900       ?calcpitchcorrects@skeleton@skelmodel@@QAEXMABUvec@@0@Z 00450900 f i rendermodel.obj
 0001:0004ffb0       ?interpbones@skeleton@skelmodel@@QAEXPBUanimstate@animmodel@@MABUvec@@1HPBEAAUskelcacheentry@2@@Z 00450fb0 f i rendermodel.obj
 0001:000510c0       ?initragdoll@skeleton@skelmodel@@QAEXAAUragdolldata@@AAUskelcacheentry@2@PAUpart@animmodel@@@Z 004520c0 f i rendermodel.obj
 0001:00051f40       ?genragdollbones@skeleton@skelmodel@@QAEXAAUragdolldata@@AAUskelcacheentry@2@PAUpart@animmodel@@@Z 00452f40 f i rendermodel.obj
 0001:00052650       ?calctags@skeleton@skelmodel@@QAEXPAUpart@animmodel@@PAUskelcacheentry@2@@Z 00453650 f i rendermodel.obj
 0001:00053050       ?cleanup@skeleton@skelmodel@@QAEX_N@Z 00454050 f i rendermodel.obj
 0001:000531f0       ?checkskelcache@skeleton@skelmodel@@QAEAAUskelcacheentry@2@PAUpart@animmodel@@PBUanimstate@5@MABUvec@@2PAUragdolldata@@@Z 004541f0 f i rendermodel.obj
 0001:00053560       ??0skelmeshgroup@skelmodel@@QAE@XZ 00454560 f i rendermodel.obj
 0001:00053710       ??1skelmeshgroup@skelmodel@@UAE@XZ 00454710 f i rendermodel.obj
 0001:00053870       ?shareskeleton@skelmeshgroup@skelmodel@@QAEXPAD@Z 00454870 f i rendermodel.obj
 0001:00053b60       ?findtag@skelmeshgroup@skelmodel@@UAEHPBD@Z 00454b60 f i rendermodel.obj
 0001:00053b70       ?totalframes@skelmeshgroup@skelmodel@@UBEHXZ 00454b70 f i rendermodel.obj
 0001:00053b90       ?genvbo@skelmeshgroup@skelmodel@@QAEX_NAAUvbocacheentry@2@@Z 00454b90 f i rendermodel.obj
 0001:00054610       ?bindvbo@skelmeshgroup@skelmodel@@QAEXPBUanimstate@animmodel@@AAUvbocacheentry@2@PAUskelcacheentry@2@PAUblendcacheentry@2@@Z 00455610 f i rendermodel.obj
 0001:00054790       ?concattagtransform@skelmeshgroup@skelmodel@@UAEXPAUpart@animmodel@@HABUmatrix4x3@@AAU5@@Z 00455790 f i rendermodel.obj
 0001:000548c0       ?addblendcombo@skelmeshgroup@skelmodel@@QAEHABUblendcombo@2@@Z 004558c0 f i rendermodel.obj
 0001:00054a60       ?sortblendcombos@skelmeshgroup@skelmodel@@QAEXXZ 00455a60 f i rendermodel.obj
 0001:00054b30       ?blendbones@skelmeshgroup@skelmodel@@SAXAAUdualquat@@PBU3@ABUblendcombo@2@@Z 00455b30 f i rendermodel.obj
 0001:00054bd0       ?cleanup@skelmeshgroup@skelmodel@@UAEXXZ 00455bd0 f i rendermodel.obj
 0001:00054c70       ?preload@skelmeshgroup@skelmodel@@UAEXPAUpart@animmodel@@@Z 00455c70 f i rendermodel.obj
 0001:00054dd0       ?render@skelmeshgroup@skelmodel@@UAEXPBUanimstate@animmodel@@MABUvec@@1PAUdynent@@PAUpart@4@@Z 00455dd0 f i rendermodel.obj
 0001:00055740       ?initanimparts@skelpart@skelmodel@@QAEXXZ 00456740 f i rendermodel.obj
 0001:000557a0       ?addanimpart@skelpart@skelmodel@@QAE_NPAG@Z 004567a0 f i rendermodel.obj
 0001:00055910       ?loaded@skelpart@skelmodel@@UAEXXZ 00456910 f i rendermodel.obj
 0001:000559b0       ?linktype@skelmodel@@UBEHPAUanimmodel@@@Z 004569b0 f i rendermodel.obj
 0001:00055a00       ?addpart@skelmodel@@QAEAAUskelpart@1@XZ 00456a00 f i rendermodel.obj
 0001:00055aa0       ??_Eskelmesh@skelmodel@@UAEPAXI@Z 00456aa0 f i * CIL library *:* CIL module *
 0001:00055aa0       ??_Gskelmesh@skelmodel@@UAEPAXI@Z 00456aa0 f i rendermodel.obj
 0001:00055ac0       ??1?$hashtable@IH@@QAE@XZ  00456ac0 f i rendermodel.obj
 0001:00055b00       ??_Eskelmeshgroup@skelmodel@@UAEPAXI@Z 00456b00 f i * CIL library *:* CIL module *
 0001:00055b00       ??_Gskelmeshgroup@skelmodel@@UAEPAXI@Z 00456b00 f i rendermodel.obj
 0001:00055b30       ??_Eskelpart@skelmodel@@UAEPAXI@Z 00456b30 f i * CIL library *:* CIL module *
 0001:00055b30       ??_Gskelpart@skelmodel@@UAEPAXI@Z 00456b30 f i rendermodel.obj
 0001:00055bb0       ??1ragdollskel@@QAE@XZ     00456bb0 f i rendermodel.obj
 0001:00055cf0       ?adjust@skeladjustment@@QAEXAAUdualquat@@@Z 00456cf0 f i rendermodel.obj
 0001:00055f30       __get_startup_commit_mode  00456f30 f i LIBCMT:commit_mode.obj
 0001:00055f30       __get_startup_thread_locale_mode 00456f30 f i LIBCMT:thread_locale.obj
 0001:00055f30       ___scrt_stub_for_initialize_mta 00456f30 f i LIBCMT:utility_desktop.obj
 0001:00055f30       ?getcrc@stream@@UAEIXZ     00456f30 f i stream.obj
 0001:00055f30       ___scrt_initialize_winrt   00456f30 f i LIBCMT:utility_desktop.obj
 0001:00055f30       ?setBIH@model@@UAEPAUBIH@@XZ 00456f30 f i rendermodel.obj
 0001:00055f30       ___scrt_exe_initialize_mta 00456f30 f i LIBCMT:utility_desktop.obj
 0001:00055f30       __get_startup_new_mode     00456f30 f i LIBCMT:new_mode.obj
 0001:00055f30       ?type@md2@@UBEHXZ          00456f30 f i rendermodel.obj
 0001:00055f30       __matherr                  00456f30 f i LIBCMT:matherr.obj
 0001:00055f40       ?linktype@md2@@UBEHPAUanimmodel@@@Z 00456f40 f i rendermodel.obj
 0001:00055f50       ?genverts@md2meshgroup@md2@@QAEXPAHAAU?$vector@Utcvert@vertmodel@@@@AAU?$vector@G@@AAU?$vector@Utri@vertmodel@@@@@Z 00456f50 f i rendermodel.obj
 0001:00056460       ?load@md2meshgroup@md2@@QAE_NPBD@Z 00457460 f i rendermodel.obj
 0001:000568d0       ?getdefaultanim@md2part@md2@@UAEXAAUaniminfo@@HIPAUdynent@@@Z 004578d0 f i rendermodel.obj
 0001:00056980       ?loadmeshes@md2@@UAEPAUmeshgroup@animmodel@@PBDPAD@Z 00457980 f i rendermodel.obj
 0001:00056a20       ?addpart@md2@@QAEAAUmd2part@1@XZ 00457a20 f i rendermodel.obj
 0001:00056aa0       ?loaddefaultparts@md2@@UAE_NXZ 00457aa0 f i rendermodel.obj
 0001:00056bd0       ??_Gobj@@UAEPAXI@Z         00457bd0 f i rendermodel.obj
 0001:00056bd0       ??_Gsmd@@UAEPAXI@Z         00457bd0 f i rendermodel.obj
 0001:00056bd0       ??_Gmd2@@UAEPAXI@Z         00457bd0 f i rendermodel.obj
 0001:00056bd0       ??_Eiqm@@UAEPAXI@Z         00457bd0 f i * CIL library *:* CIL module *
 0001:00056bd0       ??_Gmd5@@UAEPAXI@Z         00457bd0 f i rendermodel.obj
 0001:00056bd0       ??_Emd5@@UAEPAXI@Z         00457bd0 f i * CIL library *:* CIL module *
 0001:00056bd0       ??_Emd2@@UAEPAXI@Z         00457bd0 f i * CIL library *:* CIL module *
 0001:00056bd0       ??_Emd3@@UAEPAXI@Z         00457bd0 f i * CIL library *:* CIL module *
 0001:00056bd0       ??_Giqm@@UAEPAXI@Z         00457bd0 f i rendermodel.obj
 0001:00056bd0       ??_Eobj@@UAEPAXI@Z         00457bd0 f i * CIL library *:* CIL module *
 0001:00056bd0       ??_Esmd@@UAEPAXI@Z         00457bd0 f i * CIL library *:* CIL module *
 0001:00056bd0       ??_Gmd3@@UAEPAXI@Z         00457bd0 f i rendermodel.obj
 0001:00056c30       ??1?$vertloader@Umd2@@@@UAE@XZ 00457c30 f i rendermodel.obj
 0001:00056c30       ??1?$vertloader@Umd3@@@@UAE@XZ 00457c30 f i rendermodel.obj
 0001:00056c30       ??1?$skelloader@Usmd@@@@UAE@XZ 00457c30 f i rendermodel.obj
 0001:00056c30       ??1?$skelloader@Umd5@@@@UAE@XZ 00457c30 f i rendermodel.obj
 0001:00056c30       ??1?$vertloader@Uobj@@@@UAE@XZ 00457c30 f i rendermodel.obj
 0001:00056c30       ??1?$skelloader@Uiqm@@@@UAE@XZ 00457c30 f i rendermodel.obj
 0001:00056c70       ??_Gmd2part@md2@@UAEPAXI@Z 00457c70 f i rendermodel.obj
 0001:00056c70       ??_Emd2part@md2@@UAEPAXI@Z 00457c70 f i * CIL library *:* CIL module *
 0001:00056cc0       ??1?$modelloader@Umd5@@Uskelmodel@@@@UAE@XZ 00457cc0 f i rendermodel.obj
 0001:00056cc0       ??1?$modelloader@Umd2@@Uvertmodel@@@@UAE@XZ 00457cc0 f i rendermodel.obj
 0001:00056cc0       ??1?$modelloader@Uobj@@Uvertmodel@@@@UAE@XZ 00457cc0 f i rendermodel.obj
 0001:00056cc0       ??1?$modelloader@Uiqm@@Uskelmodel@@@@UAE@XZ 00457cc0 f i rendermodel.obj
 0001:00056cc0       ??1?$modelloader@Umd3@@Uvertmodel@@@@UAE@XZ 00457cc0 f i rendermodel.obj
 0001:00056cc0       ??1?$modelloader@Usmd@@Uskelmodel@@@@UAE@XZ 00457cc0 f i rendermodel.obj
 0001:00056d00       ??_Eobjmeshgroup@obj@@UAEPAXI@Z 00457d00 f i * CIL library *:* CIL module *
 0001:00056d00       ??_Gmd2meshgroup@md2@@UAEPAXI@Z 00457d00 f i rendermodel.obj
 0001:00056d00       ??_Emd2meshgroup@md2@@UAEPAXI@Z 00457d00 f i * CIL library *:* CIL module *
 0001:00056d00       ??_Gmd3meshgroup@md3@@UAEPAXI@Z 00457d00 f i rendermodel.obj
 0001:00056d00       ??_Emd3meshgroup@md3@@UAEPAXI@Z 00457d00 f i * CIL library *:* CIL module *
 0001:00056d00       ??_Gobjmeshgroup@obj@@UAEPAXI@Z 00457d00 f i rendermodel.obj
 0001:00056d60       ?load@md3meshgroup@md3@@QAE_NPBD@Z 00457d60 f i rendermodel.obj
 0001:00057420       ?loadmeshes@md3@@UAEPAUmeshgroup@animmodel@@PBDPAD@Z 00458420 f i rendermodel.obj
 0001:000574c0       ?loaddefaultparts@md3@@UAE_NXZ 004584c0 f i rendermodel.obj
 0001:000575a0       ?type@md5@@UBEHXZ          004585a0 f i rendermodel.obj
 0001:000575b0       ?buildverts@md5mesh@md5@@QAEXAAU?$vector@Umd5joint@@@@@Z 004585b0 f i rendermodel.obj
 0001:00057a10       ?load@md5mesh@md5@@QAEXPAUstream@@PADI@Z 00458a10 f i rendermodel.obj
 0001:00057e60       ?loadmesh@md5meshgroup@md5@@QAE_NPBDM@Z 00458e60 f i rendermodel.obj
 0001:00058770       ?loadanim@md5meshgroup@md5@@UAEPAUskelanimspec@skelmodel@@PBD@Z 00459770 f i rendermodel.obj
 0001:000590a0       ?loadmeshes@md5@@UAEPAUmeshgroup@animmodel@@PBDPAD@Z 0045a0a0 f i rendermodel.obj
 0001:00059190       ?loaddefaultparts@md5@@UAE_NXZ 0045a190 f i rendermodel.obj
 0001:00059290       ??_Emd5mesh@md5@@UAEPAXI@Z 0045a290 f i * CIL library *:* CIL module *
 0001:00059290       ??_Gmd5mesh@md5@@UAEPAXI@Z 0045a290 f i rendermodel.obj
 0001:00059320       ??_Esmdmeshgroup@smd@@UAEPAXI@Z 0045a320 f i * CIL library *:* CIL module *
 0001:00059320       ??_Gsmdmeshgroup@smd@@UAEPAXI@Z 0045a320 f i rendermodel.obj
 0001:00059320       ??_Giqmmeshgroup@iqm@@UAEPAXI@Z 0045a320 f i rendermodel.obj
 0001:00059320       ??_Gmd5meshgroup@md5@@UAEPAXI@Z 0045a320 f i rendermodel.obj
 0001:00059320       ??_Emd5meshgroup@md5@@UAEPAXI@Z 0045a320 f i * CIL library *:* CIL module *
 0001:00059320       ??_Eiqmmeshgroup@iqm@@UAEPAXI@Z 0045a320 f i * CIL library *:* CIL module *
 0001:00059380       ?type@obj@@UBEHXZ          0045a380 f i rendermodel.obj
 0001:00059390       ?parsevert@objmeshgroup@obj@@QAEXPADAAU?$vector@Uvec@@@@@Z 0045a390 f i rendermodel.obj
 0001:00059450       ?load@objmeshgroup@obj@@QAE_NPBDM@Z 0045a450 f i rendermodel.obj
 0001:0005a080       ?loadmeshes@obj@@UAEPAUmeshgroup@animmodel@@PBDPAD@Z 0045b080 f i rendermodel.obj
 0001:0005a120       ?loaddefaultparts@obj@@UAE_NXZ 0045b120 f i rendermodel.obj
 0001:0005a220       ?type@smd@@UBEHXZ          0045b220 f i rendermodel.obj
 0001:0005a230       ?skipsection@smdmeshgroup@smd@@QAEXPAUstream@@PADI@Z 0045b230 f i rendermodel.obj
 0001:0005a310       ?readnodes@smdmeshgroup@smd@@QAEXPAUstream@@PADIAAU?$vector@Usmdbone@@@@@Z 0045b310 f i rendermodel.obj
 0001:0005a610       ?readtriangles@smdmeshgroup@smd@@QAEXPAUstream@@PADI@Z 0045b610 f i rendermodel.obj
 0001:0005b350       ?readskeleton@smdmeshgroup@smd@@QAEXPAUstream@@PADI@Z 0045c350 f i rendermodel.obj
 0001:0005b8c0       ?loadmesh@smdmeshgroup@smd@@QAE_NPBD@Z 0045c8c0 f i rendermodel.obj
 0001:0005bc80       ?readframes@smdmeshgroup@smd@@QAEHPAUstream@@PADIAAU?$vector@Udualquat@@@@@Z 0045cc80 f i rendermodel.obj
 0001:0005c430       ?loadanim@smdmeshgroup@smd@@UAEPAUskelanimspec@skelmodel@@PBD@Z 0045d430 f i rendermodel.obj
 0001:0005c7e0       ?loadmeshes@smd@@UAEPAUmeshgroup@animmodel@@PBDPAD@Z 0045d7e0 f i rendermodel.obj
 0001:0005c8c0       ?loaddefaultparts@smd@@UAE_NXZ 0045d8c0 f i rendermodel.obj
 0001:0005c980       ??1?$hashtable@PBDUsmdmeshdata@smdmeshgroup@smd@@@@QAE@XZ 0045d980 f i rendermodel.obj
 0001:0005c9c0       ??1?$hashset@H@@QAE@XZ     0045d9c0 f i rendermodel.obj
 0001:0005ca00       ??_Esmdmesh@smd@@UAEPAXI@Z 0045da00 f i * CIL library *:* CIL module *
 0001:0005ca00       ??_Gsmdmesh@smd@@UAEPAXI@Z 0045da00 f i rendermodel.obj
 0001:0005ca50       ?type@iqm@@UBEHXZ          0045da50 f i rendermodel.obj
 0001:0005ca60       ?loadiqmmeshes@iqmmeshgroup@iqm@@QAE_NPBDABUiqmheader@@PAE@Z 0045da60 f i rendermodel.obj
 0001:0005d900       ?loadiqmanims@iqmmeshgroup@iqm@@QAE_NPBDABUiqmheader@@PAE@Z 0045e900 f i rendermodel.obj
 0001:0005e470       ?loadiqm@iqmmeshgroup@iqm@@QAE_NPBD_N1@Z 0045f470 f i rendermodel.obj
 0001:0005e5a0       ?loadanim@iqmmeshgroup@iqm@@UAEPAUskelanimspec@skelmodel@@PBD@Z 0045f5a0 f i rendermodel.obj
 0001:0005e660       ?loadmeshes@iqm@@UAEPAUmeshgroup@animmodel@@PBDPAD@Z 0045f660 f i rendermodel.obj
 0001:0005e740       ?loaddefaultparts@iqm@@UAE_NXZ 0045f740 f i rendermodel.obj
 0001:0005e800       ??1?$hashbase@U?$hashnameset@PAUmodel@@@@PAUmodel@@PBDPAU2@@@QAE@XZ 0045f800 f i rendermodel.obj
 0001:0005e870       ??0?$skelcommands@Uiqm@@@@QAE@XZ 0045f870 f i rendermodel.obj
 0001:0005eb20       ?loadconfig@?$modelloader@Uiqm@@Uskelmodel@@@@UAE_NXZ 0045fb20 f i rendermodel.obj
 0001:0005eb80       ?endload@?$modelloader@Uiqm@@Uskelmodel@@@@UAEXXZ 0045fb80 f i rendermodel.obj
 0001:0005eb90       ?startload@?$modelloader@Uiqm@@Uskelmodel@@@@UAEXXZ 0045fb90 f i rendermodel.obj
 0001:0005eba0       ?flushpart@?$skelloader@Uiqm@@@@UAEXXZ 0045fba0 f i rendermodel.obj
 0001:0005ebb0       ??0?$skelcommands@Usmd@@@@QAE@XZ 0045fbb0 f i rendermodel.obj
 0001:0005ee60       ??1?$hashbase@U?$hashtable@PBDUsmdmeshdata@smdmeshgroup@smd@@@@U?$hashtableentry@PBDUsmdmeshdata@smdmeshgroup@smd@@@@PBDUsmdmeshdata@smdmeshgroup@smd@@@@QAE@XZ 0045fe60 f i rendermodel.obj
 0001:0005eef0       ?loadconfig@?$modelloader@Usmd@@Uskelmodel@@@@UAE_NXZ 0045fef0 f i rendermodel.obj
 0001:0005ef50       ?endload@?$modelloader@Usmd@@Uskelmodel@@@@UAEXXZ 0045ff50 f i rendermodel.obj
 0001:0005ef60       ?startload@?$modelloader@Usmd@@Uskelmodel@@@@UAEXXZ 0045ff60 f i rendermodel.obj
 0001:0005ef70       ?flushpart@?$skelloader@Usmd@@@@UAEXXZ 0045ff70 f i rendermodel.obj
 0001:0005ef80       ?loadconfig@?$modelloader@Uobj@@Uvertmodel@@@@UAE_NXZ 0045ff80 f i rendermodel.obj
 0001:0005efe0       ?endload@?$modelloader@Uobj@@Uvertmodel@@@@UAEXXZ 0045ffe0 f i rendermodel.obj
 0001:0005eff0       ?startload@?$modelloader@Uobj@@Uvertmodel@@@@UAEXXZ 0045fff0 f i rendermodel.obj
 0001:0005f000       ??0?$skelcommands@Umd5@@@@QAE@XZ 00460000 f i rendermodel.obj
 0001:0005f2b0       ?add@?$vector@Umd5joint@@@@QAEAAUmd5joint@@ABU2@@Z 004602b0 f i rendermodel.obj
 0001:0005f3a0       ?loadconfig@?$modelloader@Umd5@@Uskelmodel@@@@UAE_NXZ 004603a0 f i rendermodel.obj
 0001:0005f400       ?endload@?$modelloader@Umd5@@Uskelmodel@@@@UAEXXZ 00460400 f i rendermodel.obj
 0001:0005f410       ?startload@?$modelloader@Umd5@@Uskelmodel@@@@UAEXXZ 00460410 f i rendermodel.obj
 0001:0005f420       ?flushpart@?$skelloader@Umd5@@@@UAEXXZ 00460420 f i rendermodel.obj
 0001:0005f430       ?loadconfig@?$modelloader@Umd3@@Uvertmodel@@@@UAE_NXZ 00460430 f i rendermodel.obj
 0001:0005f490       ?endload@?$modelloader@Umd3@@Uvertmodel@@@@UAEXXZ 00460490 f i rendermodel.obj
 0001:0005f4a0       ?startload@?$modelloader@Umd3@@Uvertmodel@@@@UAEXXZ 004604a0 f i rendermodel.obj
 0001:0005f4b0       ?add@?$vector@Utri@vertmodel@@@@QAEAAUtri@vertmodel@@XZ 004604b0 f i rendermodel.obj
 0001:0005f560       ?loadconfig@?$modelloader@Umd2@@Uvertmodel@@@@UAE_NXZ 00460560 f i rendermodel.obj
 0001:0005f5c0       ?endload@?$modelloader@Umd2@@Uvertmodel@@@@UAEXXZ 004605c0 f i rendermodel.obj
 0001:0005f5d0       ?startload@?$modelloader@Umd2@@Uvertmodel@@@@UAEXXZ 004605d0 f i rendermodel.obj
 0001:0005f5e0       ??1?$hashbase@U?$hashnameset@PAUskeleton@skelmodel@@@@PAUskeleton@skelmodel@@PBDPAU23@@@QAE@XZ 004605e0 f i rendermodel.obj
 0001:0005f650       ??1?$hashbase@U?$hashtable@IH@@U?$hashtableentry@IH@@IH@@QAE@XZ 00460650 f i rendermodel.obj
 0001:0005f6c0       ??1?$vector@Utag@skelmodel@@@@QAE@XZ 004606c0 f i rendermodel.obj
 0001:0005f740       ??1?$vector@Uskelanimspec@skelmodel@@@@QAE@XZ 00460740 f i rendermodel.obj
 0001:0005f7b0       ??1?$hashbase@U?$hashnameset@PAUmeshgroup@animmodel@@@@PAUmeshgroup@animmodel@@PBDPAU23@@@QAE@XZ 004607b0 f i rendermodel.obj
 0001:0005f820       ??1?$hashbase@U?$hashtable@Ushaderparams@animmodel@@Ushaderparamskey@2@@@U?$hashtableentry@Ushaderparams@animmodel@@Ushaderparamskey@2@@@Ushaderparams@animmodel@@Ushaderparamskey@4@@@QAE@XZ 00460820 f i rendermodel.obj
 0001:0005f890       ??_E?$vertloader@Umd2@@@@UAEPAXI@Z 00460890 f i * CIL library *:* CIL module *
 0001:0005f890       ??_G?$vertloader@Umd3@@@@UAEPAXI@Z 00460890 f i rendermodel.obj
 0001:0005f890       ??_G?$skelloader@Uiqm@@@@UAEPAXI@Z 00460890 f i rendermodel.obj
 0001:0005f890       ??_E?$skelloader@Umd5@@@@UAEPAXI@Z 00460890 f i * CIL library *:* CIL module *
 0001:0005f890       ??_G?$vertloader@Umd2@@@@UAEPAXI@Z 00460890 f i rendermodel.obj
 0001:0005f890       ??_E?$vertloader@Uobj@@@@UAEPAXI@Z 00460890 f i * CIL library *:* CIL module *
 0001:0005f890       ??_E?$vertloader@Umd3@@@@UAEPAXI@Z 00460890 f i * CIL library *:* CIL module *
 0001:0005f890       ??_E?$skelloader@Uiqm@@@@UAEPAXI@Z 00460890 f i * CIL library *:* CIL module *
 0001:0005f890       ??_E?$skelloader@Usmd@@@@UAEPAXI@Z 00460890 f i * CIL library *:* CIL module *
 0001:0005f890       ??_G?$vertloader@Uobj@@@@UAEPAXI@Z 00460890 f i rendermodel.obj
 0001:0005f890       ??_G?$skelloader@Umd5@@@@UAEPAXI@Z 00460890 f i rendermodel.obj
 0001:0005f890       ??_G?$skelloader@Usmd@@@@UAEPAXI@Z 00460890 f i rendermodel.obj
 0001:0005f8f0       ??0?$modelcommands@Uiqm@@Uskelmesh@skelmodel@@@@QAE@XZ 004608f0 f i rendermodel.obj
 0001:0005faf0       ?setadjust@?$skelcommands@Uiqm@@@@SAXPADPAM11111@Z 00460af0 f i rendermodel.obj
 0001:0005fc60       ?setanimpart@?$skelcommands@Uiqm@@@@SAXPAD@Z 00460c60 f i rendermodel.obj
 0001:0005fe50       ?setanim@?$skelcommands@Uiqm@@@@SAXPAD0PAMPAH22@Z 00460e50 f i rendermodel.obj
 0001:00060040       ?setpitchcorrect@?$skelcommands@Uiqm@@@@SAXPAD0PAM11@Z 00461040 f i rendermodel.obj
 0001:000601c0       ?setpitchtarget@?$skelcommands@Uiqm@@@@SAXPAD0PAHPAM2@Z 004611c0 f i rendermodel.obj
 0001:00060310       ?setpitch@?$skelcommands@Uiqm@@@@SAXPADPAM111@Z 00461310 f i rendermodel.obj
 0001:00060550       ?settag@?$skelcommands@Uiqm@@@@SAXPAD0PAM11111@Z 00461550 f i rendermodel.obj
 0001:00060860       ?loadpart@?$skelcommands@Uiqm@@@@SAXPAD0PAM@Z 00461860 f i rendermodel.obj
 0001:00060990       ??0?$modelcommands@Usmd@@Uskelmesh@skelmodel@@@@QAE@XZ 00461990 f i rendermodel.obj
 0001:00060b90       ?setadjust@?$skelcommands@Usmd@@@@SAXPADPAM11111@Z 00461b90 f i rendermodel.obj
 0001:00060d00       ?setanimpart@?$skelcommands@Usmd@@@@SAXPAD@Z 00461d00 f i rendermodel.obj
 0001:00060ef0       ?setanim@?$skelcommands@Usmd@@@@SAXPAD0PAMPAH22@Z 00461ef0 f i rendermodel.obj
 0001:000610e0       ?setpitchcorrect@?$skelcommands@Usmd@@@@SAXPAD0PAM11@Z 004620e0 f i rendermodel.obj
 0001:00061260       ?setpitchtarget@?$skelcommands@Usmd@@@@SAXPAD0PAHPAM2@Z 00462260 f i rendermodel.obj
 0001:000613b0       ?setpitch@?$skelcommands@Usmd@@@@SAXPADPAM111@Z 004623b0 f i rendermodel.obj
 0001:000615f0       ?settag@?$skelcommands@Usmd@@@@SAXPAD0PAM11111@Z 004625f0 f i rendermodel.obj
 0001:00061900       ?loadpart@?$skelcommands@Usmd@@@@SAXPAD0PAM@Z 00462900 f i rendermodel.obj
 0001:00061a30       ??0?$modelcommands@Uobj@@Uvertmesh@vertmodel@@@@QAE@XZ 00462a30 f i rendermodel.obj
 0001:00061c80       ?setpitch@?$vertcommands@Uobj@@@@SAXPAM000@Z 00462c80 f i rendermodel.obj
 0001:00061d90       ?loadpart@?$vertcommands@Uobj@@@@SAXPADPAM@Z 00462d90 f i rendermodel.obj
 0001:00061eb0       ??0?$modelcommands@Umd5@@Uskelmesh@skelmodel@@@@QAE@XZ 00462eb0 f i rendermodel.obj
 0001:000620b0       ?setadjust@?$skelcommands@Umd5@@@@SAXPADPAM11111@Z 004630b0 f i rendermodel.obj
 0001:00062220       ?setanimpart@?$skelcommands@Umd5@@@@SAXPAD@Z 00463220 f i rendermodel.obj
 0001:00062410       ?setanim@?$skelcommands@Umd5@@@@SAXPAD0PAMPAH22@Z 00463410 f i rendermodel.obj
 0001:00062600       ?setpitchcorrect@?$skelcommands@Umd5@@@@SAXPAD0PAM11@Z 00463600 f i rendermodel.obj
 0001:00062780       ?setpitchtarget@?$skelcommands@Umd5@@@@SAXPAD0PAHPAM2@Z 00463780 f i rendermodel.obj
 0001:000628d0       ?setpitch@?$skelcommands@Umd5@@@@SAXPADPAM111@Z 004638d0 f i rendermodel.obj
 0001:00062b10       ?settag@?$skelcommands@Umd5@@@@SAXPAD0PAM11111@Z 00463b10 f i rendermodel.obj
 0001:00062e20       ?loadpart@?$skelcommands@Umd5@@@@SAXPAD0PAM@Z 00463e20 f i rendermodel.obj
 0001:00062f50       ??0?$modelcommands@Umd3@@Uvertmesh@vertmodel@@@@QAE@XZ 00463f50 f i rendermodel.obj
 0001:000631a0       ?setanim@?$vertcommands@Umd3@@@@SAXPADPAH1PAM1@Z 004641a0 f i rendermodel.obj
 0001:000632b0       ?setpitch@?$vertcommands@Umd3@@@@SAXPAM000@Z 004642b0 f i rendermodel.obj
 0001:000633c0       ?loadpart@?$vertcommands@Umd3@@@@SAXPADPAM@Z 004643c0 f i rendermodel.obj
 0001:000634e0       ?setanim@?$vertcommands@Umd2@@@@SAXPADPAH1PAM1@Z 004644e0 f i rendermodel.obj
 0001:000635f0       ?setpitch@?$vertcommands@Umd2@@@@SAXPAM000@Z 004645f0 f i rendermodel.obj
 0001:00063700       ?deletechunks@?$hashbase@U?$hashtable@Uivec@@H@@U?$hashtableentry@Uivec@@H@@Uivec@@H@@QAEXXZ 00464700 f i rendermodel.obj
 0001:00063740       ?growbuf@?$vector@Umesh@BIH@@@@QAEXH@Z 00464740 f i rendermodel.obj
 0001:000637d0       ??_G?$modelloader@Umd5@@Uskelmodel@@@@UAEPAXI@Z 004647d0 f i rendermodel.obj
 0001:000637d0       ??_E?$modelloader@Usmd@@Uskelmodel@@@@UAEPAXI@Z 004647d0 f i * CIL library *:* CIL module *
 0001:000637d0       ??_G?$modelloader@Umd3@@Uvertmodel@@@@UAEPAXI@Z 004647d0 f i rendermodel.obj
 0001:000637d0       ??_E?$modelloader@Uobj@@Uvertmodel@@@@UAEPAXI@Z 004647d0 f i * CIL library *:* CIL module *
 0001:000637d0       ??_G?$modelloader@Usmd@@Uskelmodel@@@@UAEPAXI@Z 004647d0 f i rendermodel.obj
 0001:000637d0       ??_E?$modelloader@Umd5@@Uskelmodel@@@@UAEPAXI@Z 004647d0 f i * CIL library *:* CIL module *
 0001:000637d0       ??_G?$modelloader@Uiqm@@Uskelmodel@@@@UAEPAXI@Z 004647d0 f i rendermodel.obj
 0001:000637d0       ??_G?$modelloader@Umd2@@Uvertmodel@@@@UAEPAXI@Z 004647d0 f i rendermodel.obj
 0001:000637d0       ??_E?$modelloader@Umd3@@Uvertmodel@@@@UAEPAXI@Z 004647d0 f i * CIL library *:* CIL module *
 0001:000637d0       ??_E?$modelloader@Uiqm@@Uskelmodel@@@@UAEPAXI@Z 004647d0 f i * CIL library *:* CIL module *
 0001:000637d0       ??_E?$modelloader@Umd2@@Uvertmodel@@@@UAEPAXI@Z 004647d0 f i * CIL library *:* CIL module *
 0001:000637d0       ??_G?$modelloader@Uobj@@Uvertmodel@@@@UAEPAXI@Z 004647d0 f i rendermodel.obj
 0001:00063830       ??1chain@?$hashbase@U?$hashtable@PBDUsmdmeshdata@smdmeshgroup@smd@@@@U?$hashtableentry@PBDUsmdmeshdata@smdmeshgroup@smd@@@@PBDUsmdmeshdata@smdmeshgroup@smd@@@@QAE@XZ 00464830 f i rendermodel.obj
 0001:00063880       ??1?$hashtableentry@PBDUsmdmeshdata@smdmeshgroup@smd@@@@QAE@XZ 00464880 f i rendermodel.obj
 0001:000638c0       ??1smdmeshdata@smdmeshgroup@smd@@QAE@XZ 004648c0 f i rendermodel.obj
 0001:00063940       ?setlink@?$modelcommands@Uiqm@@Uskelmesh@skelmodel@@@@SAXPAH0PADPAM22@Z 00464940 f i rendermodel.obj
 0001:00063a10       ?setnoclip@?$modelcommands@Uiqm@@Uskelmesh@skelmodel@@@@SAXPADPAH@Z 00464a10 f i rendermodel.obj
 0001:00063ab0       ?setscroll@?$modelcommands@Uiqm@@Uskelmesh@skelmodel@@@@SAXPADPAM1@Z 00464ab0 f i rendermodel.obj
 0001:00063b60       ?setshader@?$modelcommands@Uiqm@@Uskelmesh@skelmodel@@@@SAXPAD0@Z 00464b60 f i rendermodel.obj
 0001:00063c30       ?setfullbright@?$modelcommands@Uiqm@@Uskelmesh@skelmodel@@@@SAXPADPAM@Z 00464c30 f i rendermodel.obj
 0001:00063ce0       ?setbumpmap@?$modelcommands@Uiqm@@Uskelmesh@skelmodel@@@@SAXPAD0@Z 00464ce0 f i rendermodel.obj
 0001:00063db0       ?setenvmap@?$modelcommands@Uiqm@@Uskelmesh@skelmodel@@@@SAXPAD0@Z 00464db0 f i rendermodel.obj
 0001:00063e70       ?setcullface@?$modelcommands@Uiqm@@Uskelmesh@skelmodel@@@@SAXPADPAH@Z 00464e70 f i rendermodel.obj
 0001:00063f20       ?setalphablend@?$modelcommands@Uiqm@@Uskelmesh@skelmodel@@@@SAXPADPAH@Z 00464f20 f i rendermodel.obj
 0001:00063fd0       ?setalphatest@?$modelcommands@Uiqm@@Uskelmesh@skelmodel@@@@SAXPADPAM@Z 00464fd0 f i rendermodel.obj
 0001:00064090       ?setglare@?$modelcommands@Uiqm@@Uskelmesh@skelmodel@@@@SAXPADPAM1@Z 00465090 f i rendermodel.obj
 0001:00064140       ?setglow@?$modelcommands@Uiqm@@Uskelmesh@skelmodel@@@@SAXPADPAH1PAM@Z 00465140 f i rendermodel.obj
 0001:00064290       ?setambient@?$modelcommands@Uiqm@@Uskelmesh@skelmodel@@@@SAXPADPAH@Z 00465290 f i rendermodel.obj
 0001:00064370       ?setspec@?$modelcommands@Uiqm@@Uskelmesh@skelmodel@@@@SAXPADPAH@Z 00465370 f i rendermodel.obj
 0001:00064450       ?setskin@?$modelcommands@Uiqm@@Uskelmesh@skelmodel@@@@SAXPAD00PAM1@Z 00465450 f i rendermodel.obj
 0001:00064570       ?setdir@?$modelcommands@Uiqm@@Uskelmesh@skelmodel@@@@SAXPAD@Z 00465570 f i rendermodel.obj
 0001:000645b0       ?setlink@?$modelcommands@Usmd@@Uskelmesh@skelmodel@@@@SAXPAH0PADPAM22@Z 004655b0 f i rendermodel.obj
 0001:00064680       ?setnoclip@?$modelcommands@Usmd@@Uskelmesh@skelmodel@@@@SAXPADPAH@Z 00465680 f i rendermodel.obj
 0001:00064720       ?setscroll@?$modelcommands@Usmd@@Uskelmesh@skelmodel@@@@SAXPADPAM1@Z 00465720 f i rendermodel.obj
 0001:000647d0       ?setshader@?$modelcommands@Usmd@@Uskelmesh@skelmodel@@@@SAXPAD0@Z 004657d0 f i rendermodel.obj
 0001:000648a0       ?setfullbright@?$modelcommands@Usmd@@Uskelmesh@skelmodel@@@@SAXPADPAM@Z 004658a0 f i rendermodel.obj
 0001:00064950       ?setbumpmap@?$modelcommands@Usmd@@Uskelmesh@skelmodel@@@@SAXPAD0@Z 00465950 f i rendermodel.obj
 0001:00064a20       ?setenvmap@?$modelcommands@Usmd@@Uskelmesh@skelmodel@@@@SAXPAD0@Z 00465a20 f i rendermodel.obj
 0001:00064ae0       ?setcullface@?$modelcommands@Usmd@@Uskelmesh@skelmodel@@@@SAXPADPAH@Z 00465ae0 f i rendermodel.obj
 0001:00064b90       ?setalphablend@?$modelcommands@Usmd@@Uskelmesh@skelmodel@@@@SAXPADPAH@Z 00465b90 f i rendermodel.obj
 0001:00064c40       ?setalphatest@?$modelcommands@Usmd@@Uskelmesh@skelmodel@@@@SAXPADPAM@Z 00465c40 f i rendermodel.obj
 0001:00064d00       ?setglare@?$modelcommands@Usmd@@Uskelmesh@skelmodel@@@@SAXPADPAM1@Z 00465d00 f i rendermodel.obj
 0001:00064db0       ?setglow@?$modelcommands@Usmd@@Uskelmesh@skelmodel@@@@SAXPADPAH1PAM@Z 00465db0 f i rendermodel.obj
 0001:00064f00       ?setambient@?$modelcommands@Usmd@@Uskelmesh@skelmodel@@@@SAXPADPAH@Z 00465f00 f i rendermodel.obj
 0001:00064fe0       ?setspec@?$modelcommands@Usmd@@Uskelmesh@skelmodel@@@@SAXPADPAH@Z 00465fe0 f i rendermodel.obj
 0001:000650c0       ?setskin@?$modelcommands@Usmd@@Uskelmesh@skelmodel@@@@SAXPAD00PAM1@Z 004660c0 f i rendermodel.obj
 0001:000651e0       ?setdir@?$modelcommands@Usmd@@Uskelmesh@skelmodel@@@@SAXPAD@Z 004661e0 f i rendermodel.obj
 0001:00065220       ?setlink@?$modelcommands@Uobj@@Uvertmesh@vertmodel@@@@SAXPAH0PADPAM22@Z 00466220 f i rendermodel.obj
 0001:000652f0       ?setnoclip@?$modelcommands@Uobj@@Uvertmesh@vertmodel@@@@SAXPADPAH@Z 004662f0 f i rendermodel.obj
 0001:00065390       ?setscroll@?$modelcommands@Uobj@@Uvertmesh@vertmodel@@@@SAXPADPAM1@Z 00466390 f i rendermodel.obj
 0001:00065440       ?setshader@?$modelcommands@Uobj@@Uvertmesh@vertmodel@@@@SAXPAD0@Z 00466440 f i rendermodel.obj
 0001:00065510       ?setfullbright@?$modelcommands@Uobj@@Uvertmesh@vertmodel@@@@SAXPADPAM@Z 00466510 f i rendermodel.obj
 0001:000655c0       ?setbumpmap@?$modelcommands@Uobj@@Uvertmesh@vertmodel@@@@SAXPAD0@Z 004665c0 f i rendermodel.obj
 0001:00065690       ?setenvmap@?$modelcommands@Uobj@@Uvertmesh@vertmodel@@@@SAXPAD0@Z 00466690 f i rendermodel.obj
 0001:00065750       ?setcullface@?$modelcommands@Uobj@@Uvertmesh@vertmodel@@@@SAXPADPAH@Z 00466750 f i rendermodel.obj
 0001:00065800       ?setalphablend@?$modelcommands@Uobj@@Uvertmesh@vertmodel@@@@SAXPADPAH@Z 00466800 f i rendermodel.obj
 0001:000658b0       ?setalphatest@?$modelcommands@Uobj@@Uvertmesh@vertmodel@@@@SAXPADPAM@Z 004668b0 f i rendermodel.obj
 0001:00065970       ?setglare@?$modelcommands@Uobj@@Uvertmesh@vertmodel@@@@SAXPADPAM1@Z 00466970 f i rendermodel.obj
 0001:00065a20       ?setglow@?$modelcommands@Uobj@@Uvertmesh@vertmodel@@@@SAXPADPAH1PAM@Z 00466a20 f i rendermodel.obj
 0001:00065b70       ?setambient@?$modelcommands@Uobj@@Uvertmesh@vertmodel@@@@SAXPADPAH@Z 00466b70 f i rendermodel.obj
 0001:00065c50       ?setspec@?$modelcommands@Uobj@@Uvertmesh@vertmodel@@@@SAXPADPAH@Z 00466c50 f i rendermodel.obj
 0001:00065d30       ?setskin@?$modelcommands@Uobj@@Uvertmesh@vertmodel@@@@SAXPAD00PAM1@Z 00466d30 f i rendermodel.obj
 0001:00065e50       ?setdir@?$modelcommands@Uobj@@Uvertmesh@vertmodel@@@@SAXPAD@Z 00466e50 f i rendermodel.obj
 0001:00065e90       ?setlink@?$modelcommands@Umd5@@Uskelmesh@skelmodel@@@@SAXPAH0PADPAM22@Z 00466e90 f i rendermodel.obj
 0001:00065f60       ?setnoclip@?$modelcommands@Umd5@@Uskelmesh@skelmodel@@@@SAXPADPAH@Z 00466f60 f i rendermodel.obj
 0001:00066000       ?setscroll@?$modelcommands@Umd5@@Uskelmesh@skelmodel@@@@SAXPADPAM1@Z 00467000 f i rendermodel.obj
 0001:000660b0       ?setshader@?$modelcommands@Umd5@@Uskelmesh@skelmodel@@@@SAXPAD0@Z 004670b0 f i rendermodel.obj
 0001:00066180       ?setfullbright@?$modelcommands@Umd5@@Uskelmesh@skelmodel@@@@SAXPADPAM@Z 00467180 f i rendermodel.obj
 0001:00066230       ?setbumpmap@?$modelcommands@Umd5@@Uskelmesh@skelmodel@@@@SAXPAD0@Z 00467230 f i rendermodel.obj
 0001:00066300       ?setenvmap@?$modelcommands@Umd5@@Uskelmesh@skelmodel@@@@SAXPAD0@Z 00467300 f i rendermodel.obj
 0001:000663c0       ?setcullface@?$modelcommands@Umd5@@Uskelmesh@skelmodel@@@@SAXPADPAH@Z 004673c0 f i rendermodel.obj
 0001:00066470       ?setalphablend@?$modelcommands@Umd5@@Uskelmesh@skelmodel@@@@SAXPADPAH@Z 00467470 f i rendermodel.obj
 0001:00066520       ?setalphatest@?$modelcommands@Umd5@@Uskelmesh@skelmodel@@@@SAXPADPAM@Z 00467520 f i rendermodel.obj
 0001:000665e0       ?setglare@?$modelcommands@Umd5@@Uskelmesh@skelmodel@@@@SAXPADPAM1@Z 004675e0 f i rendermodel.obj
 0001:00066690       ?setglow@?$modelcommands@Umd5@@Uskelmesh@skelmodel@@@@SAXPADPAH1PAM@Z 00467690 f i rendermodel.obj
 0001:000667e0       ?setambient@?$modelcommands@Umd5@@Uskelmesh@skelmodel@@@@SAXPADPAH@Z 004677e0 f i rendermodel.obj
 0001:000668c0       ?setspec@?$modelcommands@Umd5@@Uskelmesh@skelmodel@@@@SAXPADPAH@Z 004678c0 f i rendermodel.obj
 0001:000669a0       ?setskin@?$modelcommands@Umd5@@Uskelmesh@skelmodel@@@@SAXPAD00PAM1@Z 004679a0 f i rendermodel.obj
 0001:00066ac0       ?setdir@?$modelcommands@Umd5@@Uskelmesh@skelmodel@@@@SAXPAD@Z 00467ac0 f i rendermodel.obj
 0001:00066b00       ?setlink@?$modelcommands@Umd3@@Uvertmesh@vertmodel@@@@SAXPAH0PADPAM22@Z 00467b00 f i rendermodel.obj
 0001:00066bd0       ?setnoclip@?$modelcommands@Umd3@@Uvertmesh@vertmodel@@@@SAXPADPAH@Z 00467bd0 f i rendermodel.obj
 0001:00066c70       ?setscroll@?$modelcommands@Umd3@@Uvertmesh@vertmodel@@@@SAXPADPAM1@Z 00467c70 f i rendermodel.obj
 0001:00066d20       ?setshader@?$modelcommands@Umd3@@Uvertmesh@vertmodel@@@@SAXPAD0@Z 00467d20 f i rendermodel.obj
 0001:00066df0       ?setfullbright@?$modelcommands@Umd3@@Uvertmesh@vertmodel@@@@SAXPADPAM@Z 00467df0 f i rendermodel.obj
 0001:00066ea0       ?setbumpmap@?$modelcommands@Umd3@@Uvertmesh@vertmodel@@@@SAXPAD0@Z 00467ea0 f i rendermodel.obj
 0001:00066f70       ?setenvmap@?$modelcommands@Umd3@@Uvertmesh@vertmodel@@@@SAXPAD0@Z 00467f70 f i rendermodel.obj
 0001:00067030       ?setcullface@?$modelcommands@Umd3@@Uvertmesh@vertmodel@@@@SAXPADPAH@Z 00468030 f i rendermodel.obj
 0001:000670e0       ?setalphablend@?$modelcommands@Umd3@@Uvertmesh@vertmodel@@@@SAXPADPAH@Z 004680e0 f i rendermodel.obj
 0001:00067190       ?setalphatest@?$modelcommands@Umd3@@Uvertmesh@vertmodel@@@@SAXPADPAM@Z 00468190 f i rendermodel.obj
 0001:00067250       ?setglare@?$modelcommands@Umd3@@Uvertmesh@vertmodel@@@@SAXPADPAM1@Z 00468250 f i rendermodel.obj
 0001:00067300       ?setglow@?$modelcommands@Umd3@@Uvertmesh@vertmodel@@@@SAXPADPAH1PAM@Z 00468300 f i rendermodel.obj
 0001:00067450       ?setambient@?$modelcommands@Umd3@@Uvertmesh@vertmodel@@@@SAXPADPAH@Z 00468450 f i rendermodel.obj
 0001:00067530       ?setspec@?$modelcommands@Umd3@@Uvertmesh@vertmodel@@@@SAXPADPAH@Z 00468530 f i rendermodel.obj
 0001:00067610       ?setskin@?$modelcommands@Umd3@@Uvertmesh@vertmodel@@@@SAXPAD00PAM1@Z 00468610 f i rendermodel.obj
 0001:00067730       ?setdir@?$modelcommands@Umd3@@Uvertmesh@vertmodel@@@@SAXPAD@Z 00468730 f i rendermodel.obj
 0001:00067770       ?setdir@?$modelcommands@Umd2@@Uvertmesh@vertmodel@@@@SAXPAD@Z 00468770 f i rendermodel.obj
 0001:000677b0       ?add@?$vector@Uskeladjustment@@@@QAEAAUskeladjustment@@ABU2@@Z 004687b0 f i rendermodel.obj
 0001:00067880       ?insert@?$vector@Upitchcorrect@skelmodel@@@@QAEAAUpitchcorrect@skelmodel@@HABU23@@Z 00468880 f i rendermodel.obj
 0001:000679a0       ?add@?$vector@Upitchtarget@skelmodel@@@@QAEAAUpitchtarget@skelmodel@@XZ 004689a0 f i rendermodel.obj
 0001:00067a60       ?deletearrays@?$vector@PAD@@QAEXXZ 00468a60 f i rendermodel.obj
 0001:00067a90       ??$smoothnorms@Uvert@vertmodel@@Utri@2@@mesh@animmodel@@QAEXPAUvert@vertmodel@@HPAUtri@3@HM_N@Z 00468a90 f i rendermodel.obj
 0001:00068040       ??$buildnorms@Uvert@vertmodel@@Utri@2@@mesh@animmodel@@QAEXPAUvert@vertmodel@@HPAUtri@3@H_NH@Z 00469040 f i rendermodel.obj
 0001:00068290       ??$calctangents@Ubumpvert@vertmodel@@Uvert@2@Utcvert@2@Utri@2@@mesh@animmodel@@QAEXPAUbumpvert@vertmodel@@PAUvert@3@PAUtcvert@3@HPAUtri@3@H_NH@Z 00469290 f i rendermodel.obj
 0001:00068a40       ??$genvbo@Uvvertbump@vertmodel@@@vertmesh@vertmodel@@QAEHAAU?$vector@G@@HAAU?$vector@Uvvertbump@vertmodel@@@@PAHH@Z 00469a40 f i rendermodel.obj
 0001:00068f50       ??$genvbo@Uvvertn@vertmodel@@@vertmesh@vertmodel@@QAEHAAU?$vector@G@@HAAU?$vector@Uvvertn@vertmodel@@@@PAHH@Z 00469f50 f i rendermodel.obj
 0001:00069390       ??$smoothnorms@Uvert@skelmodel@@Utri@2@@mesh@animmodel@@QAEXPAUvert@skelmodel@@HPAUtri@3@HM_N@Z 0046a390 f i rendermodel.obj
 0001:00069940       ??$buildnorms@Uvert@skelmodel@@Utri@2@@mesh@animmodel@@QAEXPAUvert@skelmodel@@HPAUtri@3@H_N@Z 0046a940 f i rendermodel.obj
 0001:00069b80       ??$calctangents@Ubumpvert@skelmodel@@Uvert@2@U32@Utri@2@@mesh@animmodel@@QAEXPAUbumpvert@skelmodel@@PAUvert@3@1HPAUtri@3@H_N@Z 0046ab80 f i rendermodel.obj
 0001:0006a2b0       ??$genvbo@Uvvertbumpw@skelmodel@@@skelmesh@skelmodel@@QAEHAAU?$vector@G@@HAAU?$vector@Uvvertbumpw@skelmodel@@@@@Z 0046b2b0 f i rendermodel.obj
 0001:0006a5f0       ??$genvbo@Uvvertbump@skelmodel@@@skelmesh@skelmodel@@QAEHAAU?$vector@G@@HAAU?$vector@Uvvertbump@skelmodel@@@@PAHH@Z 0046b5f0 f i rendermodel.obj
 0001:0006aae0       ??$genvbo@Uvvertn@skelmodel@@@skelmesh@skelmodel@@QAEHAAU?$vector@G@@HAAU?$vector@Uvvertn@skelmodel@@@@PAHH@Z 0046bae0 f i rendermodel.obj
 0001:0006af10       ??$access@PBD@?$hashbase@U?$hashnameset@PAUmodel@@@@PAUmodel@@PBDPAU2@@@QAEPAPAUmodel@@ABQBD@Z 0046bf10 f i rendermodel.obj
 0001:0006af80       ??$modelcommand@$$A6AXPAD@Z@?$modelcommands@Uiqm@@Uskelmesh@skelmodel@@@@QAEXP6AXPAD@ZPBD2@Z 0046bf80 f i rendermodel.obj
 0001:0006b000       ??$modelcommand@$$A6AXPAD@Z@?$modelcommands@Usmd@@Uskelmesh@skelmodel@@@@QAEXP6AXPAD@ZPBD2@Z 0046c000 f i rendermodel.obj
 0001:0006b080       ??$modelcommand@$$A6AXPADPAM@Z@?$modelcommands@Uobj@@Uvertmesh@vertmodel@@@@QAEXP6AXPADPAM@ZPBD3@Z 0046c080 f i rendermodel.obj
 0001:0006b100       ??$modelcommand@$$A6AXPAD@Z@?$modelcommands@Umd5@@Uskelmesh@skelmodel@@@@QAEXP6AXPAD@ZPBD2@Z 0046c100 f i rendermodel.obj
 0001:0006b180       ??$modelcommand@$$A6AXPADPAM@Z@?$modelcommands@Umd3@@Uvertmesh@vertmodel@@@@QAEXP6AXPADPAM@ZPBD3@Z 0046c180 f i rendermodel.obj
 0001:0006b200       ??$modelcommand@$$A6AXPADPAH@Z@?$modelcommands@Uiqm@@Uskelmesh@skelmodel@@@@QAEXP6AXPADPAH@ZPBD3@Z 0046c200 f i rendermodel.obj
 0001:0006b280       ??$modelcommand@$$A6AXPADPAM1@Z@?$modelcommands@Uiqm@@Uskelmesh@skelmodel@@@@QAEXP6AXPADPAM1@ZPBD3@Z 0046c280 f i rendermodel.obj
 0001:0006b300       ??$modelcommand@$$A6AXPADPAM@Z@?$modelcommands@Uiqm@@Uskelmesh@skelmodel@@@@QAEXP6AXPADPAM@ZPBD3@Z 0046c300 f i rendermodel.obj
 0001:0006b380       ??$modelcommand@$$A6AXPAD0@Z@?$modelcommands@Uiqm@@Uskelmesh@skelmodel@@@@QAEXP6AXPAD0@ZPBD2@Z 0046c380 f i rendermodel.obj
 0001:0006b400       ??$modelcommand@$$A6AXPADPAH@Z@?$modelcommands@Usmd@@Uskelmesh@skelmodel@@@@QAEXP6AXPADPAH@ZPBD3@Z 0046c400 f i rendermodel.obj
 0001:0006b480       ??$modelcommand@$$A6AXPADPAM1@Z@?$modelcommands@Usmd@@Uskelmesh@skelmodel@@@@QAEXP6AXPADPAM1@ZPBD3@Z 0046c480 f i rendermodel.obj
 0001:0006b500       ??$modelcommand@$$A6AXPADPAM@Z@?$modelcommands@Usmd@@Uskelmesh@skelmodel@@@@QAEXP6AXPADPAM@ZPBD3@Z 0046c500 f i rendermodel.obj
 0001:0006b580       ??$modelcommand@$$A6AXPAD0@Z@?$modelcommands@Usmd@@Uskelmesh@skelmodel@@@@QAEXP6AXPAD0@ZPBD2@Z 0046c580 f i rendermodel.obj
 0001:0006b600       ??$modelcommand@$$A6AXPADPAH@Z@?$modelcommands@Uobj@@Uvertmesh@vertmodel@@@@QAEXP6AXPADPAH@ZPBD3@Z 0046c600 f i rendermodel.obj
 0001:0006b680       ??$modelcommand@$$A6AXPADPAM1@Z@?$modelcommands@Uobj@@Uvertmesh@vertmodel@@@@QAEXP6AXPADPAM1@ZPBD3@Z 0046c680 f i rendermodel.obj
 0001:0006b700       ??$modelcommand@$$A6AXPAD0@Z@?$modelcommands@Uobj@@Uvertmesh@vertmodel@@@@QAEXP6AXPAD0@ZPBD2@Z 0046c700 f i rendermodel.obj
 0001:0006b780       ??$modelcommand@$$A6AXPADPAH@Z@?$modelcommands@Umd5@@Uskelmesh@skelmodel@@@@QAEXP6AXPADPAH@ZPBD3@Z 0046c780 f i rendermodel.obj
 0001:0006b800       ??$modelcommand@$$A6AXPADPAM1@Z@?$modelcommands@Umd5@@Uskelmesh@skelmodel@@@@QAEXP6AXPADPAM1@ZPBD3@Z 0046c800 f i rendermodel.obj
 0001:0006b880       ??$modelcommand@$$A6AXPADPAM@Z@?$modelcommands@Umd5@@Uskelmesh@skelmodel@@@@QAEXP6AXPADPAM@ZPBD3@Z 0046c880 f i rendermodel.obj
 0001:0006b900       ??$modelcommand@$$A6AXPAD0@Z@?$modelcommands@Umd5@@Uskelmesh@skelmodel@@@@QAEXP6AXPAD0@ZPBD2@Z 0046c900 f i rendermodel.obj
 0001:0006b980       ??$modelcommand@$$A6AXPADPAH@Z@?$modelcommands@Umd3@@Uvertmesh@vertmodel@@@@QAEXP6AXPADPAH@ZPBD3@Z 0046c980 f i rendermodel.obj
 0001:0006ba00       ??$modelcommand@$$A6AXPADPAM1@Z@?$modelcommands@Umd3@@Uvertmesh@vertmodel@@@@QAEXP6AXPADPAM1@ZPBD3@Z 0046ca00 f i rendermodel.obj
 0001:0006ba80       ??$modelcommand@$$A6AXPAD0@Z@?$modelcommands@Umd3@@Uvertmesh@vertmodel@@@@QAEXP6AXPAD0@ZPBD2@Z 0046ca80 f i rendermodel.obj
 0001:0006bb00       ?insert@?$hashbase@U?$hashnameset@PAUmodel@@@@PAUmodel@@PBDPAU2@@@QAEPAUchain@1@I@Z 0046cb00 f i rendermodel.obj
 0001:0006bc60       ?insert@?$hashbase@U?$hashtable@PBDUsmdmeshdata@smdmeshgroup@smd@@@@U?$hashtableentry@PBDUsmdmeshdata@smdmeshgroup@smd@@@@PBDUsmdmeshdata@smdmeshgroup@smd@@@@QAEPAUchain@1@I@Z 0046cc60 f i rendermodel.obj
 0001:0006be10       ?insert@?$hashbase@U?$hashnameset@PAUskeleton@skelmodel@@@@PAUskeleton@skelmodel@@PBDPAU23@@@QAEPAUchain@1@I@Z 0046ce10 f i rendermodel.obj
 0001:0006bf70       ?insert@?$hashbase@U?$hashtable@IH@@U?$hashtableentry@IH@@IH@@QAEPAUchain@1@I@Z 0046cf70 f i rendermodel.obj
 0001:0006bf70       ?insert@?$hashbase@U?$hashtable@PADPAUfilesval@@@@U?$hashtableentry@PADPAUfilesval@@@@PADPAUfilesval@@@@QAEPAUchain@1@I@Z 0046cf70 f i console.obj
 0001:0006c0c0       ?insert@?$hashbase@U?$hashnameset@PAUmeshgroup@animmodel@@@@PAUmeshgroup@animmodel@@PBDPAU23@@@QAEPAUchain@1@I@Z 0046d0c0 f i rendermodel.obj
 0001:0006c220       ?insert@?$hashbase@U?$hashtable@Ushaderparams@animmodel@@Ushaderparamskey@2@@@U?$hashtableentry@Ushaderparams@animmodel@@Ushaderparamskey@2@@@Ushaderparams@animmodel@@Ushaderparamskey@4@@@QAEPAUchain@1@I@Z 0046d220 f i rendermodel.obj
 0001:0006c400       ??0chain@?$hashbase@U?$hashtable@PBDUsmdmeshdata@smdmeshgroup@smd@@@@U?$hashtableentry@PBDUsmdmeshdata@smdmeshgroup@smd@@@@PBDUsmdmeshdata@smdmeshgroup@smd@@@@QAE@XZ 0046d400 f i rendermodel.obj
 0001:0006c470       ??$convertmatrix@Umatrix3@@@quat@@QAEXABUmatrix3@@@Z 0046d470 f i rendermodel.obj
 0001:0006c470       ??$convertmatrix@Umatrix4x3@@@quat@@QAEXABUmatrix4x3@@@Z 0046d470 f i rendermodel.obj
 0001:0006c6d0       ??0matrix4x3@@QAE@ABUmatrix3@@ABUvec@@@Z 0046d6d0 f i rendermodel.obj
 0001:0006c720       ??_Gmodel@@UAEPAXI@Z       0046d720 f i rendermodel.obj
 0001:0006c720       ??_Emodel@@UAEPAXI@Z       0046d720 f i * CIL library *:* CIL module *
 0001:0006c750       ??0matrix3@@QAE@ABUquat@@@Z 0046d750 f i rendermodel.obj
 0001:0006c8a0       ??0dualquat@@QAE@ABUquat@@ABUvec@@@Z 0046d8a0 f i rendermodel.obj
 0001:0006c9a0       ?mulorient@dualquat@@QAEXABUquat@@@Z 0046d9a0 f i rendermodel.obj
 0001:0006cba0       ?mul@matrix4x3@@QAEXABUmatrix3@@ABU1@@Z 0046dba0 f i rendermodel.obj
 0001:0006cee0       ??0matrix4x3@@QAE@ABUdualquat@@@Z 0046dee0 f i rendermodel.obj
 0001:0006d1a0       ?fixantipodal@dualquat@@QAEXABU1@@Z 0046e1a0 f i rendermodel.obj
 0001:0006d210       ?mulorient@dualquat@@QAEXABUquat@@ABU1@@Z 0046e210 f i rendermodel.obj
 0001:0006d880       ?accumulate@dualquat@@QAEXABU1@M@Z 0046e880 f i rendermodel.obj
 0001:0006d980       ?mul@dualquat@@QAEXABU1@0@Z 0046e980 f i rendermodel.obj
 0001:0006dc60       ??0matrix4@@QAE@ABUmatrix4x3@@@Z 0046ec60 f i rendermodel.obj
 0001:0006dcd0       ?mul@matrix4x3@@QAEXABU1@0@Z 0046ecd0 f i rendermodel.obj
 0001:0006e040       ??1model@@UAE@XZ           0046f040 f i rendermodel.obj
 0001:0006e0e0       ?preloadBIH@model@@UAEXXZ  0046f0e0 f i rendermodel.obj
 0001:0006e0f0       ?mul@matrix4@@QAEXABU1@ABUmatrix3@@@Z 0046f0f0 f i rendermodel.obj
 0001:0006e370       ?mul@matrix4@@QAEXABUmatrix3@@@Z 0046f370 f i rendermodel.obj
 0001:0006e3b0       ?setvariant_@Shader@@QAEXHHPAU1@@Z 0046f3b0 f i rendermodel.obj
 0001:0006e430       ?calcangleaxis@matrix3@@QBE_NMAAMAAUvec@@M@Z 0046f430 f i rendermodel.obj
 0001:0006e740       ?transposemul@matrix4x3@@QAEXABU1@0@Z 0046f740 f i rendermodel.obj
 0001:0006ea70       ?addblurtiles@rendertarget@@QAE_NMMMMM@Z 0046fa70 f i renderparticles.obj
 0001:0006ec10       ?debugscissor@rendertarget@@QAEXHH_N@Z 0046fc10 f i renderparticles.obj
 0001:0006ee80       ?debugblurtiles@rendertarget@@QAEXHH_N@Z 0046fe80 f i renderparticles.obj
 0001:0006f220       ??1partrenderer@@UAE@XZ    00470220 f i renderparticles.obj
 0001:0006f230       ?calc@partrenderer@@QAEXPAUparticle@@AAH1AAUvec@@2_N@Z 00470230 f i renderparticles.obj
 0001:0006f6b0       ?debuginfo@partrenderer@@QAEPBDXZ 004706b0 f i renderparticles.obj
 0001:0006f910       ??_Epartrenderer@@UAEPAXI@Z 00470910 f i * CIL library *:* CIL module *
 0001:0006f910       ??_Gpartrenderer@@UAEPAXI@Z 00470910 f i renderparticles.obj
 0001:0006f940       ??1listrenderer@@UAE@XZ    00470940 f i renderparticles.obj
 0001:0006f980       ?reset@listrenderer@@UAEXXZ 00470980 f i renderparticles.obj
 0001:0006f9e0       ?resettracked@listrenderer@@UAEXPAUphysent@@@Z 004709e0 f i renderparticles.obj
 0001:0006fa30       ?addpart@listrenderer@@UAEPAUparticle@@ABUvec@@0HHMH@Z 00470a30 f i renderparticles.obj
 0001:0006fc30       ?count@listrenderer@@UAEHXZ 00470c30 f i renderparticles.obj
 0001:0006fc50       ?haswork@listrenderer@@UAE_NXZ 00470c50 f i renderparticles.obj
 0001:0006fc60       ?render@listrenderer@@UAEXXZ 00470c60 f i renderparticles.obj
 0001:0006fd40       ??_Elistrenderer@@UAEPAXI@Z 00470d40 f i * CIL library *:* CIL module *
 0001:0006fd40       ??_Glistrenderer@@UAEPAXI@Z 00470d40 f i renderparticles.obj
 0001:0006fda0       ?startrender@meterrenderer@@UAEXXZ 00470da0 f i renderparticles.obj
 0001:0006fdc0       ?endrender@meterrenderer@@UAEXXZ 00470dc0 f i renderparticles.obj
 0001:0006fdd0       ?renderpart@meterrenderer@@UAEXPAUlistparticle@@ABUvec@@1HH@Z 00470dd0 f i renderparticles.obj
 0001:00074b60       ??_Etextrenderer@@UAEPAXI@Z 00475b60 f i * CIL library *:* CIL module *
 0001:00074b60       ??_Glightningrenderer@@UAEPAXI@Z 00475b60 f i renderparticles.obj
 0001:00074b60       ??_Gfireballrenderer@@UAEPAXI@Z 00475b60 f i renderparticles.obj
 0001:00074b60       ??_Efireballrenderer@@UAEPAXI@Z 00475b60 f i * CIL library *:* CIL module *
 0001:00074b60       ??_Elightningrenderer@@UAEPAXI@Z 00475b60 f i * CIL library *:* CIL module *
 0001:00074b60       ??_Gtextrenderer@@UAEPAXI@Z 00475b60 f i renderparticles.obj
 0001:00074b60       ??_Gmeterrenderer@@UAEPAXI@Z 00475b60 f i renderparticles.obj
 0001:00074b60       ??_Emeterrenderer@@UAEPAXI@Z 00475b60 f i * CIL library *:* CIL module *
 0001:00074bc0       ?killpart@textrenderer@@UAEXPAUlistparticle@@@Z 00475bc0 f i renderparticles.obj
 0001:00074be0       ?renderpart@textrenderer@@UAEXPAUlistparticle@@ABUvec@@1HH@Z 00475be0 f i renderparticles.obj
 0001:00074ef0       ?colorformats@depthfxtexture@@UBEPBIXZ 00475ef0 f i renderparticles.obj
 0001:00074f30       ?filter@depthfxtexture@@UBE_NXZ 00475f30 f i renderparticles.obj
 0001:00074f40       ?highprecision@depthfxtexture@@QBE_NXZ 00475f40 f i renderparticles.obj
 0001:00074f60       ?shouldrender@depthfxtexture@@UAE_NXZ 00475f60 f i renderparticles.obj
 0001:00074fc0       ?dorender@depthfxtexture@@UAE_NXZ 00475fc0 f i renderparticles.obj
 0001:00075080       ?dodebug@depthfxtexture@@UAEXHH@Z 00476080 f i renderparticles.obj
 0001:00075120       ?startrender@fireballrenderer@@UAEXXZ 00476120 f i renderparticles.obj
 0001:00075330       ?endrender@fireballrenderer@@UAEXXZ 00476330 f i renderparticles.obj
 0001:00075360       ?cleanup@fireballrenderer@@UAEXXZ 00476360 f i renderparticles.obj
 0001:000753b0       ?finddepthfxranges@fireballrenderer@@QAEHPAPAXPAMHHAAUvec@@2@Z 004763b0 f i renderparticles.obj
 0001:00075980       ?seedemitter@fireballrenderer@@UAEXAAUparticleemitter@@ABUvec@@1HMH@Z 00476980 f i renderparticles.obj
 0001:00075a30       ?renderpart@fireballrenderer@@UAEXPAUlistparticle@@ABUvec@@1HH@Z 00476a30 f i renderparticles.obj
 0001:000766c0       ?reset@flarerenderer@@UAEXXZ 004776c0 f i renderparticles.obj
 0001:000766d0       ?newflare@flarerenderer@@QAEXAAUvec@@ABU2@EEEMM_N2@Z 004776d0 f i renderparticles.obj
 0001:000767a0       ?addflare@flarerenderer@@QAEXAAUvec@@EEE_N1@Z 004777a0 f i renderparticles.obj
 0001:000769e0       ?makelightflares@flarerenderer@@QAEXXZ 004779e0 f i renderparticles.obj
 0001:00076c30       ?count@flarerenderer@@UAEHXZ 00477c30 f i renderparticles.obj
 0001:00076c40       ?haswork@flarerenderer@@UAE_NXZ 00477c40 f i renderparticles.obj
 0001:00076c70       ?render@flarerenderer@@UAEXXZ 00477c70 f i renderparticles.obj
 0001:00077320       ?addpart@flarerenderer@@UAEPAUparticle@@ABUvec@@0HHMH@Z 00478320 f i renderparticles.obj
 0001:00077330       ??_Gflarerenderer@@UAEPAXI@Z 00478330 f i renderparticles.obj
 0001:00077330       ??_Eflarerenderer@@UAEPAXI@Z 00478330 f i * CIL library *:* CIL module *
 0001:000773b0       ?startrender@lightningrenderer@@UAEXXZ 004783b0 f i renderparticles.obj
 0001:000773f0       ?endrender@lightningrenderer@@UAEXXZ 004783f0 f i renderparticles.obj
 0001:00077400       ?update@lightningrenderer@@UAEXXZ 00478400 f i renderparticles.obj
 0001:00077450       ?seedemitter@lightningrenderer@@UAEXAAUparticleemitter@@ABUvec@@1HMH@Z 00478450 f i renderparticles.obj
 0001:00077550       ?renderpart@lightningrenderer@@UAEXPAUlistparticle@@ABUvec@@1HH@Z 00478550 f i renderparticles.obj
 0001:000775d0       ?render@?$varenderer@$00@@UAEXXZ 004785d0 f i renderparticles.obj
 0001:000775d0       ?render@?$varenderer@$0A@@@UAEXXZ 004785d0 f i renderparticles.obj
 0001:000775d0       ?render@?$varenderer@$01@@UAEXXZ 004785d0 f i renderparticles.obj
 0001:00077730       ?update@?$varenderer@$01@@UAEXXZ 00478730 f i renderparticles.obj
 0001:000777e0       ?seedemitter@?$varenderer@$01@@UAEXAAUparticleemitter@@ABUvec@@1HMH@Z 004787e0 f i renderparticles.obj
 0001:00077ae0       ?addpart@?$varenderer@$0A@@@UAEPAUparticle@@ABUvec@@0HHMH@Z 00478ae0 f i renderparticles.obj
 0001:00077ae0       ?addpart@?$varenderer@$00@@UAEPAUparticle@@ABUvec@@0HHMH@Z 00478ae0 f i renderparticles.obj
 0001:00077ae0       ?addpart@?$varenderer@$01@@UAEPAUparticle@@ABUvec@@0HHMH@Z 00478ae0 f i renderparticles.obj
 0001:00077bd0       ?haswork@?$varenderer@$0A@@@UAE_NXZ 00478bd0 f i renderparticles.obj
 0001:00077bd0       ?haswork@?$varenderer@$00@@UAE_NXZ 00478bd0 f i renderparticles.obj
 0001:00077bd0       ?haswork@?$varenderer@$01@@UAE_NXZ 00478bd0 f i renderparticles.obj
 0001:00077be0       ?count@?$varenderer@$0A@@@UAEHXZ 00478be0 f i renderparticles.obj
 0001:00077be0       ?count@?$varenderer@$01@@UAEHXZ 00478be0 f i renderparticles.obj
 0001:00077be0       ?count@?$varenderer@$00@@UAEHXZ 00478be0 f i renderparticles.obj
 0001:00077bf0       ?resettracked@?$varenderer@$00@@UAEXPAUphysent@@@Z 00478bf0 f i renderparticles.obj
 0001:00077bf0       ?resettracked@?$varenderer@$0A@@@UAEXPAUphysent@@@Z 00478bf0 f i renderparticles.obj
 0001:00077bf0       ?resettracked@?$varenderer@$01@@UAEXPAUphysent@@@Z 00478bf0 f i renderparticles.obj
 0001:00077c50       ?reset@?$varenderer@$00@@UAEXXZ 00478c50 f i renderparticles.obj
 0001:00077c50       ?reset@?$varenderer@$01@@UAEXXZ 00478c50 f i renderparticles.obj
 0001:00077c50       ?reset@?$varenderer@$0A@@@UAEXXZ 00478c50 f i renderparticles.obj
 0001:00077c70       ?init@?$varenderer@$01@@UAEXH@Z 00478c70 f i renderparticles.obj
 0001:00077c70       ?init@?$varenderer@$0A@@@UAEXH@Z 00478c70 f i renderparticles.obj
 0001:00077c70       ?init@?$varenderer@$00@@UAEXH@Z 00478c70 f i renderparticles.obj
 0001:00077d70       ?cleanup@?$varenderer@$01@@UAEXXZ 00478d70 f i renderparticles.obj
 0001:00077d70       ?cleanup@?$varenderer@$0A@@@UAEXXZ 00478d70 f i renderparticles.obj
 0001:00077d70       ?cleanup@?$varenderer@$00@@UAEXXZ 00478d70 f i renderparticles.obj
 0001:00077da0       ?update@?$varenderer@$00@@UAEXXZ 00478da0 f i renderparticles.obj
 0001:00077e50       ?seedemitter@?$varenderer@$00@@UAEXAAUparticleemitter@@ABUvec@@1HMH@Z 00478e50 f i renderparticles.obj
 0001:000780d0       ?update@?$varenderer@$0A@@@UAEXXZ 004790d0 f i renderparticles.obj
 0001:00078180       ?seedemitter@?$varenderer@$0A@@@UAEXAAUparticleemitter@@ABUvec@@1HMH@Z 00479180 f i renderparticles.obj
 0001:000784f0       ??_G?$varenderer@$0A@@@UAEPAXI@Z 004794f0 f i renderparticles.obj
 0001:000784f0       ??_G?$varenderer@$00@@UAEPAXI@Z 004794f0 f i renderparticles.obj
 0001:000784f0       ??_E?$varenderer@$00@@UAEPAXI@Z 004794f0 f i * CIL library *:* CIL module *
 0001:000784f0       ??_G?$varenderer@$01@@UAEPAXI@Z 004794f0 f i renderparticles.obj
 0001:000784f0       ??_E?$varenderer@$01@@UAEPAXI@Z 004794f0 f i * CIL library *:* CIL module *
 0001:000784f0       ??_E?$varenderer@$0A@@@UAEPAXI@Z 004794f0 f i * CIL library *:* CIL module *
 0001:00078550       ?genverts@?$varenderer@$01@@QAEXXZ 00479550 f i renderparticles.obj
 0001:00078b10       ?genverts@?$varenderer@$00@@QAEXXZ 00479b10 f i renderparticles.obj
 0001:00078f40       ?genverts@?$varenderer@$0A@@@QAEXXZ 00479f40 f i renderparticles.obj
 0001:00079510       ?genverts@?$varenderer@$01@@QAEXPAUparticle@@PAUpartvert@@_N@Z 0047a510 f i renderparticles.obj
 0001:00079970       ?genverts@?$varenderer@$00@@QAEXPAUparticle@@PAUpartvert@@_N@Z 0047a970 f i renderparticles.obj
 0001:00079cb0       ?genverts@?$varenderer@$0A@@@QAEXPAUparticle@@PAUpartvert@@_N@Z 0047acb0 f i renderparticles.obj
 0001:0007a170       ??$concformatstring@$0BAE@@@YAXAAY0BAE@DPBDZZ 0047b170 f i renderparticles.obj
 0001:0007a1c0       ??1?$hashbase@U?$hashnameset@Ufont@@@@Ufont@@PBDU2@@@QAE@XZ 0047b1c0 f i rendertext.obj
 0001:0007a250       ?growbuf@?$vector@Unode@wpcache@ai@@@@QAEXH@Z 0047b250 f i waypoint.obj
 0001:0007a250       ?growbuf@?$vector@Ucharinfo@font@@@@QAEXH@Z 0047b250 f i rendertext.obj
 0001:0007a2e0       ??1chain@?$hashbase@U?$hashnameset@Ufont@@@@Ufont@@PBDU2@@@QAE@XZ 0047b2e0 f i rendertext.obj
 0001:0007a320       ??$access@PBD@?$hashbase@U?$hashnameset@Ufont@@@@Ufont@@PBDU2@@@QAEPAUfont@@ABQBD@Z 0047b320 f i rendertext.obj
 0001:0007a390       ?insert@?$hashbase@U?$hashnameset@Ufont@@@@Ufont@@PBDU2@@@QAEPAUchain@1@I@Z 0047b390 f i rendertext.obj
 0001:0007a560       ??0chain@?$hashbase@U?$hashnameset@Ufont@@@@Ufont@@PBDU2@@@QAE@XZ 0047b560 f i rendertext.obj
 0001:0007a5d0       ??1font@@QAE@XZ            0047b5d0 f i rendertext.obj
 0001:0007a660       ??0renderstate@@QAE@XZ     0047b660 f i renderva.obj
 0001:0007a720       ??0geombatch@@QAE@ABUelementset@@PAGPAUvtxarray@@@Z 0047b720 f i renderva.obj
 0001:0007a7b0       ?add@?$vector@Ugeombatch@@@@QAEAAUgeombatch@@ABU2@@Z 0047b7b0 f i renderva.obj
 0001:0007a8c0       ??9vec2@@QBE_NABU0@@Z      0047b8c0 f i renderva.obj
 0001:0007a8f0       ?setvariant@Shader@@QAEXHHAAUSlot@@AAUVSlot@@@Z 0047b8f0 f i renderva.obj
 0001:0007a930       ?getvariant@Shader@@QBEPAU1@HH@Z 0047b930 f i renderva.obj
 0001:0007a980       ??1?$hashbase@U?$hashnameset@UShader@@@@UShader@@PBDU2@@@QAE@XZ 0047b980 f i shader.obj
 0001:0007aa20       ??1?$hashbase@U?$hashtable@PBDH@@U?$hashtableentry@PBDH@@PBDH@@QAE@XZ 0047ba20 f i shader.obj
 0001:0007aa90       ??1?$hashbase@U?$hashnameset@UGlobalShaderParamState@@@@UGlobalShaderParamState@@PBDU2@@@QAE@XZ 0047ba90 f i shader.obj
 0001:0007ab00       ?growbuf@?$vector@UAttribLoc@@@@QAEXH@Z 0047bb00 f i shader.obj
 0001:0007ab90       ?growbuf@?$vector@UUniformLoc@@@@QAEXH@Z 0047bb90 f i shader.obj
 0001:0007ac20       ??1chain@?$hashbase@U?$hashnameset@UShader@@@@UShader@@PBDU2@@@QAE@XZ 0047bc20 f i shader.obj
 0001:0007ac60       ??$access@PAD@?$hashbase@U?$hashnameset@UShader@@@@UShader@@PBDU2@@@QAEPAUShader@@ABQAD@Z 0047bc60 f i shader.obj
 0001:0007ac60       ??$access@PBD@?$hashbase@U?$hashnameset@UShader@@@@UShader@@PBDU2@@@QAEPAUShader@@ABQBD@Z 0047bc60 f i shader.obj
 0001:0007acd0       ??$access@PBD@?$hashbase@U?$hashnameset@UGlobalShaderParamState@@@@UGlobalShaderParamState@@PBDU2@@@QAEPAUGlobalShaderParamState@@ABQBD@Z 0047bcd0 f i shader.obj
 0001:0007ad40       ??$?APAD@?$hashbase@U?$hashnameset@UShader@@@@UShader@@PBDU2@@@QAEAAUShader@@ABQAD@Z 0047bd40 f i shader.obj
 0001:0007adb0       ?insert@?$hashbase@U?$hashnameset@UShader@@@@UShader@@PBDU2@@@QAEPAUchain@1@I@Z 0047bdb0 f i shader.obj
 0001:0007af90       ?insert@?$hashbase@U?$hashtable@PBDH@@U?$hashtableentry@PBDH@@PBDH@@QAEPAUchain@1@I@Z 0047bf90 f i shader.obj
 0001:0007b0f0       ?insert@?$hashbase@U?$hashnameset@UGlobalShaderParamState@@@@UGlobalShaderParamState@@PBDU2@@@QAEPAUchain@1@I@Z 0047c0f0 f i shader.obj
 0001:0007b280       ??0chain@?$hashbase@U?$hashnameset@UShader@@@@UShader@@PBDU2@@@QAE@XZ 0047c280 f i shader.obj
 0001:0007b2c0       ??0Shader@@QAE@XZ          0047c2c0 f i shader.obj
 0001:0007b440       ??1Shader@@QAE@XZ          0047c440 f i shader.obj
 0001:0007b5f0       ?addvariant@Shader@@QAEXHPAU1@@Z 0047c5f0 f i shader.obj
 0001:0007b7e0       _fprintf                   0047c7e0 f i shader.obj
 0001:0007b800       ?colorformats@shadowmaptexture@@UBEPBIXZ 0047c800 f i shadowmap.obj
 0001:0007b830       ?scissorblur@shadowmaptexture@@UAE_NAAH000@Z 0047c830 f i shadowmap.obj
 0001:0007b9a0       ?scissorrender@shadowmaptexture@@UAE_NAAH000@Z 0047c9a0 f i shadowmap.obj
 0001:0007b9e0       ?doclear@shadowmaptexture@@UAEXXZ 0047c9e0 f i shadowmap.obj
 0001:0007ba20       ?dorender@shadowmaptexture@@UAE_NXZ 0047ca20 f i shadowmap.obj
 0001:0007c140       ?dodebug@shadowmaptexture@@UAEXHH@Z 0047d140 f i shadowmap.obj
 0001:0007c1a0       ??1MSlot@@QAE@XZ           0047d1a0 f i texture.obj
 0001:0007c220       ??1?$hashbase@U?$hashnameset@UTexture@@@@UTexture@@PBDU2@@@QAE@XZ 0047d220 f i texture.obj
 0001:0007c290       ??$?APAD@?$hashbase@U?$hashnameset@UTexture@@@@UTexture@@PBDU2@@@QAEAAUTexture@@ABQAD@Z 0047d290 f i texture.obj
 0001:0007c300       ??$access@PAD@?$hashbase@U?$hashnameset@UTexture@@@@UTexture@@PBDU2@@@QAEPAUTexture@@ABQAD@Z 0047d300 f i texture.obj
 0001:0007c370       ?insert@?$hashbase@U?$hashnameset@UTexture@@@@UTexture@@PBDU2@@@QAEPAUchain@1@I@Z 0047d370 f i texture.obj
 0001:0007c540       ?cleanup@Slot@@QAEXXZ      0047d540 f i texture.obj
 0001:0007c590       ??_GImageData@@QAEPAXI@Z   0047d590 f i texture.obj
 0001:0007c610       ?reset@Slot@@QAEXXZ        0047d610 f i texture.obj
 0001:0007c6b0       ??0Slot@@QAE@H@Z           0047d6b0 f i texture.obj
 0001:0007c750       ??1Slot@@QAE@XZ            0047d750 f i texture.obj
 0001:0007c7d0       ??0MSlot@@QAE@XZ           0047d7d0 f i texture.obj
 0001:0007c820       ?wrap@ImageData@@QAEXPAUSDL_Surface@@@Z 0047d820 f i texture.obj
 0001:0007c8a0       ?replace@ImageData@@QAEXAAU1@@Z 0047d8a0 f i texture.obj
 0001:0007c920       ??0Reflection@@QAE@XZ      0047d920 f i water.obj
 0001:0007c9b0       ??1Reflection@@QAE@XZ      0047d9b0 f i water.obj
 0001:0007ca00       ?reserve@?$vector@I@@QAE?AU?$databuf@I@@H@Z 0047da00 f i command.obj
 0001:0007ca40       ??1?$hashbase@U?$hashnameset@Uident@@@@Uident@@PBDU2@@@QAE@XZ 0047da40 f i command.obj
 0001:0007cab0       ?shrink@?$vector@I@@QAEXH@Z 0047dab0 f i command.obj
 0001:0007cac0       ??$access@PBD@?$hashbase@U?$hashnameset@Uident@@@@Uident@@PBDU2@@@QAEPAUident@@ABQBD@Z 0047dac0 f i command.obj
 0001:0007cac0       ??$access@PAD@?$hashbase@U?$hashnameset@Uident@@@@Uident@@PBDU2@@@QAEPAUident@@ABQAD@Z 0047dac0 f i command.obj
 0001:0007cb30       ?insert@?$hashbase@U?$hashnameset@Uident@@@@Uident@@PBDU2@@@QAEPAUchain@1@I@Z 0047db30 f i command.obj
 0001:0007cce0       ?getval@ident@@QBEXAAUtagval@@@Z 0047dce0 f i command.obj
 0001:0007cd90       ?getfloat@ident@@QBEMXZ    0047dd90 f i command.obj
 0001:0007cde0       ?getint@ident@@QBEHXZ      0047dde0 f i command.obj
 0001:0007ce30       ?getstr@ident@@QBEPBDXZ    0047de30 f i command.obj
 0001:0007ce80       ?setstr@tagval@@QAEXPAD@Z  0047de80 f i command.obj
 0001:0007ce90       ?setint@tagval@@QAEXH@Z    0047de90 f i command.obj
 0001:0007cea0       ?setfloat@tagval@@QAEXM@Z  0047dea0 f i command.obj
 0001:0007ceb0       ??1keym@@QAE@XZ            0047deb0 f i console.obj
 0001:0007cf20       ?restore@hline@@QAEXXZ     0047df20 f i console.obj
 0001:0007d020       ?run@hline@@QAEXXZ         0047e020 f i console.obj
 0001:0007d080       ??1?$hashbase@U?$hashtable@PADPAUfilesval@@@@U?$hashtableentry@PADPAUfilesval@@@@PADPAUfilesval@@@@QAE@XZ 0047e080 f i console.obj
 0001:0007d0f0       ??1?$hashbase@U?$hashtable@Ufileskey@@PAUfilesval@@@@U?$hashtableentry@Ufileskey@@PAUfilesval@@@@Ufileskey@@PAUfilesval@@@@QAE@XZ 0047e0f0 f i console.obj
 0001:0007d160       ??1?$hashbase@U?$hashtable@HUkeym@@@@U?$hashtableentry@HUkeym@@@@HUkeym@@@@QAE@XZ 0047e160 f i console.obj
 0001:0007d1b0       ?deletechunks@?$hashbase@U?$hashtable@HUkeym@@@@U?$hashtableentry@HUkeym@@@@HUkeym@@@@QAEXXZ 0047e1b0 f i console.obj
 0001:0007d230       ??1chain@?$hashbase@U?$hashtable@HUkeym@@@@U?$hashtableentry@HUkeym@@@@HUkeym@@@@QAE@XZ 0047e230 f i console.obj
 0001:0007d280       ??1?$hashtableentry@HUkeym@@@@QAE@XZ 0047e280 f i console.obj
 0001:0007d2c0       ??$access@PAD@?$hashbase@U?$hashtable@PADPAUfilesval@@@@U?$hashtableentry@PADPAUfilesval@@@@PADPAUfilesval@@@@QAEPAPAUfilesval@@ABQAD@Z 0047e2c0 f i console.obj
 0001:0007d330       ??$?APAD@?$hashbase@U?$hashtable@PADPAUfilesval@@@@U?$hashtableentry@PADPAUfilesval@@@@PADPAUfilesval@@@@QAEAAPAUfilesval@@ABQAD@Z 0047e330 f i console.obj
 0001:0007d3b0       ?insert@?$hashbase@U?$hashtable@Ufileskey@@PAUfilesval@@@@U?$hashtableentry@Ufileskey@@PAUfilesval@@@@Ufileskey@@PAUfilesval@@@@QAEPAUchain@1@I@Z 0047e3b0 f i console.obj
 0001:0007d550       ?insert@?$hashbase@U?$hashtable@HUkeym@@@@U?$hashtableentry@HUkeym@@@@HUkeym@@@@QAEPAUchain@1@I@Z 0047e550 f i console.obj
 0001:0007d710       ??0chain@?$hashbase@U?$hashtable@HUkeym@@@@U?$hashtableentry@HUkeym@@@@HUkeym@@@@QAE@XZ 0047e710 f i console.obj
 0001:0007d7b0       ?remove@?$vector@TSDL_Event@@@@QAE?ATSDL_Event@@H@Z 0047e7b0 f i main.obj
 0001:0007d860       ?add@?$vector@TSDL_Event@@@@QAEAATSDL_Event@@ABT2@@Z 0047e860 f i main.obj
 0001:0007d980       ??$formatstring@$0CAA@@@YAXAAY0CAA@DPBDZZ 0047e980 f i main.obj
 0001:0007d9c0       ??$concformatstring@$0CAA@@@YAXAAY0CAA@DPBDZZ 0047e9c0 f i main.obj
 0001:0007da10       ?gui@menu@@UAEXAAUg3d_gui@@_N@Z 0047ea10 f i menus.obj
 0001:0007da90       ?clear@menu@@UAEXXZ        0047ea90 f i menus.obj
 0001:0007dab0       ??1menu@@UAE@XZ            0047eab0 f i menus.obj
 0001:0007daf0       ?schedule@delayedupdate@@QAEXPBD@Z 0047eaf0 f i menus.obj
 0001:0007db40       ?getstring@delayedupdate@@QBEPBDXZ 0047eb40 f i menus.obj
 0001:0007db90       ?gui@applymenu@@UAEXAAUg3d_gui@@_N@Z 0047eb90 f i menus.obj
 0001:0007df00       ?clear@applymenu@@UAEXXZ   0047ef00 f i menus.obj
 0001:0007df30       ??_Eapplymenu@@UAEPAXI@Z   0047ef30 f i * CIL library *:* CIL module *
 0001:0007df30       ??_Gapplymenu@@UAEPAXI@Z   0047ef30 f i menus.obj
 0001:0007df80       ?shrink@?$vector@Udelayedupdate@@@@QAEXH@Z 0047ef80 f i menus.obj
 0001:0007dfe0       ?add@?$vector@Udelayedupdate@@@@QAEAAUdelayedupdate@@XZ 0047efe0 f i menus.obj
 0001:0007e0f0       ?add@?$vector@PAUmenu@@@@QAEAAPAUmenu@@ABQAU2@@Z 0047f0f0 f i menus.obj
 0001:0007e1e0       ??1?$hashbase@U?$hashnameset@Umenu@@@@Umenu@@PBDU2@@@QAE@XZ 0047f1e0 f i menus.obj
 0001:0007e270       ??1chain@?$hashbase@U?$hashnameset@Umenu@@@@Umenu@@PBDU2@@@QAE@XZ 0047f270 f i menus.obj
 0001:0007e2c0       ??$access@PBD@?$hashbase@U?$hashnameset@Umenu@@@@Umenu@@PBDU2@@@QAEPAUmenu@@ABQBD@Z 0047f2c0 f i menus.obj
 0001:0007e330       ?insert@?$hashbase@U?$hashnameset@Umenu@@@@Umenu@@PBDU2@@@QAEPAUchain@1@I@Z 0047f330 f i menus.obj
 0001:0007e4f0       ??0chain@?$hashbase@U?$hashnameset@Umenu@@@@Umenu@@PBDU2@@@QAE@XZ 0047f4f0 f i menus.obj
 0001:0007e570       ?addindex@aviwriter@@QAEAAUaviindexentry@@HHH@Z 0047f570 f i movie.obj
 0001:0007e710       ?startchunk@aviwriter@@QAEXPBDI@Z 0047f710 f i movie.obj
 0001:0007e770       ?listchunk@aviwriter@@QAEXPBD0@Z 0047f770 f i movie.obj
 0001:0007e7e0       ?endlistchunk@aviwriter@@QAEXXZ 0047f7e0 f i movie.obj
 0001:0007e850       ?writechunk@aviwriter@@QAEXPBDPBXI@Z 0047f850 f i movie.obj
 0001:0007e8b0       ?close@aviwriter@@QAEXXZ   0047f8b0 f i movie.obj
 0001:0007ec20       ??0aviwriter@@QAE@PBDIII_N@Z 0047fc20 f i movie.obj
 0001:0007ee20       ?open@aviwriter@@QAE_NXZ   0047fe20 f i movie.obj
 0001:0007fbe0       ?boxsample@aviwriter@@SAXPBEIIIIIIIIAAI11@Z 00480be0 f i movie.obj
 0001:0007fff0       ?scaleyuv@aviwriter@@QAEXPBEII@Z 00480ff0 f i movie.obj
 0001:00080550       ?encodeyuv@aviwriter@@QAEXPBE@Z 00481550 f i movie.obj
 0001:00080820       ?compressyuv@aviwriter@@QAEXPBE@Z 00481820 f i movie.obj
 0001:000809d0       ?writesound@aviwriter@@QAE_NPAEII@Z 004819d0 f i movie.obj
 0001:00080bf0       ?flushsegment@aviwriter@@QAEXXZ 00481bf0 f i movie.obj
 0001:00081090       ?nextsegment@aviwriter@@QAE_NXZ 00482090 f i movie.obj
 0001:00081220       ?writevideoframe@aviwriter@@QAE_NPBEIIHI@Z 00482220 f i movie.obj
 0001:00081330       ??0soundbuffer@recorder@@QAE@XZ 00482330 f i movie.obj
 0001:00081340       ??1soundbuffer@recorder@@QAE@XZ 00482340 f i movie.obj
 0001:00081390       ?init@videobuffer@recorder@@QAEXHHH@Z 00482390 f i movie.obj
 0001:000813f0       ??_Gaviwriter@@QAEPAXI@Z   004823f0 f i movie.obj
 0001:000814b0       ?addslot@soundtype@@QAEHPBDH@Z 004824b0 f i sound.obj
 0001:00081700       ?addsound@soundtype@@QAEHPBDHH@Z 00482700 f i sound.obj
 0001:000817d0       ?reset@soundtype@@QAEXXZ   004827d0 f i sound.obj
 0001:00081870       ?playing@soundtype@@QBE_NABUsoundchannel@@ABUsoundconfig@@@Z 00482870 f i sound.obj
 0001:000818b0       ??1soundtype@@QAE@XZ       004828b0 f i sound.obj
 0001:00081930       ??1?$hashbase@U?$hashnameset@Usoundsample@@@@Usoundsample@@PBDU2@@@QAE@XZ 00482930 f i sound.obj
 0001:00081980       ?inrange@?$vector@Usoundchannel@@@@QBE_NH@Z 00482980 f i sound.obj
 0001:000819a0       ?deletechunks@?$hashbase@U?$hashnameset@Usoundsample@@@@Usoundsample@@PBDU2@@@QAEXXZ 004829a0 f i sound.obj
 0001:00081a20       ??1chain@?$hashbase@U?$hashnameset@Usoundsample@@@@Usoundsample@@PBDU2@@@QAE@XZ 00482a20 f i sound.obj
 0001:00081a20       ??1chain@?$hashbase@U?$hashnameset@Uzipfile@@@@Uzipfile@@PBDU2@@@QAE@XZ 00482a20 f i zip.obj
 0001:00081a70       ?insert@?$hashbase@U?$hashnameset@Usoundsample@@@@Usoundsample@@PBDU2@@@QAEPAUchain@1@I@Z 00482a70 f i sound.obj
 0001:00081c20       ??0chain@?$hashbase@U?$hashnameset@Usoundsample@@@@Usoundsample@@PBDU2@@@QAE@XZ 00482c20 f i sound.obj
 0001:00081c60       ?invert@gfield@@QAE_NABU1@@Z 00482c60 f i crypto.obj
 0001:00082640       ?sqrt@gfield@@QAE_NABU1@@Z 00483640 f i crypto.obj
 0001:000828f0       ?mul2@ecjacobian@@QAEXXZ   004838f0 f i crypto.obj
 0001:00082bd0       ?add@ecjacobian@@QAEXABU1@@Z 00483bd0 f i crypto.obj
 0001:00082ed0       ?normalize@ecjacobian@@QAEXXZ 00483ed0 f i crypto.obj
 0001:00082f50       ?parse@ecjacobian@@QAEXPBD@Z 00483f50 f i crypto.obj
 0001:00083040       ?rshift@?$bigint@$0N@@@QAEAAU1@H@Z 00484040 f i crypto.obj
 0001:00083150       ?printdigits@?$bigint@$0N@@@QBEXAAU?$vector@D@@@Z 00484150 f i crypto.obj
 0001:000831f0       ?parse@?$bigint@$0N@@@QAEXPBD@Z 004841f0 f i crypto.obj
 0001:000832f0       ??$add@$0N@$0N@@?$bigint@$0N@@@QAEAAU0@ABU0@0@Z 004842f0 f i crypto.obj
 0001:000833b0       ??$?M$0N@@?$bigint@$0N@@@QBE_NABU0@@Z 004843b0 f i crypto.obj
 0001:00083400       ??$sub@$0N@$0N@@?$bigint@$0N@@@QAEAAU0@ABU0@0@Z 00484400 f i crypto.obj
 0001:000834c0       ??$pow@$0N@$0N@@gfield@@QAEAAU0@ABU?$bigint@$0N@@@0@Z 004844c0 f i crypto.obj
 0001:00083570       ??$sub@$0N@$0N@@gfield@@QAEAAU0@ABU?$bigint@$0N@@@0@Z 00484570 f i crypto.obj
 0001:000835d0       ??$mul@$0N@$0N@@gfield@@QAEAAU0@ABU?$bigint@$0N@@@0@Z 004845d0 f i crypto.obj
 0001:000836f0       ??$add@$0N@$0N@@gfield@@QAEAAU0@ABU?$bigint@$0N@@@0@Z 004846f0 f i crypto.obj
 0001:00083760       ??$mul@$0N@@ecjacobian@@QAEXABU?$bigint@$0N@@@@Z 00484760 f i crypto.obj
 0001:00083840       ?numbits@?$bigint@$0N@@@QBEHXZ 00484840 f i crypto.obj
 0001:00083890       ??$reduce@$0BK@@gfield@@QAEXABU?$bigint@$0BK@@@@Z 00484890 f i crypto.obj
 0001:00083a60       ??$copybits@$0BK@@?$bigint@$0N@@@QAEXHABU?$bigint@$0BK@@@HH@Z 00484a60 f i crypto.obj
 0001:00083ae0       ?close@filestream@@UAEXXZ  00484ae0 f i stream.obj
 0001:00083b00       ?end@filestream@@UAE_NXZ   00484b00 f i stream.obj
 0001:00083b20       ?tell@filestream@@UAE_JXZ  00484b20 f i stream.obj
 0001:00083b50       ?seek@filestream@@UAE_N_JH@Z 00484b50 f i stream.obj
 0001:00083b70       ?read@filestream@@UAEIPAXI@Z 00484b70 f i stream.obj
 0001:00083b90       ?write@filestream@@UAEIPBXI@Z 00484b90 f i stream.obj
 0001:00083bb0       ?flush@filestream@@UAE_NXZ 00484bb0 f i stream.obj
 0001:00083bd0       ?getchar@filestream@@UAEHXZ 00484bd0 f i stream.obj
 0001:00083be0       ?putchar@filestream@@UAE_NH@Z 00484be0 f i stream.obj
 0001:00083c00       ?getline@filestream@@UAE_NPADI@Z 00484c00 f i stream.obj
 0001:00083c20       ?putstring@filestream@@UAE_NPBD@Z 00484c20 f i stream.obj
 0001:00083c40       ?printf@filestream@@UAAIPBDZZ 00484c40 f i stream.obj
 0001:00083c80       ??_Gfilestream@@UAEPAXI@Z  00484c80 f i stream.obj
 0001:00083c80       ??_Efilestream@@UAEPAXI@Z  00484c80 f i * CIL library *:* CIL module *
 0001:00083d00       ?readbyte@gzstream@@QAEEI@Z 00484d00 f i stream.obj
 0001:00083d50       ?skipbytes@gzstream@@QAEXI@Z 00484d50 f i stream.obj
 0001:00083d90       ?checkheader@gzstream@@QAE_NXZ 00484d90 f i stream.obj
 0001:00083f70       ?open@gzstream@@QAE_NPAUstream@@PBD_NH@Z 00484f70 f i stream.obj
 0001:000840b0       ?getcrc@gzstream@@UAEIXZ   004850b0 f i stream.obj
 0001:000840c0       ?finishreading@gzstream@@QAEXXZ 004850c0 f i stream.obj
 0001:000841d0       ?stopreading@gzstream@@QAEXXZ 004851d0 f i stream.obj
 0001:000841f0       ?stopwriting@gzstream@@QAEXXZ 004851f0 f i stream.obj
 0001:00084210       ?close@gzstream@@UAEXXZ    00485210 f i stream.obj
 0001:00084360       ?end@gzstream@@UAE_NXZ     00485360 f i stream.obj
 0001:00084380       ?tell@gzstream@@UAE_JXZ    00485380 f i stream.obj
 0001:000843a0       ?rawtell@gzstream@@UAE_JXZ 004853a0 f i stream.obj
 0001:000843c0       ?size@gzstream@@UAE_JXZ    004853c0 f i stream.obj
 0001:00084460       ?rawsize@gzstream@@UAE_JXZ 00485460 f i stream.obj
 0001:00084480       ?seek@gzstream@@UAE_N_JH@Z 00485480 f i stream.obj
 0001:000846b0       ?read@gzstream@@UAEIPAXI@Z 004856b0 f i stream.obj
 0001:00084790       ?flush@gzstream@@UAE_NXZ   00485790 f i stream.obj
 0001:00084800       ?write@gzstream@@UAEIPBXI@Z 00485800 f i stream.obj
 0001:000848c0       ??_Ggzstream@@UAEPAXI@Z    004858c0 f i stream.obj
 0001:000848c0       ??_Egzstream@@UAEPAXI@Z    004858c0 f i * CIL library *:* CIL module *
 0001:00084930       ?readbuf@utf8stream@@QAE_NI@Z 00485930 f i stream.obj
 0001:00084a10       ?checkheader@utf8stream@@QAE_NXZ 00485a10 f i stream.obj
 0001:00084a50       ?close@utf8stream@@UAEXXZ  00485a50 f i stream.obj
 0001:00084a90       ?end@utf8stream@@UAE_NXZ   00485a90 f i stream.obj
 0001:00084ab0       ?tell@utf8stream@@UAE_JXZ  00485ab0 f i stream.obj
 0001:00084ad0       ?seek@utf8stream@@UAE_N_JH@Z 00485ad0 f i stream.obj
 0001:00084c80       ?read@utf8stream@@UAEIPAXI@Z 00485c80 f i stream.obj
 0001:00084d10       ?getline@utf8stream@@UAE_NPADI@Z 00485d10 f i stream.obj
 0001:00084de0       ?write@utf8stream@@UAEIPBXI@Z 00485de0 f i stream.obj
 0001:00085010       ?flush@utf8stream@@UAE_NXZ 00486010 f i stream.obj
 0001:00085020       ??_Gutf8stream@@UAEPAXI@Z  00486020 f i stream.obj
 0001:00085020       ??_Eutf8stream@@UAEPAXI@Z  00486020 f i * CIL library *:* CIL module *
 0001:000850b0       ??_Gstream@@UAEPAXI@Z      004860b0 f i stream.obj
 0001:000850b0       ??_Estream@@UAEPAXI@Z      004860b0 f i * CIL library *:* CIL module *
 0001:000850e0       ?rawtell@stream@@UAE_JXZ   004860e0 f i stream.obj
 0001:000850f0       ?rawsize@stream@@UAE_JXZ   004860f0 f i stream.obj
 0001:00085100       ?getchar@stream@@UAEHXZ    00486100 f i stream.obj
 0001:00085120       ?putstring@stream@@UAE_NPBD@Z 00486120 f i stream.obj
 0001:00085150       ?putchar@stream@@UAE_NH@Z  00486150 f i stream.obj
 0001:00085170       ?putline@stream@@UAE_NPBD@Z 00486170 f i stream.obj
 0001:000851a0       ??1stream@@UAE@XZ          004861a0 f i stream.obj
 0001:000851b0       ?tell@stream@@UAE_JXZ      004861b0 f i stream.obj
 0001:000851c0       ?seek@stream@@UAE_N_JH@Z   004861c0 f i stream.obj
 0001:000851d0       ?put@packetbuf@@QAEXABE@Z  004861d0 f i tools.obj
 0001:00085240       ??1?$hashnameset@Uzipfile@@@@QAE@XZ 00486240 f i zip.obj
 0001:00085280       ?stopreading@zipstream@@QAEXXZ 00486280 f i zip.obj
 0001:000852f0       ?close@zipstream@@UAEXXZ   004862f0 f i zip.obj
 0001:00085330       ?size@zipstream@@UAE_JXZ   00486330 f i zip.obj
 0001:00085340       ?end@zipstream@@UAE_NXZ    00486340 f i zip.obj
 0001:00085360       ?tell@zipstream@@UAE_JXZ   00486360 f i zip.obj
 0001:00085390       ?seek@zipstream@@UAE_N_JH@Z 00486390 f i zip.obj
 0001:000855a0       ?read@zipstream@@UAEIPAXI@Z 004865a0 f i zip.obj
 0001:00085760       ??_Gzipstream@@UAEPAXI@Z   00486760 f i zip.obj
 0001:00085760       ??_Ezipstream@@UAEPAXI@Z   00486760 f i * CIL library *:* CIL module *
 0001:00085800       ??1?$vector@Uzipfile@@@@QAE@XZ 00486800 f i zip.obj
 0001:00085870       ??1?$hashbase@U?$hashnameset@Uzipfile@@@@Uzipfile@@PBDU2@@@QAE@XZ 00486870 f i zip.obj
 0001:00085900       ?insert@?$hashbase@U?$hashnameset@Uzipfile@@@@Uzipfile@@PBDU2@@@QAEPAUchain@1@I@Z 00486900 f i zip.obj
 0001:00085ab0       ??0chain@?$hashbase@U?$hashnameset@Uzipfile@@@@Uzipfile@@PBDU2@@@QAE@XZ 00486ab0 f i zip.obj
 0001:00085b10       ??1avoidset@ai@@QAE@XZ     00486b10 f i ai.obj
 0001:00085b90       ?add@?$vector@Uinterest@ai@@@@QAEAAUinterest@ai@@XZ 00486b90 f i ai.obj
 0001:00085c70       ?abovehead@dynent@@QAE?AUvec@@XZ 00486c70 f i ai.obj
 0001:00085cb0       ?add@avoidset@ai@@QAEXPAXM@Z 00486cb0 f i ai.obj
 0001:00085d80       ?add@avoidset@ai@@QAEXAAU12@@Z 00486d80 f i ai.obj
 0001:00085f60       ?addprevnode@aiinfo@ai@@QAEXH@Z 00486f60 f i ai.obj
 0001:00085f90       ?canpickup@fpsstate@@QAE_NH@Z 00486f90 f i ai.obj
 0001:00086010       ?switchstate@aiinfo@ai@@QAEAAUaistate@2@AAU32@HHH@Z 00487010 f i ai.obj
 0001:00086070       ?find@avoidset@ai@@QBE_NHPAUfpsent@@@Z 00487070 f i ai.obj
 0001:000860f0       ??_Gaiinfo@ai@@QAEPAXI@Z   004870f0 f i ai.obj
 0001:00086180       ?clearsetup@aiinfo@ai@@QAEXXZ 00487180 f i ai.obj
 0001:00086240       ?addstate@aiinfo@ai@@QAEAAUaistate@2@HHH@Z 00487240 f i ai.obj
 0001:00086340       ?reset@aiinfo@ai@@QAEX_N@Z 00487340 f i ai.obj
 0001:000863b0       ?pickup@fpsstate@@QAEXH@Z  004873b0 f i entities.obj
 0001:00086470       ?buttonf@g3d_gui@@QAAHPBDH0ZZ 00487470 f i fps.obj
 0001:00086510       ??1fpsent@@QAE@XZ          00487510 f i fps.obj
 0001:00086640       ??0dynent@@QAE@XZ          00487640 f i fps.obj
 0001:000868a0       ??1dynent@@QAE@XZ          004878a0 f i fps.obj
 0001:000868c0       ??0fpsent@@QAE@XZ          004878c0 f i fps.obj
 0001:00086a50       ?spawnstate@fpsstate@@QAEXH@Z 00487a50 f i fps.obj
 0001:00086c80       ?respawn@fpsent@@QAEXXZ    00487c80 f i fps.obj
 0001:00086de0       ??0monster@game@@QAE@HHHHHH@Z 00487de0 f i monster.obj
 0001:00087030       ?normalize_yaw@monster@game@@QAEXM@Z 00488030 f i monster.obj
 0001:000870a0       ?transition@monster@game@@QAEXHHHH@Z 004880a0 f i monster.obj
 0001:00087110       ?monsteraction@monster@game@@QAEXH@Z 00488110 f i monster.obj
 0001:00087910       ?monsterpain@monster@game@@QAEXHPAUfpsent@@@Z 00488910 f i monster.obj
 0001:00087af0       ?add@?$vector@PAUmonster@game@@@@QAEAAPAUmonster@game@@ABQAU23@@Z 00488af0 f i monster.obj
 0001:00087bd0       ??0movable@game@@QAE@ABUentity@@@Z 00488bd0 f i movable.obj
 0001:00087e10       ?explode@movable@game@@QAEXPAUdynent@@@Z 00488e10 f i movable.obj
 0001:00087e40       ??$htfind@$$BY0BAE@D@?$vector@PBD@@QAEHAAY0BAE@$$CBD@Z 00488e40 f i render.obj
 0001:00087e80       ?show@scoreboardgui@game@@QAEX_N@Z 00488e80 f i scoreboard.obj
 0001:00087f50       ?gui@scoreboardgui@game@@UAEXAAUg3d_gui@@_N@Z 00488f50 f i scoreboard.obj
 0001:00087f80       ??_Escoreboardgui@game@@UAEPAXI@Z 00488f80 f i * CIL library *:* CIL module *
 0001:00087f80       ??_Gscoreboardgui@game@@UAEPAXI@Z 00488f80 f i scoreboard.obj
 0001:00087fd0       ?deletechunks@?$hashbase@U?$hashset@Uteaminfo@@@@Uteaminfo@@U2@U2@@@QAEXXZ 00488fd0 f i scoreboard.obj
 0001:00088010       ??$access@PBD@?$hashbase@U?$hashset@Uteaminfo@@@@Uteaminfo@@U2@U2@@@QAEPAUteaminfo@@ABQBD@Z 00489010 f i scoreboard.obj
 0001:00088070       ??$?APBD@?$hashbase@U?$hashset@Uteaminfo@@@@Uteaminfo@@U2@U2@@@QAEAAUteaminfo@@ABQBD@Z 00489070 f i scoreboard.obj
 0001:000880e0       ??$access@$$BY0BAE@D@?$hashbase@U?$hashset@Uteaminfo@@@@Uteaminfo@@U2@U2@@@QAEPAUteaminfo@@AAY0BAE@$$CBD@Z 004890e0 f i scoreboard.obj
 0001:00088150       ?insert@?$hashbase@U?$hashset@Uteaminfo@@@@Uteaminfo@@U2@U2@@@QAEPAUchain@1@I@Z 00489150 f i scoreboard.obj
 0001:000882a0       ?textf@g3d_gui@@QAAHPBDH0ZZ 004892a0 f i scoreboard.obj
 0001:00088340       ?titlef@g3d_gui@@QAAHPBDH0ZZ 00489340 f i scoreboard.obj
 0001:000883e0       ?compare@teamscore@@SA_NABU1@0@Z 004893e0 f i scoreboard.obj
 0001:00088410       ??0wpcache@ai@@QAE@XZ      00489410 f i waypoint.obj
 0001:000884b0       ?build@wpcache@ai@@QAEXPAHHABUvec@@1@Z 004894b0 f i waypoint.obj
 0001:00088b50       ?upheap@?$vector@PAUwaypoint@ai@@@@QAEHH@Z 00489b50 f i waypoint.obj
 0001:00088bc0       ?add@?$vector@PAUwaypoint@ai@@@@QAEAAPAUwaypoint@ai@@ABQAU23@@Z 00489bc0 f i waypoint.obj
 0001:00088cb0       ?add@?$vector@PAUnode@wpcache@ai@@@@QAEAAPAUnode@wpcache@ai@@ABQAU234@@Z 00489cb0 f i waypoint.obj
 0001:00088d90       ?add@?$vector@Uwaypoint@ai@@@@QAEAAUwaypoint@ai@@ABU23@@Z 00489d90 f i waypoint.obj
 0001:00088e90       ??0waypoint@ai@@QAE@ABUvec@@H@Z 00489e90 f i waypoint.obj
 0001:00088ed0       ?find@waypoint@ai@@QAEHH@Z 00489ed0 f i waypoint.obj
 0001:00088f00       ?offsetpos@bouncer@game@@QAE?AUvec@@XZ 00489f00 f i weapon.obj
 0001:00088fc0       ?limitoffset@bouncer@game@@QAEXXZ 00489fc0 f i weapon.obj
 0001:00089080       ?remove@?$vector@Uprojectile@game@@@@QAE?AUprojectile@game@@H@Z 0048a080 f i weapon.obj
 0001:00089100       ?remove@?$vector@PAUbouncer@game@@@@QAEPAUbouncer@game@@H@Z 0048a100 f i weapon.obj
 0001:00089150       ?hitpush@fpsent@@QAEXHABUvec@@PAU1@H@Z 0048a150 f i weapon.obj
 0001:00089210       ?safenormalize@vec@@QAEAAU1@XZ 0048a210 f i weapon.obj
 0001:00089280       ?getteamscore@captureservmode@server@@UAEHPBD@Z 0048a280 f i server1.obj
 0001:00089280       ?getteamscore@captureclientmode@game@@UAEHPBD@Z 0048a280 f i client1.obj
 0001:000892d0       ?getteamscores@captureservmode@server@@UAEXAAU?$vector@Uteamscore@@@@@Z 0048a2d0 f i server1.obj
 0001:000892d0       ?getteamscores@captureclientmode@game@@UAEXAAU?$vector@Uteamscore@@@@@Z 0048a2d0 f i client1.obj
 0001:000893e0       ?initbase@captureclientmode@game@@QAEXHHPBD0HH@Z 0048a3e0 f i client1.obj
 0001:00089480       ?insidebase@captureclientmode@game@@QAE_NABUbaseinfo@12@ABUvec@@@Z 0048a480 f i client1.obj
 0001:00089500       ?receiveammo@captureclientmode@game@@QAEXPAUfpsent@@H@Z 0048a500 f i client1.obj
 0001:000895d0       ?checkitems@captureclientmode@game@@UAEXPAUfpsent@@@Z 0048a5d0 f i client1.obj
 0001:000897f0       ?rendertether@captureclientmode@game@@QAEXPAUfpsent@@@Z 0048a7f0 f i client1.obj
 0001:00089c50       ?preload@captureclientmode@game@@UAEXXZ 0048ac50 f i client1.obj
 0001:00089d70       ?rendergame@captureclientmode@game@@UAEXXZ 0048ad70 f i client1.obj
 0001:0008a4d0       ?drawblips@captureclientmode@game@@QAEXPAUfpsent@@MHHH_N@Z 0048b4d0 f i client1.obj
 0001:0008aad0       ?respawnwait@captureclientmode@game@@UAEHPAUfpsent@@@Z 0048bad0 f i client1.obj
 0001:0008ab30       ?clipconsole@collectclientmode@game@@UAEHHH@Z 0048bb30 f i client1.obj
 0001:0008ab30       ?clipconsole@captureclientmode@game@@UAEHHH@Z 0048bb30 f i client1.obj
 0001:0008ab30       ?clipconsole@ctfclientmode@game@@UAEHHH@Z 0048bb30 f i client1.obj
 0001:0008ab50       ?drawhud@captureclientmode@game@@UAEXPAUfpsent@@HH@Z 0048bb50 f i client1.obj
 0001:0008b1e0       ?setup@captureclientmode@game@@UAEXXZ 0048c1e0 f i client1.obj
 0001:0008b550       ?senditems@captureclientmode@game@@UAEXAAUpacketbuf@@@Z 0048c550 f i client1.obj
 0001:0008b930       ?updatebase@captureclientmode@game@@QAEXHPBD0HH@Z 0048c930 f i client1.obj
 0001:0008bc70       ?setscore@captureclientmode@game@@QAEXHPBDH@Z 0048cc70 f i client1.obj
 0001:0008bee0       ?closesttoenemy@captureclientmode@game@@QAEHPBD_N1@Z 0048cee0 f i client1.obj
 0001:0008c0f0       ?pickspawn@captureclientmode@game@@UAEXPAUfpsent@@@Z 0048d0f0 f i client1.obj
 0001:0008c280       ?aicheck@clientmode@game@@UAE_NPAUfpsent@@AAUaistate@ai@@@Z 0048d280 f i client1.obj
 0001:0008c280       ?aicheck@captureclientmode@game@@UAE_NPAUfpsent@@AAUaistate@ai@@@Z 0048d280 f i client1.obj
 0001:0008c280       ?aipursue@clientmode@game@@UAE_NPAUfpsent@@AAUaistate@ai@@@Z 0048d280 f i client1.obj
 0001:0008c280       ?aidefend@clientmode@game@@UAE_NPAUfpsent@@AAUaistate@ai@@@Z 0048d280 f i client1.obj
 0001:0008c280       ?extinfoteam@servmode@server@@UAE_NPBDAAU?$databuf@E@@@Z 0048d280 f i server1.obj
 0001:0008c290       ?aifind@captureclientmode@game@@UAEXPAUfpsent@@AAUaistate@ai@@AAU?$vector@Uinterest@ai@@@@@Z 0048d290 f i client1.obj
 0001:0008c780       ?aidefend@captureclientmode@game@@UAE_NPAUfpsent@@AAUaistate@ai@@@Z 0048d780 f i client1.obj
 0001:0008cb10       ?aipursue@captureclientmode@game@@UAE_NPAUfpsent@@AAUaistate@ai@@@Z 0048db10 f i client1.obj
 0001:0008cb30       ??_Gcaptureclientmode@game@@UAEPAXI@Z 0048db30 f i client1.obj
 0001:0008cb30       ??_Ecaptureclientmode@game@@UAEPAXI@Z 0048db30 f i * CIL library *:* CIL module *
 0001:0008cb50       ??1ctfclientmode@game@@UAE@XZ 0048db50 f i client1.obj
 0001:0008cb50       ??1captureclientmode@game@@UAE@XZ 0048db50 f i client1.obj
 0001:0008cbe0       ?reset@flag@ctfclientmode@game@@QAEXXZ 0048dbe0 f i client1.obj
 0001:0008ccb0       ?pos@flag@ctfclientmode@game@@QBE?AUvec@@XZ 0048dcb0 f i client1.obj
 0001:0008cd40       ?addflag@ctfclientmode@game@@QAE_NHABUvec@@HH@Z 0048dd40 f i client1.obj
 0001:0008ce80       ?dropflag@ctfclientmode@game@@QAEXHABUvec@@MH@Z 0048de80 f i client1.obj
 0001:0008cef0       ?returnflag@ctfclientmode@game@@QAEXHH@Z 0048def0 f i client1.obj
 0001:0008cf60       ?getteamscore@ctfclientmode@game@@UAEHPBD@Z 0048df60 f i client1.obj
 0001:0008cf60       ?getteamscore@ctfservmode@server@@UAEHPBD@Z 0048df60 f i server1.obj
 0001:0008cfc0       ?getteamscores@ctfclientmode@game@@UAEXAAU?$vector@Uteamscore@@@@@Z 0048dfc0 f i client1.obj
 0001:0008cfc0       ?getteamscores@ctfservmode@server@@UAEXAAU?$vector@Uteamscore@@@@@Z 0048dfc0 f i server1.obj
 0001:0008d0c0       ?preload@ctfclientmode@game@@UAEXXZ 0048e0c0 f i client1.obj
 0001:0008d1c0       ?drawblip@ctfclientmode@game@@QAEXPAUfpsent@@MMMABUvec@@_N@Z 0048e1c0 f i client1.obj
 0001:0008d390       ?drawhud@ctfclientmode@game@@UAEXPAUfpsent@@HH@Z 0048e390 f i client1.obj
 0001:0008dd70       ?removeplayer@ctfclientmode@game@@UAEXPAUfpsent@@@Z 0048ed70 f i client1.obj
 0001:0008de40       ?interpflagpos@ctfclientmode@game@@QAE?AUvec@@AAUflag@12@AAM@Z 0048ee40 f i client1.obj
 0001:0008e050       ?rendergame@ctfclientmode@game@@UAEXXZ 0048f050 f i client1.obj
 0001:0008e990       ?setup@ctfclientmode@game@@UAEXXZ 0048f990 f i client1.obj
 0001:0008ed80       ?senditems@ctfclientmode@game@@UAEXAAUpacketbuf@@@Z 0048fd80 f i client1.obj
 0001:0008f210       ?parseflags@ctfclientmode@game@@QAEXAAU?$databuf@E@@_N@Z 00490210 f i client1.obj
 0001:0008f470       ?teamcolorflag@ctfclientmode@game@@QAEPBDAAUflag@12@@Z 00490470 f i client1.obj
 0001:0008f4e0       ?dropflag@ctfclientmode@game@@QAEXPAUfpsent@@HHABUvec@@@Z 004904e0 f i client1.obj
 0001:0008f5f0       ?flagexplosion@ctfclientmode@game@@QAEXHHABUvec@@@Z 004905f0 f i client1.obj
 0001:0008f7a0       ?flageffect@ctfclientmode@game@@QAEXHHABUvec@@0@Z 004907a0 f i client1.obj
 0001:0008f930       ?returnflag@ctfclientmode@game@@QAEXPAUfpsent@@HH@Z 00490930 f i client1.obj
 0001:0008fa70       ?spawnflag@ctfclientmode@game@@QAEXAAUflag@12@@Z 00490a70 f i client1.obj
 0001:0008fac0       ?resetflag@ctfclientmode@game@@QAEXHHHHH@Z 00490ac0 f i client1.obj
 0001:0008fc30       ?scoreflag@ctfclientmode@game@@QAEXPAUfpsent@@HHHHHHHH@Z 00490c30 f i client1.obj
 0001:0008ff60       ?takeflag@ctfclientmode@game@@QAEXPAUfpsent@@HH@Z 00490f60 f i client1.obj
 0001:000900c0       ?invisflag@ctfclientmode@game@@QAEXHH@Z 004910c0 f i client1.obj
 0001:00090100       ?checkitems@ctfclientmode@game@@UAEXPAUfpsent@@@Z 00491100 f i client1.obj
 0001:00090330       ?respawned@ctfclientmode@game@@UAEXPAUfpsent@@@Z 00491330 f i client1.obj
 0001:00090480       ?respawnwait@ctfclientmode@game@@UAEHPAUfpsent@@@Z 00491480 f i client1.obj
 0001:000904e0       ?pickholdspawn@ctfclientmode@game@@QAE_NPAUfpsent@@@Z 004914e0 f i client1.obj
 0001:00090820       ?pickspawn@ctfclientmode@game@@UAEXPAUfpsent@@@Z 00491820 f i client1.obj
 0001:000908f0       ?aihomerun@ctfclientmode@game@@QAE_NPAUfpsent@@AAUaistate@ai@@@Z 004918f0 f i client1.obj
 0001:00090ec0       ?aicheck@ctfclientmode@game@@UAE_NPAUfpsent@@AAUaistate@ai@@@Z 00491ec0 f i client1.obj
 0001:00091150       ?aifind@ctfclientmode@game@@UAEXPAUfpsent@@AAUaistate@ai@@AAU?$vector@Uinterest@ai@@@@@Z 00492150 f i client1.obj
 0001:00091c40       ?aidefend@ctfclientmode@game@@UAE_NPAUfpsent@@AAUaistate@ai@@@Z 00492c40 f i client1.obj
 0001:000922d0       ?aipursue@ctfclientmode@game@@UAE_NPAUfpsent@@AAUaistate@ai@@@Z 004932d0 f i client1.obj
 0001:00092470       ?addbase@collectclientmode@game@@QAE_NHABUvec@@H@Z 00493470 f i client1.obj
 0001:00092610       ?droptoken@collectclientmode@game@@QAEAAUtoken@12@HABUvec@@HH@Z 00493610 f i client1.obj
 0001:00092780       ?removetoken@collectclientmode@game@@QAE_NH@Z 00493780 f i client1.obj
 0001:000927f0       ?getteamscore@collectclientmode@game@@UAEHPBD@Z 004937f0 f i client1.obj
 0001:000927f0       ?getteamscore@collectservmode@server@@UAEHPBD@Z 004937f0 f i server1.obj
 0001:00092850       ?getteamscores@collectclientmode@game@@UAEXAAU?$vector@Uteamscore@@@@@Z 00493850 f i client1.obj
 0001:00092850       ?getteamscores@collectservmode@server@@UAEXAAU?$vector@Uteamscore@@@@@Z 00493850 f i server1.obj
 0001:00092950       ?insidebase@collectclientmode@game@@QAE_NABUbase@12@ABUvec@@@Z 00493950 f i client1.obj
 0001:000929d0       ?preload@collectclientmode@game@@UAEXXZ 004939d0 f i client1.obj
 0001:00092b10       ?drawblip@collectclientmode@game@@QAEXPAUfpsent@@MMMABUvec@@M@Z 00493b10 f i client1.obj
 0001:00092cb0       ?drawhud@collectclientmode@game@@UAEXPAUfpsent@@HH@Z 00493cb0 f i client1.obj
 0001:00093390       ?rendergame@collectclientmode@game@@UAEXXZ 00494390 f i client1.obj
 0001:00093a70       ?setup@collectclientmode@game@@UAEXXZ 00494a70 f i client1.obj
 0001:00093be0       ?senditems@collectclientmode@game@@UAEXAAUpacketbuf@@@Z 00494be0 f i client1.obj
 0001:00093e70       ?movetoken@collectclientmode@game@@QAE?AUvec@@ABU3@H@Z 00494e70 f i client1.obj
 0001:00094050       ?parsetokens@collectclientmode@game@@QAEXAAU?$databuf@E@@_N@Z 00495050 f i client1.obj
 0001:000944b0       ?baseexplosion@collectclientmode@game@@QAEXHHABUvec@@@Z 004954b0 f i client1.obj
 0001:00094640       ?expiretoken@collectclientmode@game@@QAEXH@Z 00495640 f i client1.obj
 0001:000946b0       ?taketoken@collectclientmode@game@@QAEXPAUfpsent@@HH@Z 004956b0 f i client1.obj
 0001:000947a0       ?droptoken@collectclientmode@game@@QAEPAUtoken@12@PAUfpsent@@HABUvec@@HHH@Z 004957a0 f i client1.obj
 0001:00094a70       ?stealtoken@collectclientmode@game@@QAEXPAUfpsent@@HABUvec@@HHHHHH@Z 00495a70 f i client1.obj
 0001:00094c40       ?deposittokens@collectclientmode@game@@QAEXPAUfpsent@@HHHHH@Z 00495c40 f i client1.obj
 0001:00094ef0       ?checkitems@collectclientmode@game@@UAEXPAUfpsent@@@Z 00495ef0 f i client1.obj
 0001:00095230       ?respawnwait@collectclientmode@game@@UAEHPAUfpsent@@@Z 00496230 f i client1.obj
 0001:00095270       ?pickspawn@collectclientmode@game@@UAEXPAUfpsent@@@Z 00496270 f i client1.obj
 0001:000952e0       ?aicheck@collectclientmode@game@@UAE_NPAUfpsent@@AAUaistate@ai@@@Z 004962e0 f i client1.obj
 0001:000956e0       ?aifind@collectclientmode@game@@UAEXPAUfpsent@@AAUaistate@ai@@AAU?$vector@Uinterest@ai@@@@@Z 004966e0 f i client1.obj
 0001:00095ad0       ?aipursue@collectclientmode@game@@UAE_NPAUfpsent@@AAUaistate@ai@@@Z 00496ad0 f i client1.obj
 0001:00095c60       ??_Ectfclientmode@game@@UAEPAXI@Z 00496c60 f i * CIL library *:* CIL module *
 0001:00095c60       ??_Gctfclientmode@game@@UAEPAXI@Z 00496c60 f i client1.obj
 0001:00095c80       ??1collectclientmode@game@@UAE@XZ 00496c80 f i client1.obj
 0001:00095d10       ??_Ecollectclientmode@game@@UAEPAXI@Z 00496d10 f i * CIL library *:* CIL module *
 0001:00095d10       ??_Gcollectclientmode@game@@UAEPAXI@Z 00496d10 f i client1.obj
 0001:00095d30       ?validate@selinfo@@QAE_NXZ 00496d30 f i client1.obj
 0001:00095e90       ??_Eclientmode@game@@UAEPAXI@Z 00496e90 f i * CIL library *:* CIL module *
 0001:00095e90       ??_Gclientmode@game@@UAEPAXI@Z 00496e90 f i client1.obj
 0001:00095ec0       ?pickspawn@clientmode@game@@UAEXPAUfpsent@@@Z 00496ec0 f i client1.obj
 0001:00095ee0       ??1clientmode@game@@UAE@XZ 00496ee0 f i client1.obj
 0001:00095ef0       ??1gameevent@server@@UAE@XZ 00496ef0 f i server1.obj
 0001:00095f00       ??_Ggameevent@server@@UAEPAXI@Z 00496f00 f i server1.obj
 0001:00095f00       ??_Egameevent@server@@UAEPAXI@Z 00496f00 f i * CIL library *:* CIL module *
 0001:00095f30       ?respawn@gamestate@server@@QAEXXZ 00496f30 f i server1.obj
 0001:00095fa0       ?save@savedscore@server@@QAEXAAUgamestate@2@@Z 00496fa0 f i server1.obj
 0001:00096010       ??0clientinfo@server@@QAE@XZ 00497010 f i server1.obj
 0001:00096240       ?addevent@clientinfo@server@@QAEXPAUgameevent@2@@Z 00497240 f i server1.obj
 0001:00096340       ?calcpushrange@clientinfo@server@@QAEHXZ 00497340 f i server1.obj
 0001:00096380       ?setexceeded@clientinfo@server@@QAEXXZ 00497380 f i server1.obj
 0001:000963f0       ?setpushed@clientinfo@server@@QAEXXZ 004973f0 f i server1.obj
 0001:00096470       ?mapchange@clientinfo@server@@QAEXXZ 00497470 f i server1.obj
 0001:000965a0       ?cleanclipboard@clientinfo@server@@QAEX_N@Z 004975a0 f i server1.obj
 0001:000965e0       ?cleanauth@clientinfo@server@@QAEX_N@Z 004975e0 f i server1.obj
 0001:00096640       ?geteventmillis@clientinfo@server@@QAEHHH@Z 00497640 f i server1.obj
 0001:000966a0       ??_Gclientinfo@server@@QAEPAXI@Z 004976a0 f i server1.obj
 0001:00096820       ??1servmode@server@@UAE@XZ 00497820 f i server1.obj
 0001:00096830       ?moved@servmode@server@@UAEXPAUclientinfo@2@ABUvec@@_N12@Z 00497830 f i server1.obj
 0001:00096840       ?canspawn@servmode@server@@UAE_NPAUclientinfo@2@_N@Z 00497840 f i server1.obj
 0001:00096850       ?fragvalue@servmode@server@@UAEHPAUclientinfo@2@0@Z 00497850 f i server1.obj
 0001:000968b0       ?canchangeteam@servmode@server@@UAE_NPAUclientinfo@2@PBD1@Z 004978b0 f i server1.obj
 0001:000968c0       ??_Eservmode@server@@UAEPAXI@Z 004978c0 f i * CIL library *:* CIL module *
 0001:000968c0       ??_Gservmode@server@@UAEPAXI@Z 004978c0 f i server1.obj
 0001:000968f0       ?enter@baseinfo@captureservmode@server@@QAE_NPBD@Z 004978f0 f i server1.obj
 0001:00096980       ?findscore@captureservmode@server@@QAEAAUscore@12@PBD@Z 00497980 f i server1.obj
 0001:00096a90       ?addbase@captureservmode@server@@QAEXHABUvec@@@Z 00497a90 f i server1.obj
 0001:00096d40       ?cleanup@captureservmode@server@@UAEXXZ 00497d40 f i server1.obj
 0001:00096d70       ?setup@captureservmode@server@@UAEXXZ 00497d70 f i server1.obj
 0001:00096e80       ?newmap@captureservmode@server@@UAEXXZ 00497e80 f i server1.obj
 0001:00096eb0       ?replenishammo@captureservmode@server@@QAEXPAUclientinfo@2@@Z 00497eb0 f i server1.obj
 0001:00097070       ?movebases@captureservmode@server@@QAEXPBDABUvec@@_N12@Z 00498070 f i server1.obj
 0001:000973c0       ?leavebases@captureservmode@server@@QAEXPBDABUvec@@@Z 004983c0 f i server1.obj
 0001:00097400       ?enterbases@captureservmode@server@@QAEXPBDABUvec@@@Z 00498400 f i server1.obj
 0001:00097440       ?regenowners@captureservmode@server@@QAEXAAUbaseinfo@12@H@Z 00498440 f i server1.obj
 0001:00097660       ?update@captureservmode@server@@UAEXXZ 00498660 f i server1.obj
 0001:00097a30       ?sendbaseinfo@captureservmode@server@@QAEXH@Z 00498a30 f i server1.obj
 0001:00097a90       ?sendbases@captureservmode@server@@QAEXXZ 00498a90 f i server1.obj
 0001:00097b80       ?initclient@captureservmode@server@@UAEXPAUclientinfo@2@AAUpacketbuf@@_N@Z 00498b80 f i server1.obj
 0001:00098120       ?entergame@captureservmode@server@@UAEXPAUclientinfo@2@@Z 00499120 f i server1.obj
 0001:00098160       ?spawned@captureservmode@server@@UAEXPAUclientinfo@2@@Z 00499160 f i server1.obj
 0001:000981b0       ?leavegame@captureservmode@server@@UAEXPAUclientinfo@2@_N@Z 004991b0 f i server1.obj
 0001:000981f0       ?died@captureservmode@server@@UAEXPAUclientinfo@2@0@Z 004991f0 f i server1.obj
 0001:00098240       ?canspawn@captureservmode@server@@UAE_NPAUclientinfo@2@_N@Z 00499240 f i server1.obj
 0001:000982a0       ?moved@captureservmode@server@@UAEXPAUclientinfo@2@ABUvec@@_N12@Z 004992a0 f i server1.obj
 0001:000982c0       ?changeteam@captureservmode@server@@UAEXPAUclientinfo@2@PBD1@Z 004992c0 f i server1.obj
 0001:00098340       ?parsebases@captureservmode@server@@QAEXAAU?$databuf@E@@_N@Z 00499340 f i server1.obj
 0001:000984a0       ?extinfoteam@captureservmode@server@@UAE_NPBDAAU?$databuf@E@@@Z 004994a0 f i server1.obj
 0001:00098530       ??_Ecaptureservmode@server@@UAEPAXI@Z 00499530 f i * CIL library *:* CIL module *
 0001:00098530       ??_Gcaptureservmode@server@@UAEPAXI@Z 00499530 f i server1.obj
 0001:00098550       ??1ctfservmode@server@@UAE@XZ 00499550 f i server1.obj
 0001:00098550       ??1captureservmode@server@@UAE@XZ 00499550 f i server1.obj
 0001:000985e0       ?reset@flag@ctfservmode@server@@QAEXXZ 004995e0 f i server1.obj
 0001:00098650       ?addflag@ctfservmode@server@@QAE_NHABUvec@@HH@Z 00499650 f i server1.obj
 0001:00098760       ?addholdspawn@ctfservmode@server@@QAE_NABUvec@@@Z 00499760 f i server1.obj
 0001:00098830       ?returnflag@ctfservmode@server@@QAEXHH@Z 00499830 f i server1.obj
 0001:00098860       ?cleanup@ctfservmode@server@@UAEXXZ 00499860 f i server1.obj
 0001:000988a0       ?setupholdspawns@ctfservmode@server@@QAEXXZ 004998a0 f i server1.obj
 0001:00098950       ?setup@ctfservmode@server@@UAEXXZ 00499950 f i server1.obj
 0001:00098a90       ?newmap@ctfservmode@server@@UAEXXZ 00499a90 f i server1.obj
 0001:00098ad0       ?dropflag@ctfservmode@server@@QAEXPAUclientinfo@2@0@Z 00499ad0 f i server1.obj
 0001:00098d50       ?leavegame@ctfservmode@server@@UAEXPAUclientinfo@2@_N@Z 00499d50 f i server1.obj
 0001:00098da0       ?died@ctfservmode@server@@UAEXPAUclientinfo@2@0@Z 00499da0 f i server1.obj
 0001:00098e40       ?canspawn@ctfservmode@server@@UAE_NPAUclientinfo@2@_N@Z 00499e40 f i server1.obj
 0001:00098ea0       ?canchangeteam@ctfservmode@server@@UAE_NPAUclientinfo@2@PBD1@Z 00499ea0 f i server1.obj
 0001:00098ea0       ?canchangeteam@collectservmode@server@@UAE_NPAUclientinfo@2@PBD1@Z 00499ea0 f i server1.obj
 0001:00098ef0       ?changeteam@ctfservmode@server@@UAEXPAUclientinfo@2@PBD1@Z 00499ef0 f i server1.obj
 0001:00098f00       ?spawnflag@ctfservmode@server@@QAEXH@Z 00499f00 f i server1.obj
 0001:00099030       ?scoreflag@ctfservmode@server@@QAEXPAUclientinfo@2@HH@Z 0049a030 f i server1.obj
 0001:000991c0       ?takeflag@ctfservmode@server@@QAEXPAUclientinfo@2@HH@Z 0049a1c0 f i server1.obj
 0001:00099490       ?update@ctfservmode@server@@UAEXXZ 0049a490 f i server1.obj
 0001:000996e0       ?initclient@ctfservmode@server@@UAEXPAUclientinfo@2@AAUpacketbuf@@_N@Z 0049a6e0 f i server1.obj
 0001:00099d00       ?parseflags@ctfservmode@server@@QAEXAAU?$databuf@E@@_N@Z 0049ad00 f i server1.obj
 0001:00099f70       ??_Gctfservmode@server@@UAEPAXI@Z 0049af70 f i server1.obj
 0001:00099f70       ??_Ectfservmode@server@@UAEPAXI@Z 0049af70 f i * CIL library *:* CIL module *
 0001:00099f90       ?addbase@collectservmode@server@@QAE_NHABUvec@@H@Z 0049af90 f i server1.obj
 0001:0009a0f0       ?droptoken@collectservmode@server@@QAEAAUtoken@12@ABUvec@@HHHH@Z 0049b0f0 f i server1.obj
 0001:0009a220       ?addscore@collectservmode@server@@QAEHHH@Z 0049b220 f i server1.obj
 0001:0009a250       ?reset@collectservmode@server@@QAEX_N@Z 0049b250 f i server1.obj
 0001:0009a2a0       ?cleanup@collectservmode@server@@UAEXXZ 0049b2a0 f i server1.obj
 0001:0009a2b0       ?setup@collectservmode@server@@UAEXXZ 0049b2b0 f i server1.obj
 0001:0009a330       ?newmap@collectservmode@server@@UAEXXZ 0049b330 f i server1.obj
 0001:0009a340       ?droptokens@collectservmode@server@@QAEXPAUclientinfo@2@_N@Z 0049b340 f i server1.obj
 0001:0009ad30       ?leavegame@collectservmode@server@@UAEXPAUclientinfo@2@_N@Z 0049bd30 f i server1.obj
 0001:0009b110       ?died@collectservmode@server@@UAEXPAUclientinfo@2@0@Z 0049c110 f i server1.obj
 0001:0009b180       ?canspawn@collectservmode@server@@UAE_NPAUclientinfo@2@_N@Z 0049c180 f i server1.obj
 0001:0009b1c0       ?deposittokens@collectservmode@server@@QAEXPAUclientinfo@2@H@Z 0049c1c0 f i server1.obj
 0001:0009b470       ?taketoken@collectservmode@server@@QAEXPAUclientinfo@2@H@Z 0049c470 f i server1.obj
 0001:0009b560       ?update@collectservmode@server@@UAEXXZ 0049c560 f i server1.obj
 0001:0009b680       ?initclient@collectservmode@server@@UAEXPAUclientinfo@2@AAUpacketbuf@@_N@Z 0049c680 f i server1.obj
 0001:0009be20       ?parsebases@collectservmode@server@@QAEXAAU?$databuf@E@@_N@Z 0049ce20 f i server1.obj
 0001:0009bed0       ??_Ecollectservmode@server@@UAEPAXI@Z 0049ced0 f i * CIL library *:* CIL module *
 0001:0009bed0       ??_Gcollectservmode@server@@UAEPAXI@Z 0049ced0 f i server1.obj
 0001:0009bef0       ??1collectservmode@server@@UAE@XZ 0049cef0 f i server1.obj
 0001:0009bf80       ??0userkey@server@@QAE@PAD0@Z 0049cf80 f i server1.obj
 0001:0009bfa0       ??1userinfo@server@@QAE@XZ 0049cfa0 f i server1.obj
 0001:0009c000       ??0msgfilter@server@@QAA@HZZ 0049d000 f i server1.obj
 0001:0009c050       ??Amsgfilter@server@@QBEEH@Z 0049d050 f i server1.obj
 0001:0009c070       ?compare@crcinfo@server@@SA_NABU12@0@Z 0049d070 f i server1.obj
 0001:0009c090       ?add@banlist@server@@QAEXPBD@Z 0049d090 f i server1.obj
 0001:0009c2a0       ??_Gsuicideevent@server@@UAEPAXI@Z 0049d2a0 f i server1.obj
 0001:0009c2a0       ??_Esuicideevent@server@@UAEPAXI@Z 0049d2a0 f i * CIL library *:* CIL module *
 0001:0009c2f0       ??_Eshotevent@server@@UAEPAXI@Z 0049d2f0 f i * CIL library *:* CIL module *
 0001:0009c2f0       ??_Gshotevent@server@@UAEPAXI@Z 0049d2f0 f i server1.obj
 0001:0009c370       ??0timedevent@server@@QAE@XZ 0049d370 f i server1.obj
 0001:0009c3c0       ??1timedevent@server@@UAE@XZ 0049d3c0 f i server1.obj
 0001:0009c400       ??_Gexplodeevent@server@@UAEPAXI@Z 0049d400 f i server1.obj
 0001:0009c400       ??_Eexplodeevent@server@@UAEPAXI@Z 0049d400 f i * CIL library *:* CIL module *
 0001:0009c480       ??_Etimedevent@server@@UAEPAXI@Z 0049d480 f i * CIL library *:* CIL module *
 0001:0009c480       ??_Epickupevent@server@@UAEPAXI@Z 0049d480 f i * CIL library *:* CIL module *
 0001:0009c480       ??_Gpickupevent@server@@UAEPAXI@Z 0049d480 f i server1.obj
 0001:0009c480       ??_Gtimedevent@server@@UAEPAXI@Z 0049d480 f i server1.obj
 0001:0009c4d0       ??1?$hashbase@U?$hashset@Uuserinfo@server@@@@Uuserinfo@server@@U23@U23@@@QAE@XZ 0049d4d0 f i server1.obj
 0001:0009c520       ??A?$vector@Userver_entity@server@@@@QAEAAUserver_entity@server@@H@Z 0049d520 f i server1.obj
 0001:0009c540       ?length@?$vector@Userver_entity@server@@@@QBEHXZ 0049d540 f i server1.obj
 0001:0009c550       ?inrange@?$vector@Userver_entity@server@@@@QBE_NH@Z 0049d550 f i server1.obj
 0001:0009c570       ?add@?$vector@Userver_entity@server@@@@QAEAAUserver_entity@server@@ABU23@@Z 0049d570 f i server1.obj
 0001:0009c660       ?add@?$vector@Umaprotation@server@@@@QAEAAUmaprotation@server@@XZ 0049d660 f i server1.obj
 0001:0009c730       ?shrink@?$vector@Uban@server@@@@QAEXH@Z 0049d730 f i server1.obj
 0001:0009c750       ?add@?$vector@Uban@server@@@@QAEAAUban@server@@ABU23@@Z 0049d750 f i server1.obj
 0001:0009c840       ?add@?$projectilestate@$07@server@@QAEXH@Z 0049d840 f i server1.obj
 0001:0009c860       ?add@?$vector@Uhitinfo@server@@@@QAEAAUhitinfo@server@@XZ 0049d860 f i server1.obj
 0001:0009c920       ?deletechunks@?$hashbase@U?$hashset@Uuserinfo@server@@@@Uuserinfo@server@@U23@U23@@@QAEXXZ 0049d920 f i server1.obj
 0001:0009c9a0       ??1chain@?$hashbase@U?$hashset@Uuserinfo@server@@@@Uuserinfo@server@@U23@U23@@@QAE@XZ 0049d9a0 f i server1.obj
 0001:0009ca10       ??$formatstring@$0CAI@@@YAXAAY0CAI@DPBDZZ 0049da10 f i server1.obj
 0001:0009ca50       ??$sendstate@Upacketbuf@@@server@@YAXAAUgamestate@0@AAUpacketbuf@@@Z 0049da50 f i server1.obj
 0001:0009cf10       ??$access@Uuserkey@server@@@?$hashbase@U?$hashset@Uuserinfo@server@@@@Uuserinfo@server@@U23@U23@@@QAEPAUuserinfo@server@@ABUuserkey@2@@Z 0049df10 f i server1.obj
 0001:0009cf90       ??$sendstate@U?$vector@E@@@server@@YAXAAUgamestate@0@AAU?$vector@E@@@Z 0049df90 f i server1.obj
 0001:0009d000       ?insert@?$hashbase@U?$hashset@Uuserinfo@server@@@@Uuserinfo@server@@U23@U23@@@QAEPAUchain@1@I@Z 0049e000 f i server1.obj
 0001:0009d1c0       ??0chain@?$hashbase@U?$hashset@Uuserinfo@server@@@@Uuserinfo@server@@U23@U23@@@QAE@XZ 0049e1c0 f i server1.obj
 0001:0009d20e       ___WSAFDIsSet@8            0049e20e f   ws2_32:WS2_32.dll
 0001:0009d214       ??3@YAXPAXI@Z              0049e214 f   LIBCMT:delete_scalar_size.obj
 0001:0009d222       ??$__crt_fast_encode_pointer@PAX@@YAPAXQAX@Z 0049e222 f i libvcruntime:winapi_downlevel.obj
 0001:0009d222       ??$__crt_fast_encode_pointer@PAP6AXXZ@@YAPAP6AXXZQAP6AXXZ@Z 0049e222 f i LIBCMT:utility.obj
 0001:0009d222       ??$__crt_fast_encode_pointer@P6GHPAU_RTL_CONDITION_VARIABLE@@PAU_RTL_CRITICAL_SECTION@@K@Z@@YAP6GHPAU_RTL_CONDITION_VARIABLE@@PAU_RTL_CRITICAL_SECTION@@K@ZQ6GH01K@Z@Z 0049e222 f i LIBCMT:thread_safe_statics.obj
 0001:0009d222       ??$__crt_fast_encode_pointer@P6GXPAU_RTL_CONDITION_VARIABLE@@@Z@@YAP6GXPAU_RTL_CONDITION_VARIABLE@@@ZQ6GX0@Z@Z 0049e222 f i LIBCMT:thread_safe_statics.obj
 0001:0009d283       ___scrt_acquire_startup_lock 0049e283 f   LIBCMT:utility.obj
 0001:0009d2b5       ___scrt_initialize_crt     0049e2b5 f   LIBCMT:utility.obj
 0001:0009d2ee       ___scrt_initialize_onexit_tables 0049e2ee f   LIBCMT:utility.obj
 0001:0009d393       ___scrt_is_nonwritable_in_current_image 0049e393 f   LIBCMT:utility.obj
 0001:0009d427       ___scrt_release_startup_lock 0049e427 f   LIBCMT:utility.obj
 0001:0009d444       ___scrt_uninitialize_crt   0049e444 f   LIBCMT:utility.obj
 0001:0009d46c       __onexit                   0049e46c f   LIBCMT:utility.obj
 0001:0009d4a7       _atexit                    0049e4a7 f   LIBCMT:utility.obj
 0001:0009d4bc       ??_L@YGXPAXIIP6EX0@Z1@Z    0049e4bc f   LIBCMT:ehvecctr.obj
 0001:0009d530       ??_M@YGXPAXIIP6EX0@Z@Z     0049e530 f   LIBCMT:ehvecdtr.obj
 0001:0009d5b5       ?__ArrayUnwind@@YGXPAXIIP6EX0@Z@Z 0049e5b5 f   LIBCMT:ehvecdtr.obj
 0001:0009d760       __Init_thread_abort        0049e760 f   LIBCMT:thread_safe_statics.obj
 0001:0009d784       __Init_thread_footer       0049e784 f   LIBCMT:thread_safe_statics.obj
 0001:0009d7ce       __Init_thread_header       0049e7ce f   LIBCMT:thread_safe_statics.obj
 0001:0009d820       __Init_thread_notify       0049e820 f   LIBCMT:thread_safe_statics.obj
 0001:0009d862       __Init_thread_wait         0049e862 f   LIBCMT:thread_safe_statics.obj
 0001:0009d8c2       ??_V@YAXPAXI@Z             0049e8c2 f   LIBCMT:delete_array_size.obj
 0001:0009d8d0       ??_Etype_info@@UAEPAXI@Z   0049e8d0 f i LIBCMT:std_type_info_static.obj
 0001:0009d8d0       ??_Gtype_info@@UAEPAXI@Z   0049e8d0 f i LIBCMT:std_type_info_static.obj
 0001:0009db34       _WinMainCRTStartup         0049eb34 f   LIBCMT:exe_winmain.obj
 0001:0009db3e       ___isa_available_init      0049eb3e f   LIBCMT:_cpu_disp_.obj
 0001:0009dcd5       __get_startup_argv_mode    0049ecd5 f   LIBCMT:argv_mode.obj
 0001:0009dcd9       ___scrt_is_ucrt_dll_in_use 0049ecd9 f   LIBCMT:ucrt_detection.obj
 0001:0009dce5       ___scrt_fastfail           0049ece5 f   LIBCMT:utility_desktop.obj
 0001:0009ddff       ___scrt_get_show_window_mode 0049edff f   LIBCMT:utility_desktop.obj
 0001:0009de30       ___scrt_initialize_mta     0049ee30 f   LIBCMT:utility_desktop.obj
 0001:0009de35       ___scrt_is_managed_app     0049ee35 f   LIBCMT:utility_desktop.obj
 0001:0009de78       ___scrt_set_unhandled_exception_filter 0049ee78 f   LIBCMT:utility_desktop.obj
 0001:0009de84       ___scrt_unhandled_exception_filter@4 0049ee84 f   LIBCMT:utility_desktop.obj
 0001:0009dec5       __crt_debugger_hook        0049eec5 f   LIBCMT:utility_desktop.obj
 0001:0009ded0       __SEH_prolog4              0049eed0 f   LIBCMT:_sehprolg4_.obj
 0001:0009df16       __SEH_epilog4              0049ef16 f   LIBCMT:_sehprolg4_.obj
 0001:0009df2b       @__security_check_cookie@4 0049ef2b f   LIBCMT:_secchk_.obj
 0001:0009df89       ___security_init_cookie    0049ef89 f   LIBCMT:gs_support.obj
 0001:0009dfd4       __get_startup_file_mode    0049efd4 f   LIBCMT:file_mode.obj
 0001:0009dfda       ?__scrt_initialize_type_info@@YAXXZ 0049efda f   LIBCMT:tncleanup.obj
 0001:0009dfe6       __initialize_default_precision 0049efe6 f   LIBCMT:default_precision.obj
 0001:0009e007       ___scrt_initialize_default_local_stdio_options 0049f007 f   LIBCMT:default_local_stdio_options.obj
 0001:0009e024       ___scrt_is_user_matherr_present 0049f024 f   LIBCMT:matherr_detection.obj
 0001:0009e030       ___scrt_get_dyn_tls_init_callback 0049f030 f   LIBCMT:dyn_tls_init.obj
 0001:0009e036       ___scrt_get_dyn_tls_dtor_callback 0049f036 f   LIBCMT:dyn_tls_dtor.obj
 0001:0009e03c       __RTC_Initialize           0049f03c f   LIBCMT:_initsect_.obj
 0001:0009e068       __RTC_Terminate            0049f068 f   LIBCMT:_initsect_.obj
 0001:0009e094       ___raise_securityfailure   0049f094 f   LIBCMT:gs_report.obj
 0001:0009e0bc       ___report_gsfailure        0049f0bc f   LIBCMT:gs_report.obj
 0001:0009e1b5       ?GetRangeOfTrysToCheck@__FrameHandler3@@SA?AU?$pair@Viterator@TryBlockMap@__FrameHandler3@@V123@@std@@AAVTryBlockMap@1@HH@Z 0049f1b5 f   libvcruntime:trnsctrl.obj
 0001:0009e237       ?_CallCatchBlock2@@YAPAXPAUEHRegistrationNode@@PBU_s_FuncInfo@@PAXHK@Z 0049f237 f   libvcruntime:trnsctrl.obj
 0001:0009e295       ?_CallSETranslator@@YAHPAUEHExceptionRecord@@PAUEHRegistrationNode@@PAX2PBU_s_FuncInfo@@H1@Z 0049f295 f   libvcruntime:trnsctrl.obj
 0001:0009e370       ?_JumpToContinuation@@YGXPAXPAUEHRegistrationNode@@@Z 0049f370 f   libvcruntime:trnsctrl.obj
 0001:0009e3a0       ?_UnwindNestedFrames@@YGXPAUEHRegistrationNode@@PAUEHExceptionRecord@@@Z 0049f3a0 f   libvcruntime:trnsctrl.obj
 0001:0009e3f3       __CatchGuardHandler        0049f3f3 f   libvcruntime:trnsctrl.obj
 0001:0009e424       __CreateFrameInfo          0049f424 f   libvcruntime:trnsctrl.obj
 0001:0009e448       __FindAndUnlinkFrame       0049f448 f   libvcruntime:trnsctrl.obj
 0001:0009e48d       __TranslatorGuardHandler   0049f48d f   libvcruntime:trnsctrl.obj
 0001:0009e52a       ___CxxFrameHandler3        0049f52a f   libvcruntime:trnsctrl.obj
 0001:0009e560       _memset                    0049f560 f   libvcruntime:memset.obj
 0001:0009e6c0       _memcpy                    0049f6c0 f   libvcruntime:memcpy.obj
 0001:0009ec40       _memmove                   0049fc40 f   libvcruntime:memmove.obj
 0001:0009f1b4       _memcmp                    004a01b4 f   libvcruntime:_memcmp_.obj
 0001:000a0160       _strrchr                   004a1160 f   libvcruntime:strrchr.obj
 0001:000a0297       __get_purecall_handler     004a1297 f   libvcruntime:purevirt.obj
 0001:000a02ac       __purecall                 004a12ac f   libvcruntime:purevirt.obj
 0001:000a02d0       _memchr                    004a12d0 f   libvcruntime:memchr.obj
 0001:000a0380       _strstr                    004a1380 f   libvcruntime:strstr.obj
 0001:000a05f0       _strchr                    004a15f0 f   libvcruntime:strchr.obj
 0001:000a065e       ___from_strstr_to_strchr   004a165e     libvcruntime:strchr.obj
 0001:000a0760       __except_handler4          004a1760 f   libvcruntime:_chandler4_.obj
 0001:000a08b7       ___vcrt_initialize         004a18b7 f   libvcruntime:initialization.obj
 0001:000a08e0       ___vcrt_uninitialize       004a18e0 f   libvcruntime:initialization.obj
 0001:000a08ff       ___std_type_info_compare   004a18ff f   libvcruntime:std_type_info.obj
 0001:000a093b       ___vcrt_freefls@4          004a193b f   libvcruntime:per_thread_data.obj
 0001:000a0957       ___vcrt_getptd             004a1957 f   libvcruntime:per_thread_data.obj
 0001:000a0965       ___vcrt_getptd_noexit      004a1965 f   libvcruntime:per_thread_data.obj
 0001:000a09f7       ___vcrt_initialize_ptd     004a19f7 f   libvcruntime:per_thread_data.obj
 0001:000a0a2a       ___vcrt_uninitialize_ptd   004a1a2a f   libvcruntime:per_thread_data.obj
 0001:000a113c       ??$TypeMatchHelper@$$CBU_s_HandlerType@@@@YAHPBU_s_HandlerType@@PBU_s_CatchableType@@PBU_s_ThrowInfo@@@Z 004a213c f i libvcruntime:frame.obj
 0001:000a11ca       ??$__InternalCxxFrameHandler@V__FrameHandler3@@@@YA?AW4_EXCEPTION_DISPOSITION@@PAUEHExceptionRecord@@PAUEHRegistrationNode@@PAU_CONTEXT@@PAXPBU_s_FuncInfo@@H1E@Z 004a21ca f i libvcruntime:frame.obj
 0001:000a12cc       ??0bad_exception@std@@QAE@ABV01@@Z 004a22cc f i libvcruntime:frame.obj
 0001:000a12e7       ??0bad_exception@std@@QAE@XZ 004a22e7 f i libvcruntime:frame.obj
 0001:000a12ff       ??0exception@std@@QAE@ABV01@@Z 004a22ff f i libvcruntime:frame.obj
 0001:000a132b       ??1bad_exception@std@@UAE@XZ 004a232b f i libvcruntime:frame.obj
 0001:000a133c       ??8type_info@@QBE_NABV0@@Z 004a233c f i libvcruntime:frame.obj
 0001:000a135b       ??_Ebad_exception@std@@UAEPAXI@Z 004a235b f i libvcruntime:frame.obj
 0001:000a135b       ??_Eexception@std@@UAEPAXI@Z 004a235b f i libvcruntime:frame.obj
 0001:000a135b       ??_Gbad_exception@std@@UAEPAXI@Z 004a235b f i libvcruntime:frame.obj
 0001:000a135b       ??_Gexception@std@@UAEPAXI@Z 004a235b f i libvcruntime:frame.obj
 0001:000a15d0       ?FrameUnwindToEmptyState@__FrameHandler3@@SAXPAUEHRegistrationNode@@PAXPBU_s_FuncInfo@@@Z 004a25d0 f   libvcruntime:frame.obj
 0001:000a15e8       ?FrameUnwindToState@__FrameHandler3@@SAXPAUEHRegistrationNode@@PAXPBU_s_FuncInfo@@H@Z 004a25e8 f   libvcruntime:frame.obj
 0001:000a176a       ?_CallMemberFunction1@@YGXQAX00@Z 004a276a f i libvcruntime:frame.obj
 0001:000a177a       ?_CallMemberFunction2@@YGXQAX00H@Z 004a277a f i libvcruntime:frame.obj
 0001:000a178d       ?getESTypes@__FrameHandler3@@SAPBU_s_ESTypeList@@PBU_s_FuncInfo@@@Z 004a278d f i libvcruntime:frame.obj
 0001:000a1798       ?what@exception@std@@UBEPBDXZ 004a2798 f i libvcruntime:frame.obj
 0001:000a17b0       __CallSettingFrame@12      004a27b0 f   libvcruntime:lowhelpr.obj
 0001:000a17d7       __NLG_Return               004a27d7     libvcruntime:lowhelpr.obj
 0001:000a17fc       ___except_validate_context_record 004a27fc f   libvcruntime:jbcxrval.obj
 0001:000a182c       ___except_validate_jump_buffer 004a282c f   libvcruntime:jbcxrval.obj
 0001:000a1859       ___vcrt_initialize_pure_virtual_call_handler 004a2859 f   libvcruntime:purevirt_data.obj
 0001:000a1870       __local_unwind4            004a2870 f   libvcruntime:_exsup4_.obj
 0001:000a1948       __seh_longjmp_unwind4@4    004a2948 f   libvcruntime:_exsup4_.obj
 0001:000a1970       @_EH4_CallFilterFunc@8     004a2970 f   libvcruntime:_exsup4_.obj
 0001:000a1988       @_EH4_TransferToHandler@8  004a2988 f   libvcruntime:_exsup4_.obj
 0001:000a19a4       @_EH4_GlobalUnwind2@8      004a29a4 f   libvcruntime:_exsup4_.obj
 0001:000a19c0       @_EH4_LocalUnwind@16       004a29c0 f   libvcruntime:_exsup4_.obj
 0001:000a19d7       ___vcrt_initialize_locks   004a29d7 f   libvcruntime:locks.obj
 0001:000a1a13       ___vcrt_uninitialize_locks 004a2a13 f   libvcruntime:locks.obj
 0001:000a1b75       ___vcrt_FlsAlloc           004a2b75 f   libvcruntime:winapi_downlevel.obj
 0001:000a1bb0       ___vcrt_FlsFree            004a2bb0 f   libvcruntime:winapi_downlevel.obj
 0001:000a1beb       ___vcrt_FlsGetValue        004a2beb f   libvcruntime:winapi_downlevel.obj
 0001:000a1c26       ___vcrt_FlsSetValue        004a2c26 f   libvcruntime:winapi_downlevel.obj
 0001:000a1c64       ___vcrt_InitializeCriticalSectionEx 004a2c64 f   libvcruntime:winapi_downlevel.obj
 0001:000a1cab       ___vcrt_initialize_winapi_thunks 004a2cab f   libvcruntime:winapi_downlevel.obj
 0001:000a1cd4       ___vcrt_uninitialize_winapi_thunks 004a2cd4 f   libvcruntime:winapi_downlevel.obj
 0001:000a1d06       _unexpected                004a2d06 f   libvcruntime:unexpected.obj
 0001:000a1d23       ?GetCurrentState@__FrameHandler3@@SAHPAUEHRegistrationNode@@PAXPBU_s_FuncInfo@@@Z 004a2d23 f   libvcruntime:ehstate.obj
 0001:000a1d40       ?SetState@__FrameHandler3@@SAXPAUEHRegistrationNode@@PBU_s_FuncInfo@@H@Z 004a2d40 f   libvcruntime:ehstate.obj
 0001:000a1d4e       ___DestructExceptionObject 004a2d4e f   libvcruntime:ehhelpers.obj
 0001:000a1dee       ?_CallMemberFunction0@@YGXQAX0@Z 004a2dee f i libvcruntime:ehhelpers.obj
 0001:000a1dfb       __IsExceptionObjectToBeDestroyed 004a2dfb f   libvcruntime:ehhelpers.obj
 0001:000a1e21       ___AdjustPointer           004a2e21 f   libvcruntime:ehhelpers.obj
 0001:000a1e46       ___FrameUnwindFilter       004a2e46 f   libvcruntime:ehhelpers.obj
 0001:000a1e8b       ___std_exception_copy      004a2e8b f   libvcruntime:std_exception.obj
 0001:000a1eee       ___std_exception_destroy   004a2eee f   libvcruntime:std_exception.obj
 0001:000a1f0d       __CxxThrowException@8      004a2f0d f   libvcruntime:throw.obj
 0001:000a1f90       __global_unwind2           004a2f90 f   libvcruntime:_exsup_.obj
 0001:000a1ff6       __local_unwind2            004a2ff6 f   libvcruntime:_exsup_.obj
 0001:000a207a       __abnormal_termination     004a307a f   libvcruntime:_exsup_.obj
 0001:000a20a0       __NLG_Notify1              004a30a0 f   libvcruntime:_exsup_.obj
 0001:000a20ac       __NLG_Notify               004a30ac f   libvcruntime:_exsup_.obj
 0001:000a20c3       __NLG_Dispatch             004a30c3     libvcruntime:_exsup_.obj
 0001:000a20c3       __NLG_Dispatch2            004a30c3     libvcruntime:_exsup_.obj
 0001:000a20cb       __NLG_Call                 004a30cb f   libvcruntime:_exsup_.obj
 0001:000a20cd       __NLG_Return2              004a30cd     libvcruntime:_exsup_.obj
 0001:000a20d0       _floor                     004a30d0 f   libucrt:floor_pentium4.obj
 0001:000a2110       __floor_pentium4           004a3110 f   libucrt:floor_pentium4.obj
 0001:000a21d0       _strlen                    004a31d0 f   libucrt:strlen.obj
 0001:000a2260       _strcmp                    004a3260 f   libucrt:strcmp.obj
 0001:000a22f0       _sin                       004a32f0 f   libucrt:sin.obj
 0001:000a2330       __CIsin                    004a3330 f   libucrt:sin.obj
 0001:000a236b       __CIsin_default            004a336b f   libucrt:sin.obj
 0001:000a237f       __sin_default              004a337f     libucrt:sin.obj
 0001:000a2420       _cos                       004a3420 f   libucrt:cos.obj
 0001:000a2460       __CIcos                    004a3460 f   libucrt:cos.obj
 0001:000a249b       __CIcos_default            004a349b f   libucrt:cos.obj
 0001:000a24af       __cos_default              004a34af     libucrt:cos.obj
 0001:000a2542       _fabs                      004a3542 f   libucrt:fabs.obj
 0001:000a2600       __CIsqrt                   004a3600 f   libucrt:sqrt.obj
 0001:000a2614       _sqrt                      004a3614     libucrt:sqrt.obj
 0001:000a26c0       _ceil                      004a36c0 f   libucrt:ceil_pentium4.obj
 0001:000a2700       __ceil_pentium4            004a3700 f   libucrt:ceil_pentium4.obj
 0001:000a285a       ??Rthread_parameter_free_policy@?A0xe57bf005@@QAEXQAU__acrt_thread_parameter@@@Z 004a385a f i libucrt:thread.obj
 0001:000a2931       __beginthreadex            004a3931 f   libucrt:thread.obj
 0001:000a29b6       __endthreadex              004a39b6 f   libucrt:thread.obj
 0001:000a29c4       ??$?RV<lambda_db08b09ef7aa9d4f8620ce68402612bc>@@AAV<lambda_4f2c1eaeead2a5fc776db5b62ea0fb9b>@@V<lambda_3ae262bc35d4ba6a3825c4f6bcaaf95c>@@@?$__crt_seh_guarded_call@H@@QAEH$$QAV<lambda_db08b09ef7aa9d4f8620ce68402612bc>@@AAV<lambda_4f2c1eaeead2a5fc776db5b62ea0fb9b>@@$$QAV<lambda_3ae262bc35d4ba6a3825c4f6bcaaf95c>@@@Z 004a39c4 f i libucrt:output.obj
 0001:000a2a15       ??$__acrt_lock_stream_and_call@V<lambda_4f2c1eaeead2a5fc776db5b62ea0fb9b>@@@@YAHQAU_iobuf@@$$QAV<lambda_4f2c1eaeead2a5fc776db5b62ea0fb9b>@@@Z 004a3a15 f i libucrt:output.obj
 0001:000a2bb9       ??$count@D@formatting_buffer@__crt_stdio_output@@QBEIXZ 004a3bb9 f i libucrt:output.obj
 0001:000a2bd1       ??$ensure_buffer_is_big_enough@D@formatting_buffer@__crt_stdio_output@@QAE_NI@Z 004a3bd1 f i libucrt:output.obj
 0001:000a2c57       ??$is_wide_character_specifier@D@__crt_stdio_output@@YA_N_KDW4length_modifier@0@@Z 004a3c57 f i libucrt:output.obj
 0001:000a2c97       ??$scratch_data@D@formatting_buffer@__crt_stdio_output@@QAEPADXZ 004a3c97 f i libucrt:output.obj
 0001:000a2cb5       ??$type_case_integer_parse_into_buffer@I@?$output_processor@DV?$string_output_adapter@D@__crt_stdio_output@@V?$standard_base@DV?$string_output_adapter@D@__crt_stdio_output@@@2@@__crt_stdio_output@@AAEXII_N@Z 004a3cb5 f i libucrt:output.obj
 0001:000a2cb5       ??$type_case_integer_parse_into_buffer@I@?$output_processor@DV?$stream_output_adapter@D@__crt_stdio_output@@V?$standard_base@DV?$stream_output_adapter@D@__crt_stdio_output@@@2@@__crt_stdio_output@@AAEXII_N@Z 004a3cb5 f i libucrt:output.obj
 0001:000a2d2a       ??$type_case_integer_parse_into_buffer@_K@?$output_processor@DV?$stream_output_adapter@D@__crt_stdio_output@@V?$standard_base@DV?$stream_output_adapter@D@__crt_stdio_output@@@2@@__crt_stdio_output@@AAEX_KI_N@Z 004a3d2a f i libucrt:output.obj
 0001:000a2d2a       ??$type_case_integer_parse_into_buffer@_K@?$output_processor@DV?$string_output_adapter@D@__crt_stdio_output@@V?$standard_base@DV?$string_output_adapter@D@__crt_stdio_output@@@2@@__crt_stdio_output@@AAEX_KI_N@Z 004a3d2a f i libucrt:output.obj
 0001:000a2db2       ??$write_multiple_characters@V?$stream_output_adapter@D@__crt_stdio_output@@D@__crt_stdio_output@@YAXABV?$stream_output_adapter@D@0@DHQAH@Z 004a3db2 f i libucrt:output.obj
 0001:000a2dde       ??$write_multiple_characters@V?$string_output_adapter@D@__crt_stdio_output@@D@__crt_stdio_output@@YAXABV?$string_output_adapter@D@0@DHQAH@Z 004a3dde f i libucrt:output.obj
 0001:000a2e0a       ??0?$common_data@D@__crt_stdio_output@@IAE@XZ 004a3e0a f i libucrt:output.obj
 0001:000a2e51       ??0?$output_adapter_data@DV?$stream_output_adapter@D@__crt_stdio_output@@@__crt_stdio_output@@IAE@ABV?$stream_output_adapter@D@1@_KQBDQAU__crt_locale_pointers@@QAD@Z 004a3e51 f i libucrt:output.obj
 0001:000a2e51       ??0?$output_adapter_data@DV?$string_output_adapter@D@__crt_stdio_output@@@__crt_stdio_output@@IAE@ABV?$string_output_adapter@D@1@_KQBDQAU__crt_locale_pointers@@QAD@Z 004a3e51 f i libucrt:output.obj
 0001:000a2e8d       ??0?$output_processor@DV?$stream_output_adapter@D@__crt_stdio_output@@V?$standard_base@DV?$stream_output_adapter@D@__crt_stdio_output@@@2@@__crt_stdio_output@@QAE@ABV?$stream_output_adapter@D@1@_KQBDQAU__crt_locale_pointers@@QAD@Z 004a3e8d f i libucrt:output.obj
 0001:000a2e8d       ??0?$output_processor@DV?$string_output_adapter@D@__crt_stdio_output@@V?$standard_base@DV?$string_output_adapter@D@__crt_stdio_output@@@2@@__crt_stdio_output@@QAE@ABV?$string_output_adapter@D@1@_KQBDQAU__crt_locale_pointers@@QAD@Z 004a3e8d f i libucrt:output.obj
 0001:000a2ec2       ??0_LocaleUpdate@@QAE@QAU__crt_locale_pointers@@@Z 004a3ec2 f i libucrt:output.obj
 0001:000a2f45       ??1formatting_buffer@__crt_stdio_output@@QAE@XZ 004a3f45 f i libucrt:output.obj
 0001:000a2f5f       ??4?$__crt_unique_heap_ptr@DU__crt_internal_free_policy@@@@QAEAAV0@$$QAV0@@Z 004a3f5f f i libucrt:output.obj
 0001:000a3040       ?crop_zeroes@__crt_stdio_output@@YAXPADQAU__crt_locale_pointers@@@Z 004a4040 f i libucrt:output.obj
 0001:000a3097       ?find_next_state@?$output_processor@DV?$stream_output_adapter@D@__crt_stdio_output@@V?$standard_base@DV?$stream_output_adapter@D@__crt_stdio_output@@@2@@__crt_stdio_output@@ABE?AW4state@2@DW432@@Z 004a4097 f i libucrt:output.obj
 0001:000a3097       ?find_next_state@?$output_processor@DV?$string_output_adapter@D@__crt_stdio_output@@V?$standard_base@DV?$string_output_adapter@D@__crt_stdio_output@@@2@@__crt_stdio_output@@ABE?AW4state@2@DW432@@Z 004a4097 f i libucrt:output.obj
 0001:000a30c9       ?force_decimal_point@__crt_stdio_output@@YAXPADQAU__crt_locale_pointers@@@Z 004a40c9 f i libucrt:output.obj
 0001:000a3125       ?parse_int_from_format_string@?$output_processor@DV?$string_output_adapter@D@__crt_stdio_output@@V?$standard_base@DV?$string_output_adapter@D@__crt_stdio_output@@@2@@__crt_stdio_output@@AAE_NQAH@Z 004a4125 f i libucrt:output.obj
 0001:000a3125       ?parse_int_from_format_string@?$output_processor@DV?$stream_output_adapter@D@__crt_stdio_output@@V?$standard_base@DV?$stream_output_adapter@D@__crt_stdio_output@@@2@@__crt_stdio_output@@AAE_NQAH@Z 004a4125 f i libucrt:output.obj
 0001:000a3181       ?process@?$output_processor@DV?$stream_output_adapter@D@__crt_stdio_output@@V?$standard_base@DV?$stream_output_adapter@D@__crt_stdio_output@@@2@@__crt_stdio_output@@QAEHXZ 004a4181 f i libucrt:output.obj
 0001:000a329d       ?process@?$output_processor@DV?$string_output_adapter@D@__crt_stdio_output@@V?$standard_base@DV?$string_output_adapter@D@__crt_stdio_output@@@2@@__crt_stdio_output@@QAEHXZ 004a429d f i libucrt:output.obj
 0001:000a33b9       ?state_case_flag@?$output_processor@DV?$stream_output_adapter@D@__crt_stdio_output@@V?$standard_base@DV?$stream_output_adapter@D@__crt_stdio_output@@@2@@__crt_stdio_output@@AAE_NXZ 004a43b9 f i libucrt:output.obj
 0001:000a33b9       ?state_case_flag@?$output_processor@DV?$string_output_adapter@D@__crt_stdio_output@@V?$standard_base@DV?$string_output_adapter@D@__crt_stdio_output@@@2@@__crt_stdio_output@@AAE_NXZ 004a43b9 f i libucrt:output.obj
 0001:000a33f6       ?state_case_normal@?$output_processor@DV?$stream_output_adapter@D@__crt_stdio_output@@V?$standard_base@DV?$stream_output_adapter@D@__crt_stdio_output@@@2@@__crt_stdio_output@@AAE_NXZ 004a43f6 f i libucrt:output.obj
 0001:000a3415       ?state_case_normal@?$output_processor@DV?$string_output_adapter@D@__crt_stdio_output@@V?$standard_base@DV?$string_output_adapter@D@__crt_stdio_output@@@2@@__crt_stdio_output@@AAE_NXZ 004a4415 f i libucrt:output.obj
 0001:000a3434       ?state_case_normal_common@?$output_processor@DV?$stream_output_adapter@D@__crt_stdio_output@@V?$standard_base@DV?$stream_output_adapter@D@__crt_stdio_output@@@2@@__crt_stdio_output@@AAE_NXZ 004a4434 f i libucrt:output.obj
 0001:000a345e       ?state_case_normal_common@?$output_processor@DV?$string_output_adapter@D@__crt_stdio_output@@V?$standard_base@DV?$string_output_adapter@D@__crt_stdio_output@@@2@@__crt_stdio_output@@AAE_NXZ 004a445e f i libucrt:output.obj
 0001:000a3488       ?state_case_normal_tchar@?$output_processor@DV?$stream_output_adapter@D@__crt_stdio_output@@V?$standard_base@DV?$stream_output_adapter@D@__crt_stdio_output@@@2@@__crt_stdio_output@@AAE_ND@Z 004a4488 f i libucrt:output.obj
 0001:000a34e9       ?state_case_normal_tchar@?$output_processor@DV?$string_output_adapter@D@__crt_stdio_output@@V?$standard_base@DV?$string_output_adapter@D@__crt_stdio_output@@@2@@__crt_stdio_output@@AAE_ND@Z 004a44e9 f i libucrt:output.obj
 0001:000a354a       ?state_case_precision@?$output_processor@DV?$stream_output_adapter@D@__crt_stdio_output@@V?$standard_base@DV?$stream_output_adapter@D@__crt_stdio_output@@@2@@__crt_stdio_output@@AAE_NXZ 004a454a f i libucrt:output.obj
 0001:000a354a       ?state_case_precision@?$output_processor@DV?$string_output_adapter@D@__crt_stdio_output@@V?$standard_base@DV?$string_output_adapter@D@__crt_stdio_output@@@2@@__crt_stdio_output@@AAE_NXZ 004a454a f i libucrt:output.obj
 0001:000a3572       ?state_case_size@?$output_processor@DV?$stream_output_adapter@D@__crt_stdio_output@@V?$standard_base@DV?$stream_output_adapter@D@__crt_stdio_output@@@2@@__crt_stdio_output@@AAE_NXZ 004a4572 f i libucrt:output.obj
 0001:000a36db       ?state_case_size@?$output_processor@DV?$string_output_adapter@D@__crt_stdio_output@@V?$standard_base@DV?$string_output_adapter@D@__crt_stdio_output@@@2@@__crt_stdio_output@@AAE_NXZ 004a46db f i libucrt:output.obj
 0001:000a3844       ?state_case_type@?$output_processor@DV?$stream_output_adapter@D@__crt_stdio_output@@V?$standard_base@DV?$stream_output_adapter@D@__crt_stdio_output@@@2@@__crt_stdio_output@@AAE_NXZ 004a4844 f i libucrt:output.obj
 0001:000a3a73       ?state_case_type@?$output_processor@DV?$string_output_adapter@D@__crt_stdio_output@@V?$standard_base@DV?$string_output_adapter@D@__crt_stdio_output@@@2@@__crt_stdio_output@@AAE_NXZ 004a4a73 f i libucrt:output.obj
 0001:000a3ca2       ?state_case_width@?$output_processor@DV?$string_output_adapter@D@__crt_stdio_output@@V?$standard_base@DV?$string_output_adapter@D@__crt_stdio_output@@@2@@__crt_stdio_output@@AAE_NXZ 004a4ca2 f i libucrt:output.obj
 0001:000a3ca2       ?state_case_width@?$output_processor@DV?$stream_output_adapter@D@__crt_stdio_output@@V?$standard_base@DV?$stream_output_adapter@D@__crt_stdio_output@@@2@@__crt_stdio_output@@AAE_NXZ 004a4ca2 f i libucrt:output.obj
 0001:000a3ccd       ?to_integer_size@__crt_stdio_output@@YAIW4length_modifier@1@@Z 004a4ccd f i libucrt:output.obj
 0001:000a3d29       ?type_case_Z@?$output_processor@DV?$stream_output_adapter@D@__crt_stdio_output@@V?$standard_base@DV?$stream_output_adapter@D@__crt_stdio_output@@@2@@__crt_stdio_output@@AAE_NXZ 004a4d29 f i libucrt:output.obj
 0001:000a3d29       ?type_case_Z@?$output_processor@DV?$string_output_adapter@D@__crt_stdio_output@@V?$standard_base@DV?$string_output_adapter@D@__crt_stdio_output@@@2@@__crt_stdio_output@@AAE_NXZ 004a4d29 f i libucrt:output.obj
 0001:000a3d8c       ?type_case_a@?$output_processor@DV?$string_output_adapter@D@__crt_stdio_output@@V?$standard_base@DV?$string_output_adapter@D@__crt_stdio_output@@@2@@__crt_stdio_output@@AAE_NXZ 004a4d8c f i libucrt:output.obj
 0001:000a3d8c       ?type_case_a@?$output_processor@DV?$stream_output_adapter@D@__crt_stdio_output@@V?$standard_base@DV?$stream_output_adapter@D@__crt_stdio_output@@@2@@__crt_stdio_output@@AAE_NXZ 004a4d8c f i libucrt:output.obj
 0001:000a3ee6       ?type_case_c_tchar@?$output_processor@DV?$stream_output_adapter@D@__crt_stdio_output@@V?$standard_base@DV?$stream_output_adapter@D@__crt_stdio_output@@@2@@__crt_stdio_output@@AAE_ND@Z 004a4ee6 f i libucrt:output.obj
 0001:000a3ee6       ?type_case_c_tchar@?$output_processor@DV?$string_output_adapter@D@__crt_stdio_output@@V?$standard_base@DV?$string_output_adapter@D@__crt_stdio_output@@@2@@__crt_stdio_output@@AAE_ND@Z 004a4ee6 f i libucrt:output.obj
 0001:000a3f76       ?type_case_integer@?$output_processor@DV?$stream_output_adapter@D@__crt_stdio_output@@V?$standard_base@DV?$stream_output_adapter@D@__crt_stdio_output@@@2@@__crt_stdio_output@@AAE_NI_N@Z 004a4f76 f i libucrt:output.obj
 0001:000a3f76       ?type_case_integer@?$output_processor@DV?$string_output_adapter@D@__crt_stdio_output@@V?$standard_base@DV?$string_output_adapter@D@__crt_stdio_output@@@2@@__crt_stdio_output@@AAE_NI_N@Z 004a4f76 f i libucrt:output.obj
 0001:000a40c0       ?type_case_n@?$output_processor@DV?$string_output_adapter@D@__crt_stdio_output@@V?$standard_base@DV?$string_output_adapter@D@__crt_stdio_output@@@2@@__crt_stdio_output@@AAE_NXZ 004a50c0 f i libucrt:output.obj
 0001:000a40c0       ?type_case_n@?$output_processor@DV?$stream_output_adapter@D@__crt_stdio_output@@V?$standard_base@DV?$stream_output_adapter@D@__crt_stdio_output@@@2@@__crt_stdio_output@@AAE_NXZ 004a50c0 f i libucrt:output.obj
 0001:000a4134       ?type_case_o@?$output_processor@DV?$stream_output_adapter@D@__crt_stdio_output@@V?$standard_base@DV?$stream_output_adapter@D@__crt_stdio_output@@@2@@__crt_stdio_output@@AAE_NXZ 004a5134 f i libucrt:output.obj
 0001:000a4134       ?type_case_o@?$output_processor@DV?$string_output_adapter@D@__crt_stdio_output@@V?$standard_base@DV?$string_output_adapter@D@__crt_stdio_output@@@2@@__crt_stdio_output@@AAE_NXZ 004a5134 f i libucrt:output.obj
 0001:000a4153       ?type_case_p@?$output_processor@DV?$string_output_adapter@D@__crt_stdio_output@@V?$standard_base@DV?$string_output_adapter@D@__crt_stdio_output@@@2@@__crt_stdio_output@@AAE_NXZ 004a5153 f i libucrt:output.obj
 0001:000a4153       ?type_case_p@?$output_processor@DV?$stream_output_adapter@D@__crt_stdio_output@@V?$standard_base@DV?$stream_output_adapter@D@__crt_stdio_output@@@2@@__crt_stdio_output@@AAE_NXZ 004a5153 f i libucrt:output.obj
 0001:000a416b       ?type_case_s@?$output_processor@DV?$stream_output_adapter@D@__crt_stdio_output@@V?$standard_base@DV?$stream_output_adapter@D@__crt_stdio_output@@@2@@__crt_stdio_output@@AAE_NXZ 004a516b f i libucrt:output.obj
 0001:000a416b       ?type_case_s@?$output_processor@DV?$string_output_adapter@D@__crt_stdio_output@@V?$standard_base@DV?$string_output_adapter@D@__crt_stdio_output@@@2@@__crt_stdio_output@@AAE_NXZ 004a516b f i libucrt:output.obj
 0001:000a41de       ?validate@?$stream_output_adapter@D@__crt_stdio_output@@QBE_NXZ 004a51de f i libucrt:output.obj
 0001:000a41ff       ?validate@?$string_output_adapter@D@__crt_stdio_output@@QBE_NXZ 004a51ff f i libucrt:output.obj
 0001:000a41ff       ?validate@?$c_string_character_source@D@__crt_strtox@@QBE_NXZ 004a51ff f i libucrt:atox.obj
 0001:000a421a       ?validate_stream_is_ansi_if_required@?$__acrt_stdio_char_traits@D@@SA_NQAU_iobuf@@@Z 004a521a f i libucrt:output.obj
 0001:000a429c       ?write_character@?$stream_output_adapter@D@__crt_stdio_output@@QBEXDQAH@Z 004a529c f i libucrt:output.obj
 0001:000a42d9       ?write_character@?$string_output_adapter@D@__crt_stdio_output@@QBE_NDQAH@Z 004a52d9 f i libucrt:output.obj
 0001:000a431b       ?write_stored_string_tchar@?$output_processor@DV?$stream_output_adapter@D@__crt_stdio_output@@V?$standard_base@DV?$stream_output_adapter@D@__crt_stdio_output@@@2@@__crt_stdio_output@@AAE_ND@Z 004a531b f i libucrt:output.obj
 0001:000a43c2       ?write_stored_string_tchar@?$output_processor@DV?$string_output_adapter@D@__crt_stdio_output@@V?$standard_base@DV?$string_output_adapter@D@__crt_stdio_output@@@2@@__crt_stdio_output@@AAE_ND@Z 004a53c2 f i libucrt:output.obj
 0001:000a4469       ?write_string@?$stream_output_adapter@D@__crt_stdio_output@@QBEXQBDHQAH1@Z 004a5469 f i libucrt:output.obj
 0001:000a44f3       ?write_string@?$string_output_adapter@D@__crt_stdio_output@@QBEXQBDHQAH1@Z 004a54f3 f i libucrt:output.obj
 0001:000a4586       ___stdio_common_vfprintf   004a5586 f   libucrt:output.obj
 0001:000a45fd       ___stdio_common_vsprintf   004a55fd f   libucrt:output.obj
 0001:000a4621       _abs                       004a5621 f   libucrt:abs.obj
 0001:000a4630       _strpbrk                   004a5630 f   libucrt:strpbrk.obj
 0001:000a4670       _atan2                     004a5670 f   libucrt:87ctriga.obj
 0001:000a467a       __CIatan2                  004a567a f   libucrt:87ctriga.obj
 0001:000a4690       _asin                      004a5690 f   libucrt:asin.obj
 0001:000a46d0       __CIasin                   004a56d0 f   libucrt:asin.obj
 0001:000a470b       __CIasin_default           004a570b f   libucrt:asin.obj
 0001:000a471f       __asin_default             004a571f     libucrt:asin.obj
 0001:000a47d6       ___acrt_initialize_stdio   004a57d6 f   libucrt:_file.obj
 0001:000a489e       ___acrt_iob_func           004a589e f   libucrt:_file.obj
 0001:000a48ae       ___acrt_uninitialize_stdio 004a58ae f   libucrt:_file.obj
 0001:000a48fa       __lock_file                004a58fa f   libucrt:_file.obj
 0001:000a490e       __unlock_file              004a590e f   libucrt:_file.obj
 0001:000a4930       _pow                       004a5930 f   libucrt:pow.obj
 0001:000a4970       __CIpow                    004a5970 f   libucrt:pow.obj
 0001:000a49ab       __CIpow_default            004a59ab f   libucrt:pow.obj
 0001:000a49c4       __pow_default              004a59c4     libucrt:pow.obj
 0001:000a4bc0       _fmod                      004a5bc0 f   libucrt:87fmod.obj
 0001:000a4bca       __CIfmod                   004a5bca f   libucrt:87fmod.obj
 0001:000a4bf0       _tan                       004a5bf0 f   libucrt:tan.obj
 0001:000a4c30       __CItan                    004a5c30 f   libucrt:tan.obj
 0001:000a4c6b       __CItan_default            004a5c6b f   libucrt:tan.obj
 0001:000a4c7f       __tan_default              004a5c7f     libucrt:tan.obj
 0001:000a4d16       _remove                    004a5d16 f   libucrt:unlink.obj
 0001:000a4d63       _rename                    004a5d63 f   libucrt:rename.obj
 0001:000a4e29       __fclose_nolock            004a5e29 f   libucrt:fclose.obj
 0001:000a4e9f       _fclose                    004a5e9f f   libucrt:fclose.obj
 0001:000a4fe0       _fopen                     004a5fe0 f   libucrt:fopen.obj
 0001:000a4ff7       ??$?RV<lambda_d92cfe8357b99225085016881b624cb0>@@AAV<lambda_b721fa326cdb32351d23dfa67958c160>@@V<lambda_42d75b0848218ec137fa420c8ba9fdf9>@@@?$__crt_seh_guarded_call@H@@QAEH$$QAV<lambda_d92cfe8357b99225085016881b624cb0>@@AAV<lambda_b721fa326cdb32351d23dfa67958c160>@@$$QAV<lambda_42d75b0848218ec137fa420c8ba9fdf9>@@@Z 004a5ff7 f i libucrt:setvbuf.obj
 0001:000a5048       ??$__acrt_lock_stream_and_call@V<lambda_b721fa326cdb32351d23dfa67958c160>@@@@YAHQAU_iobuf@@$$QAV<lambda_b721fa326cdb32351d23dfa67958c160>@@@Z 004a6048 f i libucrt:setvbuf.obj
 0001:000a513d       _setvbuf                   004a613d f   libucrt:setvbuf.obj
 0001:000a51b3       ??$?RV<lambda_11b4f7b0d3157825a5656a18eba1ae27>@@AAV<lambda_b51c0495177f500e782686251704ae76>@@V<lambda_cf89b47920b5017557bfe891e78aca36>@@@?$__crt_seh_guarded_call@I@@QAEI$$QAV<lambda_11b4f7b0d3157825a5656a18eba1ae27>@@AAV<lambda_b51c0495177f500e782686251704ae76>@@$$QAV<lambda_cf89b47920b5017557bfe891e78aca36>@@@Z 004a61b3 f i libucrt:fwrite.obj
 0001:000a5204       ??$__acrt_lock_stream_and_call@V<lambda_b51c0495177f500e782686251704ae76>@@@@YAIQAU_iobuf@@$$QAV<lambda_b51c0495177f500e782686251704ae76>@@@Z 004a6204 f i libucrt:fwrite.obj
 0001:000a5272       __fwrite_nolock            004a6272 f   libucrt:fwrite.obj
 0001:000a53eb       _fwrite                    004a63eb f   libucrt:fwrite.obj
 0001:000a5443       __chvalidchk_l             004a6443 f i libucrt:_ctype.obj
 0001:000a546d       __isalpha_l                004a646d f i libucrt:_ctype.obj
 0001:000a54a8       __ischartype_l             004a64a8 f i libucrt:_ctype.obj
 0001:000a54db       __isdigit_l                004a64db f i libucrt:_ctype.obj
 0001:000a5513       __isspace_l                004a6513 f i libucrt:_ctype.obj
 0001:000a554b       __isxdigit_l               004a654b f i libucrt:_ctype.obj
 0001:000a5586       _isalpha                   004a6586 f i libucrt:_ctype.obj
 0001:000a55b5       _isdigit                   004a65b5 f i libucrt:_ctype.obj
 0001:000a55e2       _isspace                   004a65e2 f i libucrt:_ctype.obj
 0001:000a560f       _isxdigit                  004a660f f i libucrt:_ctype.obj
 0001:000a5640       _strcpy                    004a6640 f   libucrt:strcat.obj
 0001:000a5650       _strcat                    004a6650 f   libucrt:strcat.obj
 0001:000a5738       ??$__crt_fast_encode_pointer@P6AHXZ@@YAP6AHXZQ6AHXZ@Z 004a6738 f i libucrt:onexit.obj
 0001:000a5738       ??$__crt_fast_encode_pointer@P6AHPAU_exception@@@Z@@YAP6AHPAU_exception@@@ZQ6AH0@Z@Z 004a6738 f i libucrt:matherr.obj
 0001:000a5738       ??$__crt_fast_encode_pointer@P6GXPAXK0@Z@@YAP6GXPAXK0@ZQ6GX0K0@Z@Z 004a6738 f i libucrt:exit.obj
 0001:000a5972       ___acrt_initialize_thread_local_exit_callback 004a6972 f   libucrt:exit.obj
 0001:000a5981       __c_exit                   004a6981 f   libucrt:exit.obj
 0001:000a5990       __cexit                    004a6990 f   libucrt:exit.obj
 0001:000a599f       __exit                     004a699f f   libucrt:exit.obj
 0001:000a59b5       __register_thread_local_exe_atexit_callback 004a69b5 f   libucrt:exit.obj
 0001:000a59ed       _exit                      004a69ed f   libucrt:exit.obj
 0001:000a5a03       ??$is_overflow_condition@K@__crt_strtox@@YA_NIK@Z 004a6a03 f i libucrt:atox.obj
 0001:000a5a36       ??$is_overflow_condition@_K@__crt_strtox@@YA_NI_K@Z 004a6a36 f i libucrt:atox.obj
 0001:000a5a79       ??$make_c_string_character_source@D$$T@__crt_strtox@@YA?AV?$c_string_character_source@D@0@QBD$$T@Z 004a6a79 f i libucrt:atox.obj
 0001:000a5a79       ??$make_c_string_character_source@DPAPAD@__crt_strtox@@YA?AV?$c_string_character_source@D@0@QBDQAPAD@Z 004a6a79 f i libucrt:strtod.obj
 0001:000a5a94       ??$parse_integer@KV?$c_string_character_source@D@__crt_strtox@@@__crt_strtox@@YAKQAU__crt_locale_pointers@@V?$c_string_character_source@D@0@H_N@Z 004a6a94 f i libucrt:atox.obj
 0001:000a5cbc       ??$parse_integer@_KV?$c_string_character_source@D@__crt_strtox@@@__crt_strtox@@YA_KQAU__crt_locale_pointers@@V?$c_string_character_source@D@0@H_N@Z 004a6cbc f i libucrt:atox.obj
 0001:000a5f62       ?unget@?$c_string_character_source@D@__crt_strtox@@QAEXD@Z 004a6f62 f i libucrt:atox.obj
 0001:000a5f8a       _atoi                      004a6f8a f   libucrt:atox.obj
 0001:000a5f8a       _atol                      004a6f8a f   libucrt:atox.obj
 0001:000a5fb4       ??$assemble_floating_point_ind@N@__crt_strtox@@YAXAAN@Z 004a6fb4 f i libucrt:input.obj
 0001:000a5fe3       ??$assemble_floating_point_infinity@N@__crt_strtox@@YAX_NAAN@Z 004a6fe3 f i libucrt:input.obj
 0001:000a6022       ??$assemble_floating_point_qnan@N@__crt_strtox@@YAX_NAAN@Z 004a7022 f i libucrt:input.obj
 0001:000a6061       ??$assemble_floating_point_snan@N@__crt_strtox@@YAX_NAAN@Z 004a7061 f i libucrt:input.obj
 0001:000a60a5       ??$assemble_floating_point_value_t@M@__crt_strtox@@YA?AW4SLD_STATUS@@_NH_KAAM@Z 004a70a5 f i libucrt:input.obj
 0001:000a60d5       ??$assemble_floating_point_value_t@N@__crt_strtox@@YA?AW4SLD_STATUS@@_NH_KAAN@Z 004a70d5 f i libucrt:input.obj
 0001:000a6134       ??$assemble_floating_point_zero@N@__crt_strtox@@YAX_NAAN@Z 004a7134 f i libucrt:input.obj
 0001:000a6232       ??$convert_decimal_string_to_floating_type@M@__crt_strtox@@YA?AW4SLD_STATUS@@ABUfloating_point_string@0@AAM@Z 004a7232 f i libucrt:input.obj
 0001:000a6255       ??$convert_decimal_string_to_floating_type@N@__crt_strtox@@YA?AW4SLD_STATUS@@ABUfloating_point_string@0@AAN@Z 004a7255 f i libucrt:input.obj
 0001:000a6278       ??$convert_hexadecimal_string_to_floating_type@M@__crt_strtox@@YA?AW4SLD_STATUS@@ABUfloating_point_string@0@AAM@Z 004a7278 f i libucrt:input.obj
 0001:000a629b       ??$convert_hexadecimal_string_to_floating_type@N@__crt_strtox@@YA?AW4SLD_STATUS@@ABUfloating_point_string@0@AAN@Z 004a729b f i libucrt:input.obj
 0001:000a62be       ??$make_input_adapter_character_source@V?$string_input_adapter@D@__crt_stdio_input@@@__crt_strtox@@YA?AV?$input_adapter_character_source@V?$string_input_adapter@D@__crt_stdio_input@@@0@QAV?$string_input_adapter@D@__crt_stdio_input@@_KQA_N@Z 004a72be f i libucrt:input.obj
 0001:000a62dc       ??$parse_floating_point@V?$input_adapter_character_source@V?$string_input_adapter@D@__crt_stdio_input@@@__crt_strtox@@M@__crt_strtox@@YA?AW4SLD_STATUS@@QAU__crt_locale_pointers@@V?$input_adapter_character_source@V?$string_input_adapter@D@__crt_stdio_input@@@0@QAM@Z 004a72dc f i libucrt:input.obj
 0001:000a6357       ??$parse_floating_point@V?$input_adapter_character_source@V?$string_input_adapter@D@__crt_stdio_input@@@__crt_strtox@@N@__crt_strtox@@YA?AW4SLD_STATUS@@QAU__crt_locale_pointers@@V?$input_adapter_character_source@V?$string_input_adapter@D@__crt_stdio_input@@@0@QAN@Z 004a7357 f i libucrt:input.obj
 0001:000a63d2       ??$parse_floating_point_from_source@V?$input_adapter_character_source@V?$string_input_adapter@D@__crt_stdio_input@@@__crt_strtox@@@__crt_strtox@@YA?AW4floating_point_parse_result@0@QAU__crt_locale_pointers@@AAV?$input_adapter_character_source@V?$string_input_adapter@D@__crt_stdio_input@@@0@AAUfloating_point_string@0@@Z 004a73d2 f i libucrt:input.obj
 0001:000a6839       ??$parse_floating_point_possible_infinity@DV?$input_adapter_character_source@V?$string_input_adapter@D@__crt_stdio_input@@@__crt_strtox@@_K@__crt_strtox@@YA?AW4floating_point_parse_result@0@AADAAV?$input_adapter_character_source@V?$string_input_adapter@D@__crt_stdio_input@@@0@_K@Z 004a7839 f i libucrt:input.obj
 0001:000a68fa       ??$parse_floating_point_possible_nan@DV?$input_adapter_character_source@V?$string_input_adapter@D@__crt_stdio_input@@@__crt_strtox@@_K@__crt_strtox@@YA?AW4floating_point_parse_result@0@AADAAV?$input_adapter_character_source@V?$string_input_adapter@D@__crt_stdio_input@@@0@_K@Z 004a78fa f i libucrt:input.obj
 0001:000a6a0c       ??$parse_floating_point_possible_nan_is_ind@DV?$input_adapter_character_source@V?$string_input_adapter@D@__crt_stdio_input@@@__crt_strtox@@@__crt_strtox@@YA_NAADAAV?$input_adapter_character_source@V?$string_input_adapter@D@__crt_stdio_input@@@0@@Z 004a7a0c f i libucrt:input.obj
 0001:000a6a46       ??$parse_floating_point_possible_nan_is_snan@DV?$input_adapter_character_source@V?$string_input_adapter@D@__crt_stdio_input@@@__crt_strtox@@@__crt_strtox@@YA_NAADAAV?$input_adapter_character_source@V?$string_input_adapter@D@__crt_stdio_input@@@0@@Z 004a7a46 f i libucrt:input.obj
 0001:000a6a80       ??$parse_floating_point_write_result@M@__crt_strtox@@YA?AW4SLD_STATUS@@W4floating_point_parse_result@0@ABUfloating_point_string@0@QAM@Z 004a7a80 f i libucrt:input.obj
 0001:000a6b90       ??$parse_floating_point_write_result@N@__crt_strtox@@YA?AW4SLD_STATUS@@W4floating_point_parse_result@0@ABUfloating_point_string@0@QAN@Z 004a7b90 f i libucrt:input.obj
 0001:000a6c94       ??$parse_integer@_KV?$input_adapter_character_source@V?$string_input_adapter@D@__crt_stdio_input@@@__crt_strtox@@@__crt_strtox@@YA_KQAU__crt_locale_pointers@@V?$input_adapter_character_source@V?$string_input_adapter@D@__crt_stdio_input@@@0@H_N@Z 004a7c94 f i libucrt:input.obj
 0001:000a6f45       ??$process_floating_point_specifier_t@M@?$input_processor@DV?$string_input_adapter@D@__crt_stdio_input@@@__crt_stdio_input@@AAE_NXZ 004a7f45 f i libucrt:input.obj
 0001:000a6fad       ??$process_floating_point_specifier_t@N@?$input_processor@DV?$string_input_adapter@D@__crt_stdio_input@@@__crt_stdio_input@@AAE_NXZ 004a7fad f i libucrt:input.obj
 0001:000a7015       ??$process_string_specifier_tchar@D@?$input_processor@DV?$string_input_adapter@D@__crt_stdio_input@@@__crt_stdio_input@@AAE_NW4conversion_mode@1@D@Z 004a8015 f i libucrt:input.obj
 0001:000a7177       ??$process_string_specifier_tchar@_W@?$input_processor@DV?$string_input_adapter@D@__crt_stdio_input@@@__crt_stdio_input@@AAE_NW4conversion_mode@1@_W@Z 004a8177 f i libucrt:input.obj
 0001:000a72e3       ??$skip_whitespace@Vstring_input_adapter@__crt_stdio_input@@D@__crt_stdio_input@@YAHAAV?$string_input_adapter@D@0@QAU__crt_locale_pointers@@@Z 004a82e3 f i libucrt:input.obj
 0001:000a7312       ??$write_floating_point@M@?$input_processor@DV?$string_input_adapter@D@__crt_stdio_input@@@__crt_stdio_input@@AAE_NABM@Z 004a8312 f i libucrt:input.obj
 0001:000a7349       ??$write_floating_point@N@?$input_processor@DV?$string_input_adapter@D@__crt_stdio_input@@@__crt_stdio_input@@AAE_NABN@Z 004a8349 f i libucrt:input.obj
 0001:000a7386       ??0?$format_string_parser@D@__crt_stdio_input@@QAE@_KQBE@Z 004a8386 f i libucrt:input.obj
 0001:000a73d0       ??0?$input_adapter_character_source@V?$string_input_adapter@D@__crt_stdio_input@@@__crt_strtox@@QAE@QAV?$string_input_adapter@D@__crt_stdio_input@@_KQA_N@Z 004a83d0 f i libucrt:input.obj
 0001:000a7401       ??0?$input_processor@DV?$string_input_adapter@D@__crt_stdio_input@@@__crt_stdio_input@@QAE@ABV?$string_input_adapter@D@1@_KQBDQAU__crt_locale_pointers@@QAD@Z 004a8401 f i libucrt:input.obj
 0001:000a7473       ?advance@?$format_string_parser@D@__crt_stdio_input@@QAE_NXZ 004a8473 f i libucrt:input.obj
 0001:000a7593       ?as_double@floating_point_value@__crt_strtox@@QBEAANXZ 004a8593 f i libucrt:input.obj
 0001:000a75b8       ?as_float@floating_point_value@__crt_strtox@@QBEAAMXZ 004a85b8 f i libucrt:input.obj
 0001:000a75dd       ?assemble_floating_point_infinity@__crt_strtox@@YAX_NABVfloating_point_value@1@@Z 004a85dd f i libucrt:input.obj
 0001:000a7617       ?assemble_floating_point_value@__crt_strtox@@YA?AW4SLD_STATUS@@_KH_N1ABVfloating_point_value@1@@Z 004a8617 f i libucrt:input.obj
 0001:000a7963       ?assemble_floating_point_value_from_big_integer@__crt_strtox@@YA?AW4SLD_STATUS@@ABUbig_integer@1@I_N1ABVfloating_point_value@1@@Z 004a8963 f i libucrt:input.obj
 0001:000a7af1       ?assemble_floating_point_zero@__crt_strtox@@YAX_NABVfloating_point_value@1@@Z 004a8af1 f i libucrt:input.obj
 0001:000a7b25       ?convert_decimal_string_to_floating_type_common@__crt_strtox@@YA?AW4SLD_STATUS@@ABUfloating_point_string@1@ABVfloating_point_value@1@@Z 004a8b25 f i libucrt:input.obj
 0001:000a98e8       ?convert_hexadecimal_string_to_floating_type_common@__crt_strtox@@YA?AW4SLD_STATUS@@ABUfloating_point_string@1@ABVfloating_point_value@1@@Z 004aa8e8 f i libucrt:input.obj
 0001:000a9994       ?denormal_mantissa_mask@floating_point_value@__crt_strtox@@QBE_KXZ 004aa994 f i libucrt:input.obj
 0001:000a99b0       ?divide@__crt_strtox@@YA_KAAUbig_integer@1@ABU21@@Z 004aa9b0 f i libucrt:input.obj
 0001:000a9e5e       ?get@?$input_adapter_character_source@V?$string_input_adapter@D@__crt_stdio_input@@@__crt_strtox@@QAEDXZ 004aae5e f i libucrt:input.obj
 0001:000a9e98       ?get@?$string_input_adapter@D@__crt_stdio_input@@QAEHXZ 004aae98 f i libucrt:input.obj
 0001:000a9eae       ?invert@?$scanset_buffer@E@__crt_stdio_input@@QAEXXZ 004aaeae f i libucrt:input.obj
 0001:000a9ecc       ?is_character_allowed_in_string@?$input_processor@DV?$string_input_adapter@D@__crt_stdio_input@@@__crt_stdio_input@@ABE_NW4conversion_mode@2@H@Z 004aaecc f i libucrt:input.obj
 0001:000a9f12       ?length@?$format_string_parser@D@__crt_stdio_input@@QBEIXZ 004aaf12 f i libucrt:input.obj
 0001:000a9f53       ?normal_mantissa_mask@floating_point_value@__crt_strtox@@QBE_KXZ 004aaf53 f i libucrt:input.obj
 0001:000a9f6a       ?process@?$input_processor@DV?$string_input_adapter@D@__crt_stdio_input@@@__crt_stdio_input@@QAEHXZ 004aaf6a f i libucrt:input.obj
 0001:000a9fef       ?process_character_count_specifier@?$input_processor@DV?$string_input_adapter@D@__crt_stdio_input@@@__crt_stdio_input@@AAE_NXZ 004aafef f i libucrt:input.obj
 0001:000aa009       ?process_conversion_specifier@?$input_processor@DV?$string_input_adapter@D@__crt_stdio_input@@@__crt_stdio_input@@AAE_NXZ 004ab009 f i libucrt:input.obj
 0001:000aa07d       ?process_floating_point_specifier@?$input_processor@DV?$string_input_adapter@D@__crt_stdio_input@@@__crt_stdio_input@@AAE_NXZ 004ab07d f i libucrt:input.obj
 0001:000aa0ad       ?process_integer_specifier@?$input_processor@DV?$string_input_adapter@D@__crt_stdio_input@@@__crt_stdio_input@@AAE_NI_N@Z 004ab0ad f i libucrt:input.obj
 0001:000aa113       ?process_literal_character@?$input_processor@DV?$string_input_adapter@D@__crt_stdio_input@@@__crt_stdio_input@@AAE_NXZ 004ab113 f i libucrt:input.obj
 0001:000aa149       ?process_literal_character_tchar@?$input_processor@DV?$string_input_adapter@D@__crt_stdio_input@@@__crt_stdio_input@@AAE_ND@Z 004ab149 f i libucrt:input.obj
 0001:000aa19f       ?process_state@?$input_processor@DV?$string_input_adapter@D@__crt_stdio_input@@@__crt_stdio_input@@AAE_NXZ 004ab19f f i libucrt:input.obj
 0001:000aa1d5       ?process_string_specifier@?$input_processor@DV?$string_input_adapter@D@__crt_stdio_input@@@__crt_stdio_input@@AAE_NW4conversion_mode@2@@Z 004ab1d5 f i libucrt:input.obj
 0001:000aa21d       ?process_whitespace@?$input_processor@DV?$string_input_adapter@D@__crt_stdio_input@@@__crt_stdio_input@@AAE_NXZ 004ab21d f i libucrt:input.obj
 0001:000aa23a       ?restore_state@?$input_adapter_character_source@V?$string_input_adapter@D@__crt_stdio_input@@@__crt_strtox@@QAE_N_K@Z 004ab23a f i libucrt:input.obj
 0001:000aa25f       ?scan_conversion_specifier@?$format_string_parser@D@__crt_stdio_input@@AAE_NXZ 004ab25f f i libucrt:input.obj
 0001:000aa3ca       ?scan_optional_field_width@?$format_string_parser@D@__crt_stdio_input@@AAE_NXZ 004ab3ca f i libucrt:input.obj
 0001:000aa469       ?scan_optional_length_modifier@?$format_string_parser@D@__crt_stdio_input@@AAEXXZ 004ab469 f i libucrt:input.obj
 0001:000aa589       ?scan_optional_literal_character_trail_bytes_tchar@?$format_string_parser@D@__crt_stdio_input@@AAE_ND@Z 004ab589 f i libucrt:input.obj
 0001:000aa5de       ?scan_optional_wide_modifier@?$format_string_parser@D@__crt_stdio_input@@AAEXXZ 004ab5de f i libucrt:input.obj
 0001:000aa5fc       ?scan_scanset_range@?$format_string_parser@D@__crt_stdio_input@@AAE_NXZ 004ab5fc f i libucrt:input.obj
 0001:000aa703       ?set@?$scanset_buffer@E@__crt_stdio_input@@QAEXE@Z 004ab703 f i libucrt:input.obj
 0001:000aa72e       ?set_wide_for_c_s_or_scanset@?$format_string_parser@D@__crt_stdio_input@@AAEXXZ 004ab72e f i libucrt:input.obj
 0001:000aa74e       ?test@?$scanset_buffer@E@__crt_stdio_input@@QBE_NE@Z 004ab74e f i libucrt:input.obj
 0001:000aa77f       ?to_floating_point_length@__crt_stdio_input@@YAIW4length_modifier@1@@Z 004ab77f f i libucrt:input.obj
 0001:000aa7a2       ?to_integer_length@__crt_stdio_input@@YAIW4length_modifier@1@@Z 004ab7a2 f i libucrt:input.obj
 0001:000aa7fa       ?unget@?$input_adapter_character_source@V?$string_input_adapter@D@__crt_stdio_input@@@__crt_strtox@@QAEXD@Z 004ab7fa f i libucrt:input.obj
 0001:000aa83b       ?unget@?$string_input_adapter@D@__crt_stdio_input@@QAEXH@Z 004ab83b f i libucrt:input.obj
 0001:000aa85a       ?validate@?$format_string_parser@D@__crt_stdio_input@@QBE_NXZ 004ab85a f i libucrt:input.obj
 0001:000aa876       ?validate@?$input_adapter_character_source@V?$string_input_adapter@D@__crt_stdio_input@@@__crt_strtox@@QBE_NXZ 004ab876 f i libucrt:input.obj
 0001:000aa897       ?validate@?$string_input_adapter@D@__crt_stdio_input@@QAE_NXZ 004ab897 f i libucrt:input.obj
 0001:000aa8b9       ?write_character@?$input_processor@DV?$string_input_adapter@D@__crt_stdio_input@@@__crt_stdio_input@@AAE_NQA_WIAAPA_WAAID@Z 004ab8b9 f i libucrt:input.obj
 0001:000aa92a       ?write_integer@?$input_processor@DV?$string_input_adapter@D@__crt_stdio_input@@@__crt_stdio_input@@AAE_N_K_N@Z 004ab92a f i libucrt:input.obj
 0001:000aa9a1       ___stdio_common_vsscanf    004ab9a1 f   libucrt:input.obj
 0001:000aaa50       _log                       004aba50 f   libucrt:log.obj
 0001:000aaa90       __CIlog                    004aba90 f   libucrt:log.obj
 0001:000aaacb       __CIlog_default            004abacb f   libucrt:log.obj
 0001:000aaadf       __log_default              004abadf     libucrt:log.obj
 0001:000aac1f       __time64                   004abc1f f   libucrt:time.obj
 0001:000aaeeb       __localtime64              004abeeb f   libucrt:localtime.obj
 0001:000aaf12       __localtime64_s            004abf12 f   libucrt:localtime.obj
 0001:000aaf1d       __Strftime_l               004abf1d f   libucrt:strftime.obj
 0001:000ab04c       _strftime                  004ac04c f   libucrt:strftime.obj
 0001:000ab339       __tolower_l                004ac339 f   libucrt:tolower_toupper.obj
 0001:000ab353       __toupper_l                004ac353 f   libucrt:tolower_toupper.obj
 0001:000ab36d       _tolower                   004ac36d f   libucrt:tolower_toupper.obj
 0001:000ab39d       _toupper                   004ac39d f   libucrt:tolower_toupper.obj
 0001:000ab3d0       _acos                      004ac3d0 f   libucrt:acos.obj
 0001:000ab410       __CIacos                   004ac410 f   libucrt:acos.obj
 0001:000ab44b       __CIacos_default           004ac44b f   libucrt:acos.obj
 0001:000ab45f       __acos_default             004ac45f     libucrt:acos.obj
 0001:000ab520       _strncmp                   004ac520 f   libucrt:strncmp.obj
 0001:000ab623       ??$parse_floating_point@V?$c_string_character_source@D@__crt_strtox@@N@__crt_strtox@@YA?AW4SLD_STATUS@@QAU__crt_locale_pointers@@V?$c_string_character_source@D@0@QAN@Z 004ac623 f i libucrt:strtod.obj
 0001:000ab699       ??$parse_floating_point_from_source@V?$c_string_character_source@D@__crt_strtox@@@__crt_strtox@@YA?AW4floating_point_parse_result@0@QAU__crt_locale_pointers@@AAV?$c_string_character_source@D@0@AAUfloating_point_string@0@@Z 004ac699 f i libucrt:strtod.obj
 0001:000aba8b       ??$parse_floating_point_possible_infinity@DV?$c_string_character_source@D@__crt_strtox@@PBD@__crt_strtox@@YA?AW4floating_point_parse_result@0@AADAAV?$c_string_character_source@D@0@PBD@Z 004aca8b f i libucrt:strtod.obj
 0001:000abb38       ??$parse_floating_point_possible_nan@DV?$c_string_character_source@D@__crt_strtox@@PBD@__crt_strtox@@YA?AW4floating_point_parse_result@0@AADAAV?$c_string_character_source@D@0@PBD@Z 004acb38 f i libucrt:strtod.obj
 0001:000abc53       ??$parse_floating_point_possible_nan_is_ind@DV?$c_string_character_source@D@__crt_strtox@@@__crt_strtox@@YA_NAADAAV?$c_string_character_source@D@0@@Z 004acc53 f i libucrt:strtod.obj
 0001:000abc8f       ??$parse_floating_point_possible_nan_is_snan@DV?$c_string_character_source@D@__crt_strtox@@@__crt_strtox@@YA_NAADAAV?$c_string_character_source@D@0@@Z 004acc8f f i libucrt:strtod.obj
 0001:000abcf1       _strtod                    004accf1 f   libucrt:strtod.obj
 0001:000abd08       ___ascii_stricmp           004acd08 f   libucrt:stricmp.obj
 0001:000abd43       __stricmp                  004acd43 f   libucrt:stricmp.obj
 0001:000abd8b       __stricmp_l                004acd8b f   libucrt:stricmp.obj
 0001:000abe25       _strtol                    004ace25 f   libucrt:strtox.obj
 0001:000abe51       _strtoul                   004ace51 f   libucrt:strtox.obj
 0001:000abe7d       _strtoull                  004ace7d f   libucrt:strtox.obj
 0001:000abea9       __fputc_nolock             004acea9 f   libucrt:fputc.obj
 0001:000abed2       _fputc                     004aced2 f   libucrt:fputc.obj
 0001:000abfe0       _strspn                    004acfe0 f   libucrt:strspn.obj
 0001:000ac030       _strcspn                   004ad030 f   libucrt:strcspn.obj
 0001:000ac080       _exp                       004ad080 f   libucrt:87ctran.obj
 0001:000ac0bc       __CIexp                    004ad0bc f   libucrt:87ctran.obj
 0001:000ac0f7       __exp_default              004ad0f7 f   libucrt:87ctran.obj
 0001:000ac101       __CIexp_default            004ad101 f   libucrt:87ctran.obj
 0001:000ac176       _atof                      004ad176 f   libucrt:atof.obj
 0001:000ac190       _atan                      004ad190 f   libucrt:atan.obj
 0001:000ac1d0       __CIatan                   004ad1d0 f   libucrt:atan.obj
 0001:000ac20b       __CIatan_default           004ad20b f   libucrt:atan.obj
 0001:000ac21f       __atan_default             004ad21f     libucrt:atan.obj
 0001:000ac2b0       _log10                     004ad2b0 f   libucrt:log10.obj
 0001:000ac2f0       __CIlog10                  004ad2f0 f   libucrt:log10.obj
 0001:000ac32b       __CIlog10_default          004ad32b f   libucrt:log10.obj
 0001:000ac33f       __log10_default            004ad33f     libucrt:log10.obj
 0001:000ac400       _wcsncpy                   004ad400 f   libucrt:wcsncpy.obj
 0001:000ac443       _feof                      004ad443 f   libucrt:feoferr.obj
 0001:000aca36       __ftelli64                 004ada36 f   libucrt:ftell.obj
 0001:000aca41       __ftelli64_nolock          004ada41 f   libucrt:ftell.obj
 0001:000aca4c       _ftell                     004ada4c f   libucrt:ftell.obj
 0001:000aca57       ?LongLongSub@@YAJ_J0PA_J@Z 004ada57 f i libucrt:fseek.obj
 0001:000acd11       __fseeki64                 004add11 f   libucrt:fseek.obj
 0001:000acd2c       _fseek                     004add2c f   libucrt:fseek.obj
 0001:000acd47       __fread_nolock_s           004add47 f   libucrt:fread.obj
 0001:000acf13       _fread                     004adf13 f   libucrt:fread.obj
 0001:000acf30       _fread_s                   004adf30 f   libucrt:fread.obj
 0001:000acfc3       ___acrt_stdio_flush_nolock 004adfc3 f   libucrt:fflush.obj
 0001:000ad029       __fflush_nolock            004ae029 f   libucrt:fflush.obj
 0001:000ad070       __flushall                 004ae070 f   libucrt:fflush.obj
 0001:000ad151       _fflush                    004ae151 f   libucrt:fflush.obj
 0001:000ad1aa       __fgetc_nolock             004ae1aa f   libucrt:fgetc.obj
 0001:000ad1e6       __getc_nolock              004ae1e6 f   libucrt:fgetc.obj
 0001:000ad1f1       _fgetc                     004ae1f1 f   libucrt:fgetc.obj
 0001:000ad3b8       _fgets                     004ae3b8 f   libucrt:fgets.obj
 0001:000ad3c3       ??$?RV<lambda_b0cac3301889906f8da68b04e3d9a7f4>@@AAV<lambda_9a20e10065b92b5193c3597a66cba9d4>@@V<lambda_24b35df97fd4c1fecac72a72d95cc146>@@@?$__crt_seh_guarded_call@H@@QAEH$$QAV<lambda_b0cac3301889906f8da68b04e3d9a7f4>@@AAV<lambda_9a20e10065b92b5193c3597a66cba9d4>@@$$QAV<lambda_24b35df97fd4c1fecac72a72d95cc146>@@@Z 004ae3c3 f i libucrt:fputs.obj
 0001:000ad414       ??$__acrt_lock_stream_and_call@V<lambda_9a20e10065b92b5193c3597a66cba9d4>@@@@YAHQAU_iobuf@@$$QAV<lambda_9a20e10065b92b5193c3597a66cba9d4>@@@Z 004ae414 f i libucrt:fputs.obj
 0001:000ad48a       _fputs                     004ae48a f   libucrt:fputs.obj
 0001:000ad565       _malloc                    004ae565 f   libucrt:malloc.obj
 0001:000ad570       _abort                     004ae570 f   libucrt:abort.obj
 0001:000ad5b3       _free                      004ae5b3 f   libucrt:free.obj
 0001:000ad5b8       __ctime64                  004ae5b8 f   libucrt:ctime.obj
 0001:000ad62d       __seh_filter_exe           004ae62d f   libucrt:exception_filter.obj
 0001:000ada39       ___acrt_allocate_buffer_for_argv 004aea39 f   libucrt:argv_parsing.obj
 0001:000ada8e       __configure_narrow_argv    004aea8e f   libucrt:argv_parsing.obj
 0001:000adca0       ??$uninitialize@A6AXAAPAPAD@Z@?$dual_state_global@PAPAD@__crt_state_management@@QAEXA6AXAAPAPAD@Z@Z 004aeca0 f i libucrt:environment_initialization.obj
 0001:000adca0       ??$uninitialize@A6AXAAPAPA_W@Z@?$dual_state_global@PAPA_W@__crt_state_management@@QAEXA6AXAAPAPA_W@Z@Z 004aeca0 f i libucrt:environment_initialization.obj
 0001:000add16       ?initialize@?$dual_state_global@PAPAD@__crt_state_management@@QAEXQAPAD@Z 004aed16 f i libucrt:environment_initialization.obj
 0001:000add16       ?initialize@?$dual_state_global@P6AHI@Z@__crt_state_management@@QAEXQ6AHI@Z@Z 004aed16 f i libucrt:new_handler.obj
 0001:000add16       ?initialize@?$dual_state_global@P6AXPB_W00II@Z@__crt_state_management@@QAEXQ6AXPB_W00II@Z@Z 004aed16 f i libucrt:invalid_parameter.obj
 0001:000add16       ?initialize@?$dual_state_global@H@__crt_state_management@@QAEXH@Z 004aed16 f i libucrt:timeset.obj
 0001:000add16       ?initialize@?$dual_state_global@PAU__crt_locale_data@@@__crt_state_management@@QAEXQAU__crt_locale_data@@@Z 004aed16 f i libucrt:initialization.obj
 0001:000add16       ?initialize@?$dual_state_global@J@__crt_state_management@@QAEXJ@Z 004aed16 f i libucrt:timeset.obj
 0001:000add16       ?initialize@?$dual_state_global@P6AXH@Z@__crt_state_management@@QAEXQ6AXH@Z@Z 004aed16 f i libucrt:signal.obj
 0001:000add16       ?initialize@?$dual_state_global@P6AHPAU_exception@@@Z@__crt_state_management@@QAEXQ6AHPAU_exception@@@Z@Z 004aed16 f i libucrt:matherr.obj
 0001:000add47       ___dcrt_get_or_create_narrow_environment_nolock 004aed47 f   libucrt:environment_initialization.obj
 0001:000add4c       ___dcrt_uninitialize_environments_nolock 004aed4c f   libucrt:environment_initialization.obj
 0001:000add83       __initialize_narrow_environment 004aed83 f   libucrt:environment_initialization.obj
 0001:000add88       ??$?RV<lambda_800076c951b434888f4765a74a194fcc>@@AAV<lambda_4e60a939b0d047cfe11ddc22648dfba9>@@V<lambda_6dbb1268764f43b569ce7b67e331d33a>@@@?$__crt_seh_guarded_call@H@@QAEH$$QAV<lambda_800076c951b434888f4765a74a194fcc>@@AAV<lambda_4e60a939b0d047cfe11ddc22648dfba9>@@$$QAV<lambda_6dbb1268764f43b569ce7b67e331d33a>@@@Z 004aed88 f i libucrt:onexit.obj
 0001:000addd9       ??$?RV<lambda_995298e7d72eb4c2aab26c0585b3abe5>@@AAV<lambda_275893d493268fdec8709772e3fcec0e>@@V<lambda_293819299cbf9a7022e18b56a874bb5c>@@@?$__crt_seh_guarded_call@H@@QAEH$$QAV<lambda_995298e7d72eb4c2aab26c0585b3abe5>@@AAV<lambda_275893d493268fdec8709772e3fcec0e>@@$$QAV<lambda_293819299cbf9a7022e18b56a874bb5c>@@@Z 004aedd9 f i libucrt:onexit.obj
 0001:000ade2a       ??$__acrt_lock_and_call@V<lambda_275893d493268fdec8709772e3fcec0e>@@@@YAHW4__acrt_lock_id@@$$QAV<lambda_275893d493268fdec8709772e3fcec0e>@@@Z 004aee2a f i libucrt:onexit.obj
 0001:000ade52       ??$__acrt_lock_and_call@V<lambda_4e60a939b0d047cfe11ddc22648dfba9>@@@@YAHW4__acrt_lock_id@@$$QAV<lambda_4e60a939b0d047cfe11ddc22648dfba9>@@@Z 004aee52 f i libucrt:onexit.obj
 0001:000ae0db       __crt_atexit               004af0db f   libucrt:onexit.obj
 0001:000ae0f1       __execute_onexit_table     004af0f1 f   libucrt:onexit.obj
 0001:000ae10e       __initialize_onexit_table  004af10e f   libucrt:onexit.obj
 0001:000ae14b       __register_onexit_function 004af14b f   libucrt:onexit.obj
 0001:000ae260       ___acrt_initialize         004af260 f   libucrt:initialization.obj
 0001:000ae272       ___acrt_uninitialize       004af272 f   libucrt:initialization.obj
 0001:000ae284       _terminate                 004af284 f   libucrt:terminate.obj
 0001:000ae2c0       __query_app_type           004af2c0 f   libucrt:report_runtime_error.obj
 0001:000ae2c6       __set_app_type             004af2c6 f   libucrt:report_runtime_error.obj
 0001:000ae2d5       ___acrt_has_user_matherr   004af2d5 f   libucrt:matherr.obj
 0001:000ae2ee       ___acrt_initialize_user_matherr 004af2ee f   libucrt:matherr.obj
 0001:000ae302       ___acrt_invoke_user_matherr 004af302 f   libucrt:matherr.obj
 0001:000ae34b       ___setusermatherr          004af34b f   libucrt:matherr.obj
 0001:000ae360       __get_narrow_winmain_command_line 004af360 f   libucrt:argv_winmain.obj
 0001:000ae3b3       __initterm                 004af3b3 f   libucrt:initterm.obj
 0001:000ae40f       __initterm_e               004af40f f   libucrt:initterm.obj
 0001:000ae454       __get_fmode                004af454 f   libucrt:setmode.obj
 0001:000ae480       __set_fmode                004af480 f   libucrt:setmode.obj
 0001:000ae4bd       __setmode_nolock           004af4bd f   libucrt:setmode.obj
 0001:000ae58e       ___acrt_set_locale_changed 004af58e f   libucrt:wsetlocale.obj
 0001:000ae599       ___acrt_uninitialize_locale 004af599 f   libucrt:wsetlocale.obj
 0001:000ae5eb       __configthreadlocale       004af5eb f   libucrt:wsetlocale.obj
 0001:000ae64d       __query_new_mode           004af64d f   libucrt:new_mode.obj
 0001:000ae653       __set_new_mode             004af653 f   libucrt:new_mode.obj
 0001:000ae682       ___p__commode              004af682 f   libucrt:ncommode.obj
 0001:000ae688       __controlfp_s              004af688 f   libucrt:contrlfp.obj
 0001:000ae6e7       _strcpy_s                  004af6e7 f   libucrt:strcpy_s.obj
 0001:000ae741       _calloc                    004af741 f   libucrt:calloc.obj
 0001:000ae74c       _wcsncmp                   004af74c f   libucrt:wcsncmp.obj
 0001:000ae786       ___libm_error_support      004af786 f   libucrt:libm_error.obj
 0001:000ae99e       ___acrt_initialize_sse2    004af99e f   libucrt:mathfcns.obj
 0001:000ae9ad       __floor_default            004af9ad f   libucrt:floor.obj
 0001:000aea70       __CIsin_pentium4           004afa70 f   libucrt:sin_pentium4.obj
 0001:000aea88       __sin_pentium4             004afa88     libucrt:sin_pentium4.obj
 0001:000aec40       __trandisp1                004afc40 f   libucrt:87disp.obj
 0001:000aeca7       __trandisp2                004afca7 f   libucrt:87disp.obj
 0001:000aed33       __rttospopde               004afd33     libucrt:87disp.obj
 0001:000aed38       __rttospop                 004afd38     libucrt:87disp.obj
 0001:000aed3a       __rtnospop                 004afd3a     libucrt:87disp.obj
 0001:000aed3c       __rttosnpop                004afd3c     libucrt:87disp.obj
 0001:000aed3d       __rtnospopde               004afd3d     libucrt:87disp.obj
 0001:000aed44       __rtzeropop                004afd44     libucrt:87disp.obj
 0001:000aed46       __rtzeronpop               004afd46     libucrt:87disp.obj
 0001:000aed4b       __rtzerospop               004afd4b     libucrt:87disp.obj
 0001:000aed58       __rtonepop                 004afd58     libucrt:87disp.obj
 0001:000aed5a       __rtonenpop                004afd5a     libucrt:87disp.obj
 0001:000aed5f       __tosnan1                  004afd5f     libucrt:87disp.obj
 0001:000aed8a       __nosnan2                  004afd8a     libucrt:87disp.obj
 0001:000aed8c       __tosnan2                  004afd8c     libucrt:87disp.obj
 0001:000aedb4       __nan2                     004afdb4     libucrt:87disp.obj
 0001:000aedf3       __rtindfpop                004afdf3     libucrt:87disp.obj
 0001:000aedf5       __rtindfnpop               004afdf5     libucrt:87disp.obj
 0001:000aee06       __rttosnpopde              004afe06     libucrt:87disp.obj
 0001:000aee10       __rtatan2inf               004afe10     libucrt:87disp.obj
 0001:000aee2d       __rtchsifneg               004afe2d     libucrt:87disp.obj
 0001:000aee40       __twoToTOS                 004afe40 f   libucrt:common.obj
 0001:000aee55       __load_CW                  004afe55 f   libucrt:common.obj
 0001:000aee6c       __convertTOStoQNaN         004afe6c f   libucrt:common.obj
 0001:000aee85       __fload_withFB             004afe85 f   libucrt:common.obj
 0001:000aeec8       __checkTOS_withFB          004afec8 f   libucrt:common.obj
 0001:000aeede       __fast_exit                004afede f   libucrt:common.obj
 0001:000aeeeb       __math_exit                004afeeb f   libucrt:common.obj
 0001:000aef15       __check_overflow_exit      004aff15 f   libucrt:common.obj
 0001:000aef29       __check_range_exit         004aff29 f   libucrt:common.obj
 0001:000aefd0       __startTwoArgErrorHandling 004affd0 f   libucrt:genexcep.obj
 0001:000aefe7       __startOneArgErrorHandling 004affe7 f   libucrt:genexcep.obj
 0001:000af030       __CIcos_pentium4           004b0030 f   libucrt:cos_pentium4.obj
 0001:000af048       __cos_pentium4             004b0048     libucrt:cos_pentium4.obj
 0001:000af1dc       __errcode                  004b01dc f   libucrt:fpexcept.obj
 0001:000af210       __except1                  004b0210 f   libucrt:fpexcept.obj
 0001:000af2de       __handle_exc               004b02de f   libucrt:fpexcept.obj
 0001:000af4be       __raise_exc                004b04be f   libucrt:fpexcept.obj
 0001:000af4e1       __raise_exc_ex             004b04e1 f   libucrt:fpexcept.obj
 0001:000af7d2       __set_errno_from_matherr   004b07d2 f   libucrt:fpexcept.obj
 0001:000af801       __umatherr                 004b0801 f   libucrt:fpexcept.obj
 0001:000af8a3       __decomp                   004b08a3 f   libucrt:util.obj
 0001:000af977       __set_exp                  004b0977 f   libucrt:util.obj
 0001:000af9a6       __sptype                   004b09a6 f   libucrt:util.obj
 0001:000afa04       ___set_fpsr_sse2           004b0a04 f   libucrt:fpctrl.obj
 0001:000afa7a       __clrfp                    004b0a7a f   libucrt:fpctrl.obj
 0001:000afa8d       __ctrlfp                   004b0a8d f   libucrt:fpctrl.obj
 0001:000afab9       __set_statfp               004b0ab9 f   libucrt:fpctrl.obj
 0001:000afb14       __statfp                   004b0b14 f   libucrt:fpctrl.obj
 0001:000afb26       __ceil_default             004b0b26 f   libucrt:ceil.obj
 0001:000afbdf       ___acrt_call_reportfault   004b0bdf f   libucrt:invalid_parameter.obj
 0001:000afd1a       ___acrt_initialize_invalid_parameter_handler 004b0d1a f   libucrt:invalid_parameter.obj
 0001:000afd2e       __invalid_parameter        004b0d2e f   libucrt:invalid_parameter.obj
 0001:000afda9       __invalid_parameter_noinfo 004b0da9 f   libucrt:invalid_parameter.obj
 0001:000afdb9       __invoke_watson            004b0db9 f   libucrt:invalid_parameter.obj
 0001:000afdec       ___acrt_errno_from_os_error 004b0dec f   libucrt:errno.obj
 0001:000afe2f       ___acrt_errno_map_os_error 004b0e2f f   libucrt:errno.obj
 0001:000afe52       ___doserrno                004b0e52 f   libucrt:errno.obj
 0001:000afe65       __errno                    004b0e65 f   libucrt:errno.obj
 0001:000afe78       __calloc_base              004b0e78 f   libucrt:calloc_base.obj
 0001:000afed5       __free_base                004b0ed5 f   libucrt:free_base.obj
 0001:000aff0f       ??$?RV<lambda_3518db117f0e7cdb002338c5d3c47b6c>@@AAV<lambda_b2ea41f6bbb362cd97d94c6828d90b61>@@V<lambda_abdedf541bb04549bc734292b4a045d4>@@@?$__crt_seh_guarded_call@X@@QAEX$$QAV<lambda_3518db117f0e7cdb002338c5d3c47b6c>@@AAV<lambda_b2ea41f6bbb362cd97d94c6828d90b61>@@$$QAV<lambda_abdedf541bb04549bc734292b4a045d4>@@@Z 004b0f0f f i libucrt:per_thread_data.obj
 0001:000aff5f       ??$?RV<lambda_51b6e8b1eb166f2a3faf91f424b38130>@@AAV<lambda_6250bd4b2a391816dd638c3bf72b0bcb>@@V<lambda_0b5a4a3e68152e1d9b943535f5f47bed>@@@?$__crt_seh_guarded_call@X@@QAEX$$QAV<lambda_51b6e8b1eb166f2a3faf91f424b38130>@@AAV<lambda_6250bd4b2a391816dd638c3bf72b0bcb>@@$$QAV<lambda_0b5a4a3e68152e1d9b943535f5f47bed>@@@Z 004b0f5f f i libucrt:per_thread_data.obj
 0001:000affc0       ??$?RV<lambda_5b71d36f03204c0beab531769a5b5694>@@AAV<lambda_be2b3da3f62db62e9dad5dc70221a656>@@V<lambda_8f9ce462984622f9bf76b59e2aaaf805>@@@?$__crt_seh_guarded_call@X@@QAEX$$QAV<lambda_5b71d36f03204c0beab531769a5b5694>@@AAV<lambda_be2b3da3f62db62e9dad5dc70221a656>@@$$QAV<lambda_8f9ce462984622f9bf76b59e2aaaf805>@@@Z 004b0fc0 f i libucrt:per_thread_data.obj
 0001:000b000b       ??$?RV<lambda_9df27f884b057bc3edfc946cb5b7cf47>@@AAV<lambda_e69574bed617af4e071282c136b37893>@@V<lambda_cc0d902bcbbeb830f749456577db4721>@@@?$__crt_seh_guarded_call@X@@QAEX$$QAV<lambda_9df27f884b057bc3edfc946cb5b7cf47>@@AAV<lambda_e69574bed617af4e071282c136b37893>@@$$QAV<lambda_cc0d902bcbbeb830f749456577db4721>@@@Z 004b100b f i libucrt:per_thread_data.obj
 0001:000b0053       ??$__acrt_lock_and_call@V<lambda_6250bd4b2a391816dd638c3bf72b0bcb>@@@@YAXW4__acrt_lock_id@@$$QAV<lambda_6250bd4b2a391816dd638c3bf72b0bcb>@@@Z 004b1053 f i libucrt:per_thread_data.obj
 0001:000b007b       ??$__acrt_lock_and_call@V<lambda_b2ea41f6bbb362cd97d94c6828d90b61>@@@@YAXW4__acrt_lock_id@@$$QAV<lambda_b2ea41f6bbb362cd97d94c6828d90b61>@@@Z 004b107b f i libucrt:per_thread_data.obj
 0001:000b00a3       ??$__acrt_lock_and_call@V<lambda_be2b3da3f62db62e9dad5dc70221a656>@@@@YAXW4__acrt_lock_id@@$$QAV<lambda_be2b3da3f62db62e9dad5dc70221a656>@@@Z 004b10a3 f i libucrt:per_thread_data.obj
 0001:000b00cb       ??$__acrt_lock_and_call@V<lambda_e69574bed617af4e071282c136b37893>@@@@YAXW4__acrt_lock_id@@$$QAV<lambda_e69574bed617af4e071282c136b37893>@@@Z 004b10cb f i libucrt:per_thread_data.obj
 0001:000b0281       ___acrt_getptd             004b1281 f   libucrt:per_thread_data.obj
 0001:000b0305       ___acrt_getptd_noexit      004b1305 f   libucrt:per_thread_data.obj
 0001:000b038a       ___acrt_initialize_ptd     004b138a f   libucrt:per_thread_data.obj
 0001:000b03b6       ___acrt_uninitialize_ptd   004b13b6 f   libucrt:per_thread_data.obj
 0001:000b0501       ___acrt_AreFileApisANSI@0  004b1501 f   libucrt:winapi_thunks.obj
 0001:000b054f       ___acrt_CompareStringEx@36 004b154f f   libucrt:winapi_thunks.obj
 0001:000b05c3       ___acrt_FlsAlloc@4         004b15c3 f   libucrt:winapi_thunks.obj
 0001:000b0619       ___acrt_FlsFree@4          004b1619 f   libucrt:winapi_thunks.obj
 0001:000b066f       ___acrt_FlsGetValue@4      004b166f f   libucrt:winapi_thunks.obj
 0001:000b06c5       ___acrt_FlsSetValue@8      004b16c5 f   libucrt:winapi_thunks.obj
 0001:000b071e       ___acrt_GetDateFormatEx@28 004b171e f   libucrt:winapi_thunks.obj
 0001:000b07a0       ___acrt_GetSystemTimePreciseAsFileTime@4 004b17a0 f   libucrt:winapi_thunks.obj
 0001:000b07f6       ___acrt_GetTimeFormatEx@24 004b17f6 f   libucrt:winapi_thunks.obj
 0001:000b0866       ___acrt_InitializeCriticalSectionEx@12 004b1866 f   libucrt:winapi_thunks.obj
 0001:000b08c8       ___acrt_LCMapStringEx@36   004b18c8 f   libucrt:winapi_thunks.obj
 0001:000b0950       ___acrt_LocaleNameToLCID@8 004b1950 f   libucrt:winapi_thunks.obj
 0001:000b09ac       ___acrt_RoInitialize@4     004b19ac f   libucrt:winapi_thunks.obj
 0001:000b09fe       ___acrt_RoUninitialize@0   004b19fe f   libucrt:winapi_thunks.obj
 0001:000b0a47       ___acrt_initialize_winapi_thunks 004b1a47 f   libucrt:winapi_thunks.obj
 0001:000b0a6d       ___acrt_is_packaged_app    004b1a6d f   libucrt:winapi_thunks.obj
 0001:000b0af4       ___acrt_uninitialize_winapi_thunks 004b1af4 f   libucrt:winapi_thunks.obj
 0001:000b0b2a       __malloc_base              004b1b2a f   libucrt:malloc_base.obj
 0001:000b0b78       __mbtowc_l                 004b1b78 f   libucrt:mbtowc.obj
 0001:000b0c72       _mbtowc                    004b1c72 f   libucrt:mbtowc.obj
 0001:000b0c8c       __wctomb_s_l               004b1c8c f   libucrt:wctomb.obj
 0001:000b0dad       _wctomb_s                  004b1dad f   libucrt:wctomb.obj
 0001:000b0dca       _strnlen                   004b1dca f   libucrt:strnlen.obj
 0001:000b0ef1       _wcsnlen                   004b1ef1 f   libucrt:strnlen.obj
 0001:000b10a8       ___acrt_update_locale_info 004b20a8 f   libucrt:locale_update.obj
 0001:000b10d5       ___acrt_update_multibyte_info 004b20d5 f   libucrt:locale_update.obj
 0001:000b1102       ?__acrt_fp_classify@@YA?AW4__acrt_fp_class@@ABN@Z 004b2102 f i libucrt:cvt.obj
 0001:000b116e       ?__acrt_fp_is_negative@@YA_NABN@Z 004b216e f i libucrt:cvt.obj
 0001:000b19cd       ___acrt_fp_format          004b29cd f   libucrt:cvt.obj
 0001:000b1b17       __fileno                   004b2b17 f   libucrt:fileno.obj
 0001:000b1b3d       __get_printf_count_output  004b2b3d f   libucrt:printf_count_output.obj
 0001:000b1b52       ___acrt_stdio_begin_temporary_buffering_nolock 004b2b52 f   libucrt:_sftbuf.obj
 0001:000b1c07       ___acrt_stdio_end_temporary_buffering_nolock 004b2c07 f   libucrt:_sftbuf.obj
 0001:000b1dac       ___acrt_initialize_lowio   004b2dac f   libucrt:ioinit.obj
 0001:000b1e02       ___acrt_uninitialize_lowio 004b2e02 f   libucrt:ioinit.obj
 0001:000b1e4c       __fFATN2                   004b2e4c     libucrt:87triga.obj
 0001:000b1e9c       __rtpiby2                  004b2e9c     libucrt:87triga.obj
 0001:000b1ee0       __cintrindisp2             004b2ee0 f   libucrt:87cdisp.obj
 0001:000b1f24       __cintrindisp1             004b2f24 f   libucrt:87cdisp.obj
 0001:000b1f67       __ctrandisp2               004b2f67 f   libucrt:87cdisp.obj
 0001:000b20f6       __ctrandisp1               004b30f6 f   libucrt:87cdisp.obj
 0001:000b2129       __fload                    004b3129 f   libucrt:87cdisp.obj
 0001:000b2170       __CIasin_pentium4          004b3170 f   libucrt:asin_pentium4.obj
 0001:000b2188       __asin_pentium4            004b3188     libucrt:asin_pentium4.obj
 0001:000b26f0       __fcloseall                004b36f0 f   libucrt:closeall.obj
 0001:000b2790       ___acrt_stdio_free_buffer_nolock 004b3790 f   libucrt:_freebuf.obj
 0001:000b27d0       __CIpow_pentium4           004b37d0 f   libucrt:pow_pentium4.obj
 0001:000b27e9       __pow_pentium4             004b37e9     libucrt:pow_pentium4.obj
 0001:000b3301       __fFEXP                    004b4301     libucrt:87tran.obj
 0001:000b3358       __rtinfpopse               004b4358     libucrt:87tran.obj
 0001:000b335a       __rtinfnpopse              004b435a     libucrt:87tran.obj
 0001:000b336a       __fFLN                     004b436a     libucrt:87tran.obj
 0001:000b341f       __rtinfpop                 004b441f     libucrt:87tran.obj
 0001:000b3421       __rtinfnpop                004b4421     libucrt:87tran.obj
 0001:000b343e       __ffexpm1                  004b443e     libucrt:87tran.obj
 0001:000b34e7       __d_inttype                004b44e7 f   libucrt:powhlp.obj
 0001:000b3551       __powhlp                   004b4551 f   libucrt:powhlp.obj
 0001:000b3680       __CItan_pentium4           004b4680 f   libucrt:tan_pentium4.obj
 0001:000b3698       __tan_pentium4             004b4698     libucrt:tan_pentium4.obj
 0001:000b38e0       ___acrt_copy_path_to_wide_string 004b48e0 f   libucrt:string_utilities.obj
 0001:000b39a7       __wremove                  004b49a7 f   libucrt:wunlink.obj
 0001:000b39cf       __wrename                  004b49cf f   libucrt:wrename.obj
 0001:000b39fc       ??$?RV<lambda_123407a5e2ac06da108355a851863b7a>@@AAV<lambda_2fe9b910cf3cbf4a0ab98a02ba45b3ec>@@V<lambda_ae55bdf541ad94d75914d381c370e64d>@@@?$__crt_seh_guarded_call@H@@QAEH$$QAV<lambda_123407a5e2ac06da108355a851863b7a>@@AAV<lambda_2fe9b910cf3cbf4a0ab98a02ba45b3ec>@@$$QAV<lambda_ae55bdf541ad94d75914d381c370e64d>@@@Z 004b49fc f i libucrt:close.obj
 0001:000b3a7e       ??$__acrt_lowio_lock_fh_and_call@V<lambda_2fe9b910cf3cbf4a0ab98a02ba45b3ec>@@@@YAHH$$QAV<lambda_2fe9b910cf3cbf4a0ab98a02ba45b3ec>@@@Z 004b4a7e f i libucrt:close.obj
 0001:000b3aa6       __close                    004b4aa6 f   libucrt:close.obj
 0001:000b3b25       __close_nolock             004b4b25 f   libucrt:close.obj
 0001:000b3bc1       ?__acrt_stdio_allocate_stream@@YA?AV__crt_stdio_stream@@XZ 004b4bc1 f   libucrt:stream.obj
 0001:000b3c20       ?__acrt_stdio_free_stream@@YAXV__crt_stdio_stream@@@Z 004b4c20 f   libucrt:stream.obj
 0001:000b3d1e       ??$__acrt_stdio_parse_mode@D@@YA?AU__acrt_stdio_stream_mode@@QBD@Z 004b4d1e f i libucrt:openfile.obj
 0001:000b3fd5       ?__acrt_stdio_parse_mode_D@@YA_NAAU__acrt_stdio_stream_mode@@@Z 004b4fd5 f i libucrt:openfile.obj
 0001:000b3ff0       ?__acrt_stdio_parse_mode_T@@YA_NAAU__acrt_stdio_stream_mode@@@Z 004b4ff0 f i libucrt:openfile.obj
 0001:000b400f       ?__acrt_stdio_parse_mode_b@@YA_NAAU__acrt_stdio_stream_mode@@@Z 004b500f f i libucrt:openfile.obj
 0001:000b402f       ?__acrt_stdio_parse_mode_c@@YA_NAAU__acrt_stdio_stream_mode@@AA_N@Z 004b502f f i libucrt:openfile.obj
 0001:000b4051       ?__acrt_stdio_parse_mode_n@@YA_NAAU__acrt_stdio_stream_mode@@AA_N@Z 004b5051 f i libucrt:openfile.obj
 0001:000b4073       ?__acrt_stdio_parse_mode_plus@@YA_NAAU__acrt_stdio_stream_mode@@AA_N@Z 004b5073 f i libucrt:openfile.obj
 0001:000b40a8       ?__acrt_stdio_parse_mode_t@@YA_NAAU__acrt_stdio_stream_mode@@@Z 004b50a8 f i libucrt:openfile.obj
 0001:000b40c8       __openfile                 004b50c8 f   libucrt:openfile.obj
 0001:000b4663       __write                    004b5663 f   libucrt:write.obj
 0001:000b474e       __write_nolock             004b574e f   libucrt:write.obj
 0001:000b4b37       ___acrt_stdio_flush_and_write_narrow_nolock 004b5b37 f   libucrt:_flsbuf.obj
 0001:000b4b42       ___pctype_func             004b5b42 f   libucrt:ctype.obj
 0001:000b4b68       __isctype_l                004b5b68 f   libucrt:isctype.obj
 0001:000b4c3a       ___acrt_initialize_locks   004b5c3a f   libucrt:locks.obj
 0001:000b4c7b       ___acrt_lock               004b5c7b f   libucrt:locks.obj
 0001:000b4c92       ___acrt_uninitialize_locks 004b5c92 f   libucrt:locks.obj
 0001:000b4cc3       ___acrt_unlock             004b5cc3 f   libucrt:locks.obj
 0001:000b4cda       _iswctype                  004b5cda f   libucrt:iswctype.obj
 0001:000b4d39       _fegetround                004b5d39 f   libucrt:fegetround.obj
 0001:000b4d50       __CIlog_pentium4           004b5d50 f   libucrt:log_pentium4.obj
 0001:000b4d68       __log_pentium4             004b5d68     libucrt:log_pentium4.obj
 0001:000b4fc0       ___acrt_initialize_timeset 004b5fc0 f   libucrt:timeset.obj
 0001:000b4ff7       ___daylight                004b5ff7 f   libucrt:timeset.obj
 0001:000b4fff       ___dstbias                 004b5fff f   libucrt:timeset.obj
 0001:000b5005       ___timezone                004b6005 f   libucrt:timeset.obj
 0001:000b500b       ___tzname                  004b600b f   libucrt:timeset.obj
 0001:000b5011       __get_daylight             004b6011 f   libucrt:timeset.obj
 0001:000b503d       __get_dstbias              004b603d f   libucrt:timeset.obj
 0001:000b5069       __get_timezone             004b6069 f   libucrt:timeset.obj
 0001:000b5095       ??$__crt_time_elapsed_leap_years@H@@YAHH@Z 004b6095 f i libucrt:gmtime.obj
 0001:000b50cf       ??$__crt_time_is_leap_year@H@@YA_NH@Z 004b60cf f i libucrt:gmtime.obj
 0001:000b5301       ___getgmtimebuf            004b6301 f   libucrt:gmtime.obj
 0001:000b533f       __gmtime64_s               004b633f f   libucrt:gmtime.obj
 0001:000b5a91       ___tzset                   004b6a91 f   libucrt:tzset.obj
 0001:000b5ae2       __isindst                  004b6ae2 f   libucrt:tzset.obj
 0001:000b6cdf       __Wcsftime_l               004b7cdf f   libucrt:wcsftime.obj
 0001:000b6e60       __freea_crt                004b7e60 f i libucrt:wcsftime.obj
 0001:000b6e80       __isleadbyte_l             004b7e80 f i libucrt:_wctype.obj
 0001:000b70d6       ___acrt_LCMapStringA       004b80d6 f   libucrt:lcmapstringa.obj
 0001:000b7130       __CIacos_pentium4          004b8130 f   libucrt:acos_pentium4.obj
 0001:000b7148       __acos_pentium4            004b8148     libucrt:acos_pentium4.obj
 0001:000b7690       __CIexp_pentium4           004b8690 f   libucrt:exp_pentium4.obj
 0001:000b76a8       __exp_pentium4             004b86a8     libucrt:exp_pentium4.obj
 0001:000b7950       __CIatan_pentium4          004b8950 f   libucrt:atan_pentium4.obj
 0001:000b7968       __atan_pentium4            004b8968     libucrt:atan_pentium4.obj
 0001:000b7c20       __CIlog10_pentium4         004b8c20 f   libucrt:log10_pentium4.obj
 0001:000b7c38       __log10_pentium4           004b8c38     libucrt:log10_pentium4.obj
 0001:000b8033       __lseeki64                 004b9033 f   libucrt:lseek.obj
 0001:000b804e       __lseeki64_nolock          004b904e f   libucrt:lseek.obj
 0001:000b8551       __read                     004b9551 f   libucrt:read.obj
 0001:000b8664       __read_nolock              004b9664 f   libucrt:read.obj
 0001:000b8b9a       ___acrt_stdio_refill_and_read_narrow_nolock 004b9b9a f   libucrt:_filbuf.obj
 0001:000b8ba5       ??$?RV<lambda_61cee617f5178ae960314fd4d05640a0>@@AAV<lambda_6978c1fb23f02e42e1d9e99668cc68aa>@@V<lambda_9cd88cf8ad10232537feb2133f08c833>@@@?$__crt_seh_guarded_call@H@@QAEH$$QAV<lambda_61cee617f5178ae960314fd4d05640a0>@@AAV<lambda_6978c1fb23f02e42e1d9e99668cc68aa>@@$$QAV<lambda_9cd88cf8ad10232537feb2133f08c833>@@@Z 004b9ba5 f i libucrt:commit.obj
 0001:000b8c3d       ??$__acrt_lowio_lock_fh_and_call@V<lambda_6978c1fb23f02e42e1d9e99668cc68aa>@@@@YAHH$$QAV<lambda_6978c1fb23f02e42e1d9e99668cc68aa>@@@Z 004b9c3d f i libucrt:commit.obj
 0001:000b8c65       __commit                   004b9c65 f   libucrt:commit.obj
 0001:000b8cd4       ??$?RV<lambda_a048d3beccc847880fc8490e18b82769>@@AAV<lambda_ec61778202f4f5fc7e7711acc23c3bca>@@V<lambda_f7496a158712204296dd6628a163878e>@@@?$__crt_seh_guarded_call@P6AXH@Z@@QAEP6AXH@Z$$QAV<lambda_a048d3beccc847880fc8490e18b82769>@@AAV<lambda_ec61778202f4f5fc7e7711acc23c3bca>@@$$QAV<lambda_f7496a158712204296dd6628a163878e>@@@Z 004b9cd4 f i libucrt:signal.obj
 0001:000b8d2e       ??$__acrt_lock_and_call@V<lambda_ec61778202f4f5fc7e7711acc23c3bca>@@@@YAP6AXH@ZW4__acrt_lock_id@@$$QAV<lambda_ec61778202f4f5fc7e7711acc23c3bca>@@@Z 004b9d2e f i libucrt:signal.obj
 0001:000b8dc0       ___acrt_get_sigabrt_handler 004b9dc0 f   libucrt:signal.obj
 0001:000b8dd7       ___acrt_initialize_signal_handlers 004b9dd7 f   libucrt:signal.obj
 0001:000b8e12       ___fpecode                 004b9e12 f   libucrt:signal.obj
 0001:000b8e1b       _raise                     004b9e1b f   libucrt:signal.obj
 0001:000b9204       ?__crt_time_is_day_valid@@YA_NHHH@Z 004ba204 f i libucrt:asctime.obj
 0001:000b924b       _asctime                   004ba24b f   libucrt:asctime.obj
 0001:000b9663       ??1?$argument_list@D@?A0xb0e4b824@@QAE@XZ 004ba663 f i libucrt:argv_wildcards.obj
 0001:000b9688       ?append@?$argument_list@D@?A0xb0e4b824@@QAEHQAD@Z 004ba688 f i libucrt:argv_wildcards.obj
 0001:000b96bd       ?expand_if_necessary@?$argument_list@D@?A0xb0e4b824@@AAEHXZ 004ba6bd f i libucrt:argv_wildcards.obj
 0001:000b9744       ___acrt_expand_narrow_argv_wildcards 004ba744 f   libucrt:argv_wildcards.obj
 0001:000b974f       ??$?RV<lambda_978dc153c237d78434369da87b74ff60>@@AAV<lambda_ad1ced32f4ac17aa236e5ef05d6b3b7c>@@V<lambda_4a8533e2866a575feecb8298ce776b0d>@@@?$__crt_seh_guarded_call@X@@QAEX$$QAV<lambda_978dc153c237d78434369da87b74ff60>@@AAV<lambda_ad1ced32f4ac17aa236e5ef05d6b3b7c>@@$$QAV<lambda_4a8533e2866a575feecb8298ce776b0d>@@@Z 004ba74f f i libucrt:mbctype.obj
 0001:000b9792       ??$__acrt_lock_and_call@V<lambda_ad1ced32f4ac17aa236e5ef05d6b3b7c>@@@@YAXW4__acrt_lock_id@@$$QAV<lambda_ad1ced32f4ac17aa236e5ef05d6b3b7c>@@@Z 004ba792 f i libucrt:mbctype.obj
 0001:000b9c29       ___acrt_initialize_multibyte 004bac29 f   libucrt:mbctype.obj
 0001:000b9c47       ___acrt_update_thread_multibyte_data 004bac47 f   libucrt:mbctype.obj
 0001:000b9ce9       __setmbcp_nolock           004bace9 f   libucrt:mbctype.obj
 0001:000b9f33       __ismbblead                004baf33 f   libucrt:ismbbyte.obj
 0001:000b9f4b       ___acrt_initialize_command_line 004baf4b f   libucrt:argv_data.obj
 0001:000b9f9b       ___dcrt_get_narrow_environment_from_os 004baf9b f   libucrt:get_environment_from_os.obj
 0001:000ba35e       ___dcrt_set_variable_in_narrow_environment_nolock 004bb35e f   libucrt:setenv.obj
 0001:000ba369       __recalloc                 004bb369 f   libucrt:recalloc.obj
 0001:000ba374       __recalloc_base            004bb374 f   libucrt:recalloc.obj
 0001:000ba3e1       ___acrt_initialize_heap    004bb3e1 f   libucrt:heap_handle.obj
 0001:000ba3f2       ___acrt_uninitialize_heap  004bb3f2 f   libucrt:heap_handle.obj
 0001:000ba3fc       ___acrt_execute_initializers 004bb3fc f   libucrt:shared_initialization.obj
 0001:000ba47f       ___acrt_execute_uninitializers 004bb47f f   libucrt:shared_initialization.obj
 0001:000ba4cc       ___acrt_initialize_new_handler 004bb4cc f   libucrt:new_handler.obj
 0001:000ba4e0       __callnewh                 004bb4e0 f   libucrt:new_handler.obj
 0001:000ba524       __query_new_handler        004bb524 f   libucrt:new_handler.obj
 0001:000ba576       ___acrt_lowio_create_handle_array 004bb576 f   libucrt:osfinfo.obj
 0001:000ba5f0       ___acrt_lowio_destroy_handle_array 004bb5f0 f   libucrt:osfinfo.obj
 0001:000ba625       ___acrt_lowio_ensure_fh_exists 004bb625 f   libucrt:osfinfo.obj
 0001:000ba6bd       ___acrt_lowio_lock_fh      004bb6bd f   libucrt:osfinfo.obj
 0001:000ba6e0       ___acrt_lowio_set_os_handle 004bb6e0 f   libucrt:osfinfo.obj
 0001:000ba774       ___acrt_lowio_unlock_fh    004bb774 f   libucrt:osfinfo.obj
 0001:000ba797       __alloc_osfhnd             004bb797 f   libucrt:osfinfo.obj
 0001:000ba8a9       __free_osfhnd              004bb8a9 f   libucrt:osfinfo.obj
 0001:000ba93a       __get_osfhandle            004bb93a f   libucrt:osfinfo.obj
 0001:000ba9a4       ____lc_codepage_func       004bb9a4 f   libucrt:initctype.obj
 0001:000ba9cb       ___acrt_locale_free_monetary 004bb9cb f   libucrt:initmon.obj
 0001:000baac9       ___acrt_locale_free_numeric 004bbac9 f   libucrt:initnum.obj
 0001:000bab6e       ___acrt_locale_free_time   004bbb6e f   libucrt:inittime.obj
 0001:000bac52       ___acrt_GetStringTypeA     004bbc52 f   libucrt:getstringtypea.obj
 0001:000bad6f       ___acrt_add_locale_ref     004bbd6f f   libucrt:locale_refcounting.obj
 0001:000badec       ___acrt_free_locale        004bbdec f   libucrt:locale_refcounting.obj
 0001:000baf36       ___acrt_locale_add_lc_time_reference 004bbf36 f   libucrt:locale_refcounting.obj
 0001:000baf5f       ___acrt_locale_free_lc_time_if_unreferenced 004bbf5f f   libucrt:locale_refcounting.obj
 0001:000baf8f       ___acrt_locale_release_lc_time_reference 004bbf8f f   libucrt:locale_refcounting.obj
 0001:000bafb8       ___acrt_release_locale_ref 004bbfb8 f   libucrt:locale_refcounting.obj
 0001:000bb039       ___acrt_update_thread_locale_data 004bc039 f   libucrt:locale_refcounting.obj
 0001:000bb0b0       __updatetlocinfoEx_nolock  004bc0b0 f   libucrt:locale_refcounting.obj
 0001:000bb1ab       __clearfp                  004bc1ab f   libucrt:ieee87.obj
 0001:000bb289       __control87                004bc289 f   libucrt:ieee87.obj
 0001:000bb624       __frnd                     004bc624 f   libucrt:frnd.obj
 0001:000bb63a       __87except                 004bc63a f   libucrt:87except.obj
 0001:000bb801       ___acrt_DownlevelLocaleNameToLCID 004bc801 f   libucrt:lcidtoname_downlevel.obj
 0001:000bb82d       ___acrt_fp_strflt_to_string 004bc82d f   libucrt:_fptostr.obj
 0001:000bb8e9       ??0scoped_fp_state_reset@?A0x48fbfdd4@@QAE@XZ 004bc8e9 f i libucrt:cfout.obj
 0001:000bb913       ___acrt_fltout             004bc913 f   libucrt:cfout.obj
 0001:000bccaf       __isatty                   004bdcaf f   libucrt:isatty.obj
 0001:000bcd05       __fpclass                  004bdd05 f   libucrt:ieeemisc.obj
 0001:000bcda9       __strnicmp                 004bdda9 f   libucrt:strnicmp.obj
 0001:000bce15       __strnicmp_l               004bde15 f   libucrt:strnicmp.obj
 0001:000bd4a6       __sopen_nolock             004be4a6 f   libucrt:open.obj
 0001:000bd4f7       __sopen_s                  004be4f7 f   libucrt:open.obj
 0001:000bd517       __wsopen_nolock            004be517 f   libucrt:open.obj
 0001:000bd840       __putwch_nolock            004be840 f   libucrt:putwch.obj
 0001:000bd885       ___acrt_stdio_allocate_buffer_nolock 004be885 f   libucrt:_getbuf.obj
 0001:000bdb85       __getfpcontrolword         004beb85 f   libucrt:_fenvutils.obj
 0001:000bdbc8       __getfpstatusword          004bebc8 f   libucrt:_fenvutils.obj
 0001:000bdc70       __setfpcontrolword         004bec70 f   libucrt:_fenvutils.obj
 0001:000bdcf0       __setfpstatusword          004becf0 f   libucrt:_fenvutils.obj
 0001:000bdedd       _getenv_s                  004beedd f   libucrt:getenv.obj
 0001:000bdf99       _strncpy_s                 004bef99 f   libucrt:strncpy_s.obj
 0001:000be11d       __mbstowcs_s_l             004bf11d f   libucrt:mbstowcs.obj
 0001:000be200       __wcsicmp                  004bf200 f   libucrt:wcsicmp.obj
 0001:000be295       __wcsicmp_l                004bf295 f   libucrt:wcsicmp.obj
 0001:000be375       ___strncnt                 004bf375 f   libucrt:strncnt.obj
 0001:000be480       _qsort                     004bf480 f   libucrt:qsort.obj
 0001:000be81a       __mbsdec                   004bf81a f   libucrt:mbsdec.obj
 0001:000be831       __mbsdec_l                 004bf831 f   libucrt:mbsdec.obj
 0001:000be8cd       __strnicoll                004bf8cd f   libucrt:strnicol.obj
 0001:000be8f6       __strnicoll_l              004bf8f6 f   libucrt:strnicol.obj
 0001:000be9c0       __msize                    004bf9c0 f   libucrt:msize.obj
 0001:000be9f3       __realloc_base             004bf9f3 f   libucrt:realloc_base.obj
 0001:000bea5c       _fegetenv                  004bfa5c f   libucrt:fegetenv.obj
 0001:000bea79       _fesetenv                  004bfa79 f   libucrt:fesetenv.obj
 0001:000beac2       _feholdexcept              004bfac2 f   libucrt:feholdexcept.obj
 0001:000beb11       __towlower_l               004bfb11 f   libucrt:towlower.obj
 0001:000bebe0       ___ascii_strnicmp          004bfbe0 f   libucrt:_strnicm.obj
 0001:000bec41       __chsize_nolock            004bfc41 f   libucrt:chsize.obj
 0001:000bedd2       ___dcrt_lowio_initialize_console_output 004bfdd2 f   libucrt:initcon.obj
 0001:000bedf1       ___dcrt_terminate_console_output 004bfdf1 f   libucrt:initcon.obj
 0001:000bf0b0       ___acrt_CompareStringA     004c00b0 f   libucrt:comparestringa.obj
 0001:000bf0f8       ___acrt_LCMapStringW       004c00f8 f   libucrt:lcmapstringw.obj
 0001:000bf136       _IsProcessorFeaturePresent@4 004c0136 f   kernel32:KERNEL32.dll
 0001:000bf140       __FindPESection            004c0140 f   LIBCMT:pesect.obj
 0001:000bf190       __IsNonwritableInCurrentImage 004c0190 f   LIBCMT:pesect.obj
 0001:000bf250       __ValidateImageBase        004c0250 f   LIBCMT:pesect.obj
 0001:000bf283       __EH_prolog3_catch         004c0283 f   LIBCMT:ehprolg3.obj
 0001:000bf2c0       __aulldvrm                 004c02c0 f   LIBCMT:ulldvrm.obj
 0001:000bf360       __SEH_prolog4_GS           004c0360 f   LIBCMT:_sehprolg4gs_.obj
 0001:000bf3a9       __SEH_epilog4_GS           004c03a9 f   LIBCMT:_sehprolg4gs_.obj
 0001:000bf3c0       __allmul                   004c03c0 f   LIBCMT:llmul.obj
 0001:000bf400       __allshl                   004c0400 f   LIBCMT:llshl.obj
 0001:000bf420       __aullshr                  004c0420 f   LIBCMT:ullshr.obj
 0001:000bf440       __alldvrm                  004c0440 f   LIBCMT:lldvrm.obj
 0001:000bf520       __alldiv                   004c0520 f   LIBCMT:lldiv.obj
 0001:000bf5d0       __allrem                   004c05d0 f   LIBCMT:llrem.obj
 0001:000bf690       __alloca_probe             004c0690 f   LIBCMT:chkstk.obj
 0001:000bf690       __chkstk                   004c0690 f   LIBCMT:chkstk.obj
 0001:000bf6c0       __alloca_probe_16          004c06c0 f   LIBCMT:alloca16.obj
 0001:000bf6d6       __alloca_probe_8           004c06d6     LIBCMT:alloca16.obj
 0001:000bf6f0       __ftol2_sse                004c06f0 f   LIBCMT:_ftol2_.obj
 0001:000bf6f9       __ftol2_pentium4           004c06f9 f   LIBCMT:_ftol2_.obj
 0001:000bf70c       __ftol2_sse_excpt          004c070c f   LIBCMT:_ftol2_.obj
 0001:000bf730       __ftol2                    004c0730 f   LIBCMT:_ftol2_.obj
 0001:000bf840       ?shouldsaveblendmap@@YAEXZ 004c0840 f   blend.obj
 0001:000bf850       ?saveblendmap@@YAXPAUstream@@@Z 004c0850 f   blend.obj
 0001:000bf870       ?saveblendmap@@YAXPAUstream@@EAAUBlendMapNode@@@Z 004c0870 f   blend.obj
 0001:000bf8e0       ?loadblendmap@@YA_NPAUstream@@H@Z 004c08e0 f   blend.obj
 0001:000bf920       ?loadblendmap@@YA_NPAUstream@@AAEAAUBlendMapNode@@@Z 004c0920 f   blend.obj
 0001:000bfa30       ?renderblendbrush@@YAXXZ   004c0a30 f   blend.obj
 0001:000bfb90       ?run@?$_icmd_moveblendmap@$0DAJ@@@SAXPAH0@Z 004c0b90 f   blend.obj
 0001:000bfcc0       ?run@?$_icmd_clearblendmap@$0CPK@@@SAXXZ 004c0cc0 f   blend.obj
 0001:000bfd30       ?showblendmap@@YAXXZ       004c0d30 f   blend.obj
 0001:000bfdc0       ?invertblendmap@@YAXXZ     004c0dc0 f   blend.obj
 0001:000bff20       ?invertblendmapsel@@YAXXZ  004c0f20 f   blend.obj
 0001:000c00d0       ?clearblendmapsel@@YAXXZ   004c10d0 f   blend.obj
 0001:000c0280       ?run@?$_icmd_paintblendmap@$0CMG@@@SAXPAH@Z 004c1280 f   blend.obj
 0001:000c02c0       ?trypaintblendmap@@YAXXZ   004c12c0 f   blend.obj
 0001:000c0320       ?stoppaintblendmap@@YAXXZ  004c1320 f   blend.obj
 0001:000c0340       ?paintblendmap@@YAX_N@Z    004c1340 f   blend.obj
 0001:000c0480       ?rotateblendbrush@@YAXPAH@Z 004c1480 f   blend.obj
 0001:000c0660       ?canpaintblendmap@@YA_N_N00@Z 004c1660 f   blend.obj
 0001:000c06f0       ?curblendbrush@@YAXXZ      004c16f0 f   blend.obj
 0001:000c0710       ?getblendbrushname@@YAXPAH@Z 004c1710 f   blend.obj
 0001:000c0780       ?setblendbrush@@YAXPBD@Z   004c1780 f   blend.obj
 0001:000c07c0       ?nextblendbrush@@YAXPAH@Z  004c17c0 f   blend.obj
 0001:000c0810       ?addblendbrush@@YAXPBD0@Z  004c1810 f   blend.obj
 0001:000c0ac0       ?delblendbrush@@YAXPBD@Z   004c1ac0 f   blend.obj
 0001:000c0bb0       ?clearblendbrushes@@YAXXZ  004c1bb0 f   blend.obj
 0001:000c0c30       ?cleanupblendmap@@YAXXZ    004c1c30 f   blend.obj
 0001:000c0c70       ?moveblendmap@@YAXHH@Z     004c1c70 f   blend.obj
 0001:000c0cd0       ?moveblendmap@@YAXEAAUBlendMapNode@@HHHHH@Z 004c1cd0 f   blend.obj
 0001:000c0dc0       ?shrinkblendmap@@YAXH@Z    004c1dc0 f   blend.obj
 0001:000c0e20       ?enlargeblendmap@@YAXXZ    004c1e20 f   blend.obj
 0001:000c0e80       ?resetblendmap@@YAXXZ      004c1e80 f   blend.obj
 0001:000c0eb0       ?blitblendmap@@YAXPAEHHHHH@Z 004c1eb0 f   blend.obj
 0001:000c15d0       ?var_blendpaintmode@@YAXXZ 004c25d0 f   blend.obj
 0001:000c15f0       ?optimizeblendmap@@YAXXZ   004c25f0 f   blend.obj
 0001:000c16d0       ?invertblendmap@@YAXHHHH@Z 004c26d0 f   blend.obj
 0001:000c1990       ?fillblendmap@@YAXHHHHE@Z  004c2990 f   blend.obj
 0001:000c1c90       ?lookupblendmap@@YAEPAUBlendMapCache@@ABUvec@@@Z 004c2c90 f   blend.obj
 0001:000c1f50       ?setblendmaporigin@@YA_NPAUBlendMapCache@@ABUivec@@H@Z 004c2f50 f   blend.obj
 0001:000c20d0       ?freeblendmapcache@@YAXAAPAUBlendMapCache@@@Z 004c30d0 f   blend.obj
 0001:000c20f0       ?newblendmapcache@@YAPAUBlendMapCache@@XZ 004c30f0 f   blend.obj
 0001:000c2150       ?shrink@BlendMapBranch@@QAEEAAUBlendMapNode@@H@Z 004c3150 f   blend.obj
 0001:000c2180       ?splitsolid@BlendMapNode@@QAEXAAEE@Z 004c3180 f   blend.obj
 0001:000c21f0       ?cleanup@BlendMapNode@@QAEXH@Z 004c31f0 f   blend.obj
 0001:000c23e0       ?dumplms@@YAXXZ            004c33e0 f   lightmap.obj
 0001:000c2540       ?brightestlight@@YAPAUentity@@ABUvec@@0@Z 004c3540 f   lightmap.obj
 0001:000c28e0       ?lightreaching@@YAXABUvec@@AAU1@1_NPAUextentity@@M@Z 004c38e0 f   lightmap.obj
 0001:000c3550       ?initlights@@YAXXZ         004c4550 f   lightmap.obj
 0001:000c3670       ?lightents@@YAX_N@Z        004c4670 f   lightmap.obj
 0001:000c37f0       ?lightent@@YAXAAUextentity@@M@Z 004c47f0 f   lightmap.obj
 0001:000c38b0       ?clearlights@@YAXXZ        004c48b0 f   lightmap.obj
 0001:000c3970       ?genlightmaptexs@@YAXHH@Z  004c4970 f   lightmap.obj
 0001:000c4000       ?var_batchlightmaps@@YAXXZ 004c5000 f   lightmap.obj
 0001:000c4020       ?var_roundlightmaptex@@YAXXZ 004c5020 f   lightmap.obj
 0001:000c4170       ?genreservedlightmaptexs@@YAXXZ 004c5170 f   lightmap.obj
 0001:000c48e0       ?fixrotatedlightmaps@@YAXXZ 004c58e0 f   lightmap.obj
 0001:000c4950       ?fixrotatedlightmaps@@YAXAAUcube@@ABUivec@@H@Z 004c5950 f   lightmap.obj
 0001:000c4cf0       ?fixlightmapnormals@@YAXXZ 004c5cf0 f   lightmap.obj
 0001:000c4ec0       ?var_fullbrightlevel@@YAXXZ 004c5ec0 f   lightmap.obj
 0001:000c4ff0       ?var_fullbright@@YAXXZ     004c5ff0 f   lightmap.obj
 0001:000c5010       ?setfullbrightlevel@@YAXH@Z 004c6010 f   lightmap.obj
 0001:000c5140       ?clearlightmaps@@YAXXZ     004c6140 f   lightmap.obj
 0001:000c5190       ?patchlight@@YAXPAH@Z      004c6190 f   lightmap.obj
 0001:000c5620       ?calclight@@YAXPAH@Z       004c6620 f   lightmap.obj
 0001:000c6010       ?setlightmapquality@@YA_NH@Z 004c7010 f   lightmap.obj
 0001:000c60a0       ?setupthread@lightmapworker@@QAE_NXZ 004c70a0 f   lightmap.obj
 0001:000c60f0       ?reset@lightmapworker@@QAEXXZ 004c70f0 f   lightmap.obj
 0001:000c6150       ?cleanupthread@lightmapworker@@QAEXXZ 004c7150 f   lightmap.obj
 0001:000c6180       ??1lightmapworker@@QAE@XZ  004c7180 f   lightmap.obj
 0001:000c6270       ??0lightmapworker@@QAE@XZ  004c7270 f   lightmap.obj
 0001:000c6400       ?resetlightmaps@@YAX_N@Z   004c7400 f   lightmap.obj
 0001:000c65b0       ?cleanuplightmaps@@YAXXZ   004c75b0 f   lightmap.obj
 0001:000c79f0       ?work@lightmapworker@@SAHPAX@Z 004c89f0 f   lightmap.obj
 0001:000cab90       ?checklightcache@@YAABU?$vector@H@@HH@Z 004cbb90 f   lightmap.obj
 0001:000cacf0       ?clearlightcache@@YAXH@Z   004cbcf0 f   lightmap.obj
 0001:000cae10       ?var_lightcachesize@@YAXXZ 004cbe10 f   lightmap.obj
 0001:000d0420       ?copy@LightMap@@QAEXGGPAEGG@Z 004d1420 f   lightmap.obj
 0001:000d0490       ?insert@LightMap@@QAE_NAAG0PAEGG@Z 004d1490 f   lightmap.obj
 0001:000d04f0       ?insert@PackNode@@QAE_NAAG0GG@Z 004d14f0 f   lightmap.obj
 0001:000d0750       ?show_calclight_progress@@YAXXZ 004d1750 f   lightmap.obj
 0001:000d09b0       ?check_calclight_canceled@@YAXXZ 004d19b0 f   lightmap.obj
 0001:000d0a00       ?setsurface@@YAXAAUcube@@HABUsurfaceinfo@@PBUvertinfo@@H@Z 004d1a00 f   lightmap.obj
 0001:000d0d00       ?setsurfaces@@YAXAAUcube@@PBUsurfaceinfo@@PBUvertinfo@@H@Z 004d1d00 f   lightmap.obj
 0001:000d0d70       ?brightencube@@YAXAAUcube@@@Z 004d1d70 f   lightmap.obj
 0001:000d0dc0       ?setupsunlight@@YAXXZ      004d1dc0 f   lightmap.obj
 0001:000d0fa0       ?setsunlightdir@@YAXXZ     004d1fa0 f   lightmap.obj
 0001:000d1150       ?var_sunlightpitch@@YAXXZ  004d2150 f   lightmap.obj
 0001:000d1160       ?var_sunlightyaw@@YAXXZ    004d2160 f   lightmap.obj
 0001:000d1170       ?var_sunlightscale@@YAXXZ  004d2170 f   lightmap.obj
 0001:000d1180       ?var_sunlight@@YAXXZ       004d2180 f   lightmap.obj
 0001:000d11d0       ?var_skylight@@YAXXZ       004d21d0 f   lightmap.obj
 0001:000d1220       ?var_ambient@@YAXXZ        004d2220 f   lightmap.obj
 0001:000d1270       ?previewblends@@YAXABUivec@@0@Z 004d2270 f   lightmap.obj
 0001:000d13a0       ?updatelerpbounds@@YAXMPBUlerpvert@@HAAUlerpbounds@@1@Z 004d23a0 f   normal.obj
 0001:000d1470       ?setlerpstep@@YAXMAAUlerpbounds@@@Z 004d2470 f   normal.obj
 0001:000d1690       ?addnormals@@YAXAAUcube@@ABUivec@@H@Z 004d2690 f   normal.obj
 0001:000d2420       ?show_addnormals_progress@@YAXXZ 004d3420 f   normal.obj
 0001:000d2c20       ?initlerpbounds@@YAXMMPBUlerpvert@@HAAUlerpbounds@@1@Z 004d3c20 f   normal.obj
 0001:000d2d60       ?lerpnormal@@YAXMMPBUlerpvert@@HAAUlerpbounds@@1AAUvec@@2@Z 004d3d60 f   normal.obj
 0001:000d3140       ?calclerpverts@@YAXPBUvec2@@PBUvec@@PAUlerpvert@@AAH@Z 004d4140 f   normal.obj
 0001:000d3260       ?findnormal@@YAXABUvec@@0AAU1@@Z 004d4260 f   normal.obj
 0001:000d32b0       ?calcnormals@@YAX_N@Z      004d42b0 f   normal.obj
 0001:000d3370       ?clearnormals@@YAXXZ       004d4370 f   normal.obj
 0001:000d3a00       ?calcmerges@@YAXXZ         004d4a00 f   octa.obj
 0001:000d3af0       ?genmerges@@YAXPAUcube@@ABUivec@@H@Z 004d4af0 f   octa.obj
 0001:000d4000       ?mergepolys@@YAXHABUivec@@0HAAU?$vector@Upoly@@@@@Z 004d5000 f   octa.obj
 0001:000d4390       ?addmerges@@YAXHABUivec@@0HAAU?$vector@Upoly@@@@@Z 004d5390 f   octa.obj
 0001:000d4430       ?addmerge@@YAXAAUcube@@HABUivec@@1HAAUpoly@@@Z 004d5430 f   octa.obj
 0001:000d46d0       ?mergepolys@@YA_NHAAU?$hashset@Uplink@@@@AAU?$vector@PAUplink@@@@HAAUpoly@@2ABUpedge@@@Z 004d56d0 f   octa.obj
 0001:000d4ab0       ?genpoly@@YA_NAAUcube@@HABUivec@@HHAAU2@AAHAAUpoly@@@Z 004d5ab0 f   octa.obj
 0001:000d5420       ?clippoly@@YA_NAAUpoly@@ABUfacebounds@@@Z 004d6420 f   octa.obj
 0001:000d5910       ?mincubeface@@YA_NABUcube@@HABUivec@@HAAUfacebounds@@@Z 004d6910 f   octa.obj
 0001:000d59f0       ?mincubeface@@YAXABUcube@@HABUivec@@HABUfacebounds@@AAU3@GG@Z 004d69f0 f   octa.obj
 0001:000d5ed0       ?mergefaces@@YAHHPAUfacebounds@@H@Z 004d6ed0 f   octa.obj
 0001:000d61a0       ?genclipplanes@@YAXABUcube@@ABUivec@@HAAUclipplanes@@_N@Z 004d71a0 f   octa.obj
 0001:000d6960       ?calcvert@@YAXABUcube@@ABUivec@@HAAUvec@@H_N@Z 004d7960 f   octa.obj
 0001:000d69e0       ?classifyface@@YAHABUcube@@HABUivec@@H@Z 004d79e0 f   octa.obj
 0001:000d6d40       ?visibleface@@YA_NABUcube@@HABUivec@@HGGG@Z 004d7d40 f   octa.obj
 0001:000d73e0       ?collapsedface@@YA_NABUcube@@H@Z 004d83e0 f   octa.obj
 0001:000d8710       ?faceedges@@YAIABUcube@@H@Z 004d9710 f   octa.obj
 0001:000d87b0       ?faceconvexity@@YAHABUcube@@H@Z 004d97b0 f   octa.obj
 0001:000d8800       ?faceconvexity@@YAHQBUivec@@AAH@Z 004d9800 f   octa.obj
 0001:000d8960       ?notouchingface@@YA_NABUcube@@H@Z 004d9960 f   octa.obj
 0001:000d8990       ?touchingface@@YA_NABUcube@@H@Z 004d9990 f   octa.obj
 0001:000d89c0       ?collideface@@YA_NABUcube@@H@Z 004d99c0 f   octa.obj
 0001:000d8a70       ?edgespan2vectorcube@@YAXAAUcube@@@Z 004d9a70 f   octa.obj
 0001:000d93b0       ?genvertp@@YAXAAUcube@@AAUivec@@11AAUplane@@_N@Z 004da3b0 f   octa.obj
 0001:000d95e0       ?remip_@@YAXXZ             004da5e0 f   octa.obj
 0001:000d95f0       ?remip@@YA_NAAUcube@@ABUivec@@H@Z 004da5f0 f   octa.obj
 0001:000d9b60       ?visibleorient@@YAHABUcube@@H@Z 004dab60 f   octa.obj
 0001:000d9c20       ?crushededge@@YA_NEH@Z     004dac20 f   octa.obj
 0001:000d9c40       ?subdividecube@@YA_NAAUcube@@_N1@Z 004dac40 f   octa.obj
 0001:000da450       ?forcemip@@YAXAAUcube@@_N@Z 004db450 f   octa.obj
 0001:000da610       ?getmippedtexture@@YAHABUcube@@H@Z 004db610 f   octa.obj
 0001:000da730       ?neighbourcube@@YAABUcube@@ABU1@HABUivec@@HAAU2@AAH@Z 004db730 f   octa.obj
 0001:000da890       ?lookupmaterial@@YAHABUvec@@@Z 004db890 f   octa.obj
 0001:000da930       ?lookupcube@@YAAAUcube@@ABUivec@@HAAU2@AAH@Z 004db930 f   octa.obj
 0001:000daaa0       ?validatec@@YAXPAUcube@@H@Z 004dbaa0 f   octa.obj
 0001:000dab80       ?isvalidcube@@YA_NABUcube@@@Z 004dbb80 f   octa.obj
 0001:000dac60       ?printcube@@YAXXZ          004dbc60 f   octa.obj
 0001:000dacd0       ?optiface@@YAXPAEAAUcube@@@Z 004dbcd0 f   octa.obj
 0001:000dadf0       ?setcubevector@@YAXAAUcube@@HHHHABUivec@@@Z 004dbdf0 f   octa.obj
 0001:000daee0       ?getcubevector@@YAXAAUcube@@HHHHAAUivec@@@Z 004dbee0 f   octa.obj
 0001:000daf80       ?discardchildren@@YAXAAUcube@@_NH@Z 004dbf80 f   octa.obj
 0001:000db060       ?freecubeext@@YAXAAUcube@@@Z 004dc060 f   octa.obj
 0001:000db080       ?freeocta@@YAXPAUcube@@@Z  004dc080 f   octa.obj
 0001:000db140       ?familysize@@YAHABUcube@@@Z 004dc140 f   octa.obj
 0001:000db170       ?newcubes@@YAPAUcube@@IH@Z 004dc170 f   octa.obj
 0001:000db1f0       ?newcubeext@@YAPAUcubeext@@AAUcube@@H_N@Z 004dc1f0 f   octa.obj
 0001:000db280       ?growcubeext@@YAPAUcubeext@@PAU1@H@Z 004dc280 f   octa.obj
 0001:000db2e0       ?setcubeext@@YAXAAUcube@@PAUcubeext@@@Z 004dc2e0 f   octa.obj
 0001:000db300       ?calcmergedsize@@YAHHABUivec@@HPBUvertinfo@@H@Z 004dc300 f   octa.obj
 0001:000db4d0       ?flataxisface@@YA_NABUcube@@H@Z 004dc4d0 f   octa.obj
 0001:000db500       ?faceconvexity@@YAHPBUvertinfo@@HH@Z 004dc500 f   octa.obj
 0001:000db620       ?genfaceverts@@YAXABUcube@@HQAUivec@@@Z 004dc620 f   octa.obj
 0001:000dba80       ?faceconvexity@@YAHQBUivec@@@Z 004dca80 f   octa.obj
 0001:000dbb50       ?visibletris@@YAHABUcube@@HABUivec@@HGG@Z 004dcb50 f   octa.obj
 0001:000dc100       ?invalidatemerges@@YAXAAUcube@@ABUivec@@H_N@Z 004dd100 f   octa.obj
 0001:000dc140       ?mpremip@@YAX_N@Z          004dd140 f   octa.obj
 0001:000dcec0       ?rendertexturepanel@@YAXHH@Z 004ddec0 f   octaedit.obj
 0001:000ddca0       ?showtexgui@@YAXPAH@Z      004deca0 f   octaedit.obj
 0001:000dde00       ?g3d_texturemenu@@YAXXZ    004dee00 f   octaedit.obj
 0001:000dded0       ?editmat@@YAXPAD0@Z        004deed0 f   octaedit.obj
 0001:000de040       ?mpeditmat@@YAXHHAAUselinfo@@_N@Z 004df040 f   octaedit.obj
 0001:000de2e0       ?setmat@@YAXAAUcube@@GGGGH@Z 004df2e0 f   octaedit.obj
 0001:000de3c0       ?rotate@@YAXPAH@Z          004df3c0 f   octaedit.obj
 0001:000de4c0       ?mprotate@@YAXHAAUselinfo@@_N@Z 004df4c0 f   octaedit.obj
 0001:000de940       ?flip@@YAXXZ               004df940 f   octaedit.obj
 0001:000dea30       ?mpflip@@YAXAAUselinfo@@_N@Z 004dfa30 f   octaedit.obj
 0001:000decf0       ?rotatecube@@YAXAAUcube@@H@Z 004dfcf0 f   octaedit.obj
 0001:000def30       ?rotatequad@@YAXAAUcube@@000@Z 004dff30 f   octaedit.obj
 0001:000def90       ?flipcube@@YAXAAUcube@@H@Z 004dff90 f   octaedit.obj
 0001:000df260       ?mflip@@YAII@Z             004e0260 f   octaedit.obj
 0001:000df280       ?rflip@@YAII@Z             004e0280 f   octaedit.obj
 0001:000df290       ?cflip@@YAII@Z             004e0290 f   octaedit.obj
 0001:000df2b0       ?dflip@@YAII@Z             004e02b0 f   octaedit.obj
 0001:000df2e0       ?run@?$_icmd_replacesel@$0JKF@@@SAXXZ 004e02e0 f   octaedit.obj
 0001:000df2f0       ?run@?$_icmd_replace@$0JKE@@@SAXXZ 004e02f0 f   octaedit.obj
 0001:000df300       ?replace@@YAX_N@Z          004e0300 f   octaedit.obj
 0001:000df420       ?mpreplacetex@@YA_NHH_NAAUselinfo@@AAU?$databuf@E@@@Z 004e0420 f   octaedit.obj
 0001:000df4e0       ?mpreplacetex@@YAXHH_NAAUselinfo@@0@Z 004e04e0 f   octaedit.obj
 0001:000df7e0       ?replacetexcube@@YAXAAUcube@@HH@Z 004e07e0 f   octaedit.obj
 0001:000df830       ?run@?$_icmd_getreptex@$0JHN@@@SAXXZ 004e0830 f   octaedit.obj
 0001:000df940       ?gettexname@@YAXPAH0@Z     004e0940 f   octaedit.obj
 0001:000df9d0       ?getseltex@@YAXXZ          004e09d0 f   octaedit.obj
 0001:000dfa30       ?getcurtex@@YAXXZ          004e0a30 f   octaedit.obj
 0001:000dfa80       ?gettex@@YAXXZ             004e0a80 f   octaedit.obj
 0001:000dfc00       ?edittex_@@YAXPAH@Z        004e0c00 f   octaedit.obj
 0001:000dfd80       ?edittex@@YAXH_N@Z         004e0d80 f   octaedit.obj
 0001:000dfde0       ?compactmruvslots@@YAXXZ   004e0de0 f   octaedit.obj
 0001:000dfee0       ?filltexlist@@YAXXZ        004e0ee0 f   octaedit.obj
 0001:000e0070       ?mpedittex@@YA_NHHAAUselinfo@@AAU?$databuf@E@@@Z 004e1070 f   octaedit.obj
 0001:000e0090       ?shouldpacktex@@YAHH@Z     004e1090 f   octaedit.obj
 0001:000e01f0       ?mpedittex@@YAXHHAAUselinfo@@_N@Z 004e11f0 f   octaedit.obj
 0001:000e03f0       ?vshaderparam@@YAXPBDPAM111@Z 004e13f0 f   octaedit.obj
 0001:000e05e0       ?vreset@@YAXXZ             004e15e0 f   octaedit.obj
 0001:000e0770       ?vcolor@@YAXPAM00@Z        004e1770 f   octaedit.obj
 0001:000e0950       ?valpha@@YAXPAM0@Z         004e1950 f   octaedit.obj
 0001:000e0b10       ?vlayer@@YAXPAH@Z          004e1b10 f   octaedit.obj
 0001:000e0d20       ?vscale@@YAXPAM@Z          004e1d20 f   octaedit.obj
 0001:000e0ee0       ?vscroll@@YAXPAM0@Z        004e1ee0 f   octaedit.obj
 0001:000e10b0       ?voffset@@YAXPAH0@Z        004e20b0 f   octaedit.obj
 0001:000e1280       ?vrotate@@YAXPAH@Z         004e2280 f   octaedit.obj
 0001:000e1430       ?vdelta@@YAXPAD@Z          004e2430 f   octaedit.obj
 0001:000e1530       ?mpeditvslot@@YA_NHHAAUselinfo@@AAU?$databuf@E@@@Z 004e2530 f   octaedit.obj
 0001:000e1620       ?mpeditvslot@@YAXHAAUVSlot@@HAAUselinfo@@_N@Z 004e2620 f   octaedit.obj
 0001:000e1970       ?edittexcube@@YAXAAUcube@@HHAA_N@Z 004e2970 f   octaedit.obj
 0001:000e1e50       ?tofronttex@@YAXXZ         004e2e50 f   octaedit.obj
 0001:000e1ec0       ?delcube@@YAXXZ            004e2ec0 f   octaedit.obj
 0001:000e1fb0       ?mpdelcube@@YAXAAUselinfo@@_N@Z 004e2fb0 f   octaedit.obj
 0001:000e2190       ?pushsel@@YAXPAH@Z         004e3190 f   octaedit.obj
 0001:000e2230       ?editface@@YAXPAH0@Z       004e3230 f   octaedit.obj
 0001:000e22b0       ?mpeditface@@YAXHHAAUselinfo@@_N@Z 004e32b0 f   octaedit.obj
 0001:000e28c0       ?linkedpush@@YAXAAUcube@@HHHHH@Z 004e38c0 f   octaedit.obj
 0001:000e2a00       ?pushedge@@YAXAAEHH@Z      004e3a00 f   octaedit.obj
 0001:000e2aa0       ?bounded@@YAHH@Z           004e3aa0 f   octaedit.obj
 0001:000e2ac0       ?edithmap@@YAXHH@Z         004e3ac0 f   octaedit.obj
 0001:000e2b00       ?run@hmap@@YAXHH@Z         004e3b00 f   octaedit.obj
 0001:000e31f0       ?rippleandset@hmap@@YAXXZ  004e41f0 f   octaedit.obj
 0001:000e3250       ?smooth@hmap@@YAXXZ        004e4250 f   octaedit.obj
 0001:000e3340       ?paint@hmap@@YAXXZ         004e4340 f   octaedit.obj
 0001:000e3490       ?ripple@hmap@@YAXHHH_N@Z   004e4490 f   octaedit.obj
 0001:000e3b20       ?select@hmap@@YAXHHH@Z     004e4b20 f   octaedit.obj
 0001:000e3fe0       ?addpoint@hmap@@YAXHHHH@Z  004e4fe0 f   octaedit.obj
 0001:000e4010       ?pushside@hmap@@YAXAAUcube@@HHHH@Z 004e5010 f   octaedit.obj
 0001:000e4130       ?getface@hmap@@YAIPAUcube@@H@Z 004e5130 f   octaedit.obj
 0001:000e4160       ?getcube@hmap@@YAPAUcube@@Uivec@@H@Z 004e5160 f   octaedit.obj
 0001:000e4270       ?run@?$_icmd_hmapselect@$0GCM@@@SAXXZ 004e5270 f   octaedit.obj
 0001:000e4320       ?hmapcancel@@YAXXZ         004e5320 f   octaedit.obj
 0001:000e4330       ?brushvert@@YAXPAH00@Z     004e5330 f   octaedit.obj
 0001:000e4440       ?clearbrush@@YAXXZ         004e5440 f   octaedit.obj
 0001:000e4490       ?compacteditvslots@@YAXXZ  004e5490 f   octaedit.obj
 0001:000e45d0       ?paste@@YAXXZ              004e55d0 f   octaedit.obj
 0001:000e46f0       ?pastehilite@@YAXXZ        004e56f0 f   octaedit.obj
 0001:000e4720       ?copy@@YAXXZ               004e5720 f   octaedit.obj
 0001:000e4750       ?mppaste@@YAXAAPAUeditinfo@@AAUselinfo@@_N@Z 004e5750 f   octaedit.obj
 0001:000e47a0       ?mpcopy@@YAXAAPAUeditinfo@@AAUselinfo@@_N@Z 004e57a0 f   octaedit.obj
 0001:000e4950       ?previewprefab@@YAXPBDABUvec@@@Z 004e5950 f   octaedit.obj
 0001:000e4fe0       ?genprefabmesh@@YAXAAUprefab@@@Z 004e5fe0 f   octaedit.obj
 0001:000e5b30       ?pasteprefab@@YAXPAD@Z     004e6b30 f   octaedit.obj
 0001:000e5c80       ?loadprefab@@YAPAUprefab@@PBD_N@Z 004e6c80 f   octaedit.obj
 0001:000e5f40       ?pasteblock@@YAXAAUblock3@@AAUselinfo@@_N@Z 004e6f40 f   octaedit.obj
 0001:000e6100       ?saveprefab@@YAXPAD@Z      004e7100 f   octaedit.obj
 0001:000e6420       ?delprefab@@YAXPAD@Z       004e7420 f   octaedit.obj
 0001:000e6560       ?cleanupprefabs@@YAXXZ     004e7560 f   octaedit.obj
 0001:000e65e0       ?packundo@@YA_NHAAHAAPAE0@Z 004e75e0 f   octaedit.obj
 0001:000e6630       ?unpackundo@@YA_NPBEHH@Z   004e7630 f   octaedit.obj
 0001:000e67d0       ?packundo@@YA_NPAUundoblock@@AAHAAPAE1@Z 004e77d0 f   octaedit.obj
 0001:000e69d0       ?freeeditinfo@@YAXAAPAUeditinfo@@@Z 004e79d0 f   octaedit.obj
 0001:000e6a50       ?unpackeditinfo@@YA_NAAPAUeditinfo@@PBEHH@Z 004e7a50 f   octaedit.obj
 0001:000e6b60       ?packeditinfo@@YA_NPAUeditinfo@@AAHAAPAE1@Z 004e7b60 f   octaedit.obj
 0001:000e7250       ?editredo@@YAXXZ           004e8250 f   octaedit.obj
 0001:000e7270       ?editundo@@YAXXZ           004e8270 f   octaedit.obj
 0001:000e7290       ?swapundo@@YAXAAUundolist@@0H@Z 004e8290 f   octaedit.obj
 0001:000e7870       ?makeundo@@YAXXZ           004e8870 f   octaedit.obj
 0001:000e7940       ?makeundo@@YAXAAUselinfo@@@Z 004e8940 f   octaedit.obj
 0001:000e7960       ?addundo@@YAXPAUundoblock@@@Z 004e8960 f   octaedit.obj
 0001:000e7a40       ?newundocube@@YAPAUundoblock@@AAUselinfo@@@Z 004e8a40 f   octaedit.obj
 0001:000e7c10       ?clearundos@@YAXXZ         004e8c10 f   octaedit.obj
 0001:000e7c20       ?pruneundos@@YAXH@Z        004e8c20 f   octaedit.obj
 0001:000e7d60       ?pasteundo@@YAXPAUundoblock@@@Z 004e8d60 f   octaedit.obj
 0001:000e7d90       ?pasteundoblock@@YAXPAUblock3@@PAE@Z 004e8d90 f   octaedit.obj
 0001:000e7eb0       ?freeundo@@YAXPAUundoblock@@@Z 004e8eb0 f   octaedit.obj
 0001:000e7ed0       ?selgridmap@@YAXAAUselinfo@@PAE@Z 004e8ed0 f   octaedit.obj
 0001:000e7ff0       ?freeblock@@YAXPAUblock3@@_N@Z 004e8ff0 f   octaedit.obj
 0001:000e80d0       ?blockcopy@@YAPAUblock3@@ABU1@H@Z 004e90d0 f   octaedit.obj
 0001:000e8120       ?blockcopy@@YAXABUblock3@@HPAU1@@Z 004e9120 f   octaedit.obj
 0001:000e82e0       ?changed@@YAXABUblock3@@_N@Z 004e92e0 f   octaedit.obj
 0001:000e83c0       ?readychanges@@YAXABUivec@@0PAUcube@@0H@Z 004e93c0 f   octaedit.obj
 0001:000e85c0       ?tryedit@@YAXXZ            004e95c0 f   octaedit.obj
 0001:000e8640       ?rendereditcursor@@YAXXZ   004e9640 f   octaedit.obj
 0001:000e98d0       ?editmoveplane@@YA_NABUvec@@0HMAAU1@1_N@Z 004ea8d0 f   octaedit.obj
 0001:000e9a40       ?updateselection@@YAXXZ    004eaa40 f   octaedit.obj
 0001:000e9af0       ?normalizelookupcube@@YAXABUivec@@@Z 004eaaf0 f   octaedit.obj
 0001:000e9b80       ?countselchild@@YAXPAUcube@@ABUivec@@H@Z 004eab80 f   octaedit.obj
 0001:000e9d10       ?run@?$_icmd_havesel@$0BAD@@@SAXXZ 004ead10 f   octaedit.obj
 0001:000e9d30       ?blockcube@@YAAAUcube@@HHHABUblock3@@H@Z 004ead30 f   octaedit.obj
 0001:000e9dd0       ?run@?$_icmd_selswap@$0ON@@@SAXXZ 004eadd0 f   octaedit.obj
 0001:000e9e60       ?run@?$_icmd_selrestore@$0OM@@@SAXXZ 004eae60 f   octaedit.obj
 0001:000e9eb0       ?run@?$_icmd_selsave@$0OL@@@SAXXZ 004eaeb0 f   octaedit.obj
 0001:000e9f00       ?run@?$_icmd_selmoved@$0OK@@@SAXXZ 004eaf00 f   octaedit.obj
 0001:000e9f70       ?run@?$_icmd_edittoggle@$0OD@@@SAXXZ 004eaf70 f   octaedit.obj
 0001:000e9f80       ?selextend@@YAXXZ          004eaf80 f   octaedit.obj
 0001:000ea060       ?reorient@@YAXXZ           004eb060 f   octaedit.obj
 0001:000ea0b0       ?toggleedit@@YAX_N@Z       004eb0b0 f   octaedit.obj
 0001:000ea360       ?cancelsel@@YAXXZ          004eb360 f   octaedit.obj
 0001:000ea3b0       ?cubecancel@@YAXXZ         004eb3b0 f   octaedit.obj
 0001:000ea400       ?forcenextundo@@YAXXZ      004eb400 f   octaedit.obj
 0001:000ea410       ?var_hmapedit@@YAXXZ       004eb410 f   octaedit.obj
 0001:000ea420       ?var_gridpower@@YAXXZ      004eb420 f   octaedit.obj
 0001:000ea4a0       ?run@?$_icmd_moving@$0HN@@@SAXPAH@Z 004eb4a0 f   octaedit.obj
 0001:000ea570       ?var_dragging@@YAXXZ       004eb570 f   octaedit.obj
 0001:000ea5d0       ?boxsgrid@@YAXHUvec@@0H@Z  004eb5d0 f   octaedit.obj
 0001:000ea860       ?boxs3D@@YAXABUvec@@U1@H@Z 004eb860 f   octaedit.obj
 0001:000ea8d0       ?boxs@@YAXHUvec@@ABU1@@Z   004eb8d0 f   octaedit.obj
 0001:000eaad0       ?boxs@@YAXHUvec@@ABU1@M@Z  004ebad0 f   octaedit.obj
 0001:000eb230       ?commitchanges@@YAX_N@Z    004ec230 f   octaedit.obj
 0001:000eb2d0       ?noedit@@YA_N_N0@Z         004ec2d0 f   octaedit.obj
 0001:000eba50       ?recalc@@YAXXZ             004eca50 f   octarender.obj
 0001:000eba60       ?precachetextures@@YAXXZ   004eca60 f   octarender.obj
 0001:000ebc10       ?findtjoints@@YAXHABUedgegroup@@@Z 004ecc10 f   octarender.obj
 0001:000ebda0       ?addtjoint@@YAXABUedgegroup@@ABUcubeedge@@H@Z 004ecda0 f   octarender.obj
 0001:000ebf50       ?updateva@@YAHPAUcube@@ABUivec@@HH@Z 004ecf50 f   octarender.obj
 0001:000ec490       ?var_vacubesize@@YAXXZ     004ed490 f   octarender.obj
 0001:000ec4a0       ?var_vafacemin@@YAXXZ      004ed4a0 f   octarender.obj
 0001:000ec4b0       ?var_vafacemax@@YAXXZ      004ed4b0 f   octarender.obj
 0001:000ec670       ?setva@@YAXAAUcube@@ABUivec@@HH@Z 004ed670 f   octarender.obj
 0001:000ecea0       ?calcmatbb@@YAXABUivec@@HAAU1@1@Z 004edea0 f   octarender.obj
 0001:000ecfe0       ?calcgeombb@@YAXABUivec@@HAAU1@1@Z 004edfe0 f   octarender.obj
 0001:000ed130       ?rendercube@@YAXAAUcube@@ABUivec@@HHAAH@Z 004ee130 f   octarender.obj
 0001:000ed350       ?addmergedverts@@YAXHABUivec@@@Z 004ee350 f   octarender.obj
 0001:000ed580       ?findmergedfaces@@YAHAAUcube@@ABUivec@@HHH@Z 004ee580 f   octarender.obj
 0001:000ed690       ?genmergedfaces@@YAHAAUcube@@ABUivec@@HH@Z 004ee690 f   octarender.obj
 0001:000ed970       ?updatevabb@@YAXPAUvtxarray@@_N@Z 004ee970 f   octarender.obj
 0001:000edd10       ?clearvas@@YAXPAUcube@@@Z  004eed10 f   octarender.obj
 0001:000ede90       ?newva@@YAPAUvtxarray@@ABUivec@@H@Z 004eee90 f   octarender.obj
 0001:000ee070       ?addskyverts@@YAXABUivec@@H@Z 004ef070 f   octarender.obj
 0001:000ee910       ?genskyfaces@@YAXAAUcube@@ABUivec@@H@Z 004ef910 f   octarender.obj
 0001:000eeb80       ?minskyface@@YAXAAUcube@@HABUivec@@HAAUfacebounds@@@Z 004efb80 f   octarender.obj
 0001:000eee50       ?gencubeverts@@YAXAAUcube@@ABUivec@@HH@Z 004efe50 f   octarender.obj
 0001:000ef5e0       ?gencubeedges@@YAXPAUcube@@ABUivec@@H@Z 004f05e0 f   octarender.obj
 0001:000ef6e0       ?gencubeedges@@YAXAAUcube@@ABUivec@@H@Z 004f06e0 f   octarender.obj
 0001:000eff40       ?addcubeverts@@YAXAAUVSlot@@HHPAUvec@@HGGPAUvertinfo@@HHGH_NH@Z 004f0f40 f   octarender.obj
 0001:000f0840       ?decodenormal@@YA?AUvec@@G@Z 004f1840 f   octarender.obj
 0001:000f0a30       ?addgrasstri@@YAXHPAUvertex@@HGG@Z 004f1a30 f   octarender.obj
 0001:000f1150       ?addtris@@YAXABUsortkey@@HPAUvertex@@PAHHHHH@Z 004f2150 f   octarender.obj
 0001:000f1d50       ?var_filltjoints@@YAXXZ    004f2d50 f   octarender.obj
 0001:000f1d60       ?calcshadowmask@@YAHPAUvec@@H@Z 004f2d60 f   octarender.obj
 0001:000f2030       ?addvbo@@YAPAEPAUvtxarray@@HHH@Z 004f3030 f   octarender.obj
 0001:000f2090       ?flushvbo@@YAXH@Z          004f3090 f   octarender.obj
 0001:000f2200       ?readva@@YA_NPAUvtxarray@@AAPAGAAPAUvertex@@@Z 004f3200 f   octarender.obj
 0001:000f2360       ?genvbo@@YAXHPAXHPAPAUvtxarray@@H@Z 004f3360 f   octarender.obj
 0001:000f2460       ?destroyvbo@@YAXI@Z        004f3460 f   octarender.obj
 0001:000f2500       ?var_vbosize@@YAXXZ        004f3500 f   octarender.obj
 0001:000f2510       ?octarender@@YAXXZ         004f3510 f   octarender.obj
 0001:000f2690       ?updatevabbs@@YAX_N@Z      004f3690 f   octarender.obj
 0001:000f26c0       ?guessnormals@@YAXPBUvec@@HPAU1@@Z 004f36c0 f   octarender.obj
 0001:000f2b70       ?reduceslope@@YAXAAUivec@@@Z 004f3b70 f   octarender.obj
 0001:000f2c10       ?findtjoints@@YAXXZ        004f3c10 f   octarender.obj
 0001:000f2d10       ?encodenormal@@YAGABUvec@@@Z 004f3d10 f   octarender.obj
 0001:000f2e10       ?destroyva@@YAXPAUvtxarray@@_N@Z 004f3e10 f   octarender.obj
 0001:000f3050       ?allchanged@@YAX_N@Z       004f4050 f   octarender.obj
 0001:000f84c0       ?run@?$_icmd_attack@$0IEE@@@SAXPAH@Z 004f94c0 f   physics.obj
 0001:000f8500       ?run@?$_icmd_jump@$0IED@@@SAXPAH@Z 004f9500 f   physics.obj
 0001:000f8550       ?run@?$_icmd_right@$0IDK@@@SAXPAH@Z 004f9550 f   physics.obj
 0001:000f8590       ?run@?$_icmd_left@$0IDJ@@@SAXPAH@Z 004f9590 f   physics.obj
 0001:000f85d0       ?run@?$_icmd_forward@$0IDI@@@SAXPAH@Z 004f95d0 f   physics.obj
 0001:000f8610       ?run@?$_icmd_backward@$0IDH@@@SAXPAH@Z 004f9610 f   physics.obj
 0001:000f8650       ?moveplatform@@YA_NPAUphysent@@ABUvec@@@Z 004f9650 f   physics.obj
 0001:000f9810       ?platformcollide@@YA_NPAUphysent@@0ABUvec@@M@Z 004fa810 f   physics.obj
 0001:000f9b80       ?updatephysstate@@YAXPAUphysent@@@Z 004fab80 f   physics.obj
 0001:000f9d40       ?bounce@@YA_NPAUphysent@@MMM@Z 004fad40 f   physics.obj
 0001:000f9ed0       ?moveplayer@@YAXPAUphysent@@H_N@Z 004faed0 f   physics.obj
 0001:000f9fb0       ?interppos@@YAXPAUphysent@@@Z 004fafb0 f   physics.obj
 0001:000fa050       ?physicsframe@@YAXXZ       004fb050 f   physics.obj
 0001:000fa0d0       ?moveplayer@@YA_NPAUphysent@@H_NH@Z 004fb0d0 f   physics.obj
 0001:000fa670       ?modifygravity@@YAXPAUphysent@@_NH@Z 004fb670 f   physics.obj
 0001:000fa8a0       ?modifyvelocity@@YAXPAUphysent@@_N11H@Z 004fb8a0 f   physics.obj
 0001:000fadb0       ?vectoyawpitch@@YAXABUvec@@AAM1@Z 004fbdb0 f   physics.obj
 0001:000fae80       ?vecfromyawpitch@@YAXMMHHAAUvec@@@Z 004fbe80 f   physics.obj
 0001:000fb060       ?phystest@@YAXXZ           004fc060 f   physics.obj
 0001:000fb1b0       ?dropenttofloor@@YAXPAUentity@@@Z 004fc1b0 f   physics.obj
 0001:000fb200       ?dropheight@@YAMAAUentity@@@Z 004fc200 f   physics.obj
 0001:000fb230       ?droptofloor@@YA_NAAUvec@@MM@Z 004fc230 f   physics.obj
 0001:000fb4a0       ?movecamera@@YA_NPAUphysent@@ABUvec@@MM@Z 004fc4a0 f   physics.obj
 0001:000fb680       ?avoidcollision@@YAXPAUphysent@@ABUvec@@0M@Z 004fc680 f   physics.obj
 0001:000fb870       ?bounce@@YA_NPAUphysent@@MMMM@Z 004fc870 f   physics.obj
 0001:000fbe00       ?spacemove@@YA_NPAUphysent@@AAUvec@@@Z 004fce00 f   physics.obj
 0001:000fc320       ?move@@YA_NPAUphysent@@AAUvec@@@Z 004fd320 f   physics.obj
 0001:000fc860       ?findfloor@@YA_NPAUphysent@@_NABUvec@@AA_NAAU2@@Z 004fd860 f   physics.obj
 0001:000fcb50       ?landing@@YAXPAUphysent@@AAUvec@@ABU2@_N@Z 004fdb50 f   physics.obj
 0001:000fcbb0       ?falling@@YAXPAUphysent@@AAUvec@@ABU2@@Z 004fdbb0 f   physics.obj
 0001:000fccc0       ?trystepdown@@YA_NPAUphysent@@AAUvec@@_N@Z 004fdcc0 f   physics.obj
 0001:000fcdd0       ?trystepdown@@YA_NPAUphysent@@AAUvec@@MMM_N@Z 004fddd0 f   physics.obj
 0001:000fd210       ?trystepup@@YA_NPAUphysent@@AAUvec@@ABU2@M2@Z 004fe210 f   physics.obj
 0001:000fd920       ?switchfloor@@YAXPAUphysent@@AAUvec@@ABU2@@Z 004fe920 f   physics.obj
 0001:000fdd50       ?slideagainst@@YAXPAUphysent@@AAUvec@@ABU2@_N3@Z 004fed50 f   physics.obj
 0001:000fdfe0       ?recalcdir@@YAXPAUphysent@@ABUvec@@AAU2@@Z 004fefe0 f   physics.obj
 0001:000fe0b0       ?collide@@YA_NPAUphysent@@ABUvec@@M_N2@Z 004ff0b0 f   physics.obj
 0001:000fe730       ?mmcollide@@YA_NPAUphysent@@ABUvec@@AAUoctaentities@@@Z 004ff730 f   physics.obj
 0001:000febc0       ?rotatebb@@YAXAAUvec@@0H@Z 004ffbc0 f   physics.obj
 0001:000fed10       ?plcollide@@YA_NPAUphysent@@ABUvec@@_N@Z 004ffd10 f   physics.obj
 0001:000ff4e0       ?overlapsdynent@@YA_NABUvec@@M@Z 005004e0 f   physics.obj
 0001:000ff650       ?updatedynentcache@@YAXPAUphysent@@@Z 00500650 f   physics.obj
 0001:000ff850       ?checkdynentcache@@YAABU?$vector@PAUphysent@@@@HH@Z 00500850 f   physics.obj
 0001:000ffa00       ?var_dynentsize@@YAXXZ     00500a00 f   physics.obj
 0001:000ffa10       ?cleardynentcache@@YAXXZ   00500a10 f   physics.obj
 0001:000ffa60       ?ellipsecollide@@YA_NPAUphysent@@ABUvec@@11MMMMM@Z 00500a60 f   physics.obj
 0001:000ffef0       ?ellipseboxcollide@@YA_NPAUphysent@@ABUvec@@11MMMMM@Z 00500ef0 f   physics.obj
 0001:00100350       ?rayfloor@@YAMABUvec@@AAU1@HM@Z 00501350 f   physics.obj
 0001:001003f0       ?raycubelos@@YA_NABUvec@@0AAU1@@Z 005013f0 f   physics.obj
 0001:00100530       ?raycubepos@@YAMABUvec@@0AAU1@MHH@Z 00501530 f   physics.obj
 0001:001005d0       ?raycube@@YAMABUvec@@0MHHPAUextentity@@@Z 005015d0 f   physics.obj
 0001:00101820       ?entinmap@@YA_NPAUdynent@@_N@Z 00502820 f   physics.obj
 0001:00101b20       ?rayent@@YAMABUvec@@0MHHAAH1@Z 00502b20 f   physics.obj
 0001:00101cc0       ?resetclipplanes@@YAXXZ    00502cc0 f   physics.obj
 0001:00101cf0       ?shadowray@@YAMPAUShadowRayCache@@ABUvec@@1MHPAUextentity@@@Z 00502cf0 f   physics.obj
 0001:00102570       ?shadowray@@YAMABUvec@@0MHPAUextentity@@@Z 00503570 f   physics.obj
 0001:00102e00       ?newshadowraycache@@YAPAUShadowRayCache@@XZ 00503e00 f   physics.obj
 0001:00102e60       ?freeshadowraycache@@YAXAAPAUShadowRayCache@@@Z 00503e60 f   physics.obj
 0001:00102e80       ?resetshadowraycache@@YAXPAUShadowRayCache@@@Z 00503e80 f   physics.obj
 0001:00102fc0       ?getnumviewcells@@YAHXZ    00503fc0 f   pvs.obj
 0001:00102fd0       ?loadpvs@@YAXPAUstream@@H@Z 00503fd0 f   pvs.obj
 0001:001031e0       ?loadviewcells@@YAPAUviewcellnode@@PAUstream@@@Z 005041e0 f   pvs.obj
 0001:001032d0       ?savepvs@@YAXPAUstream@@@Z 005042d0 f   pvs.obj
 0001:001033b0       ?saveviewcells@@YAXPAUstream@@AAUviewcellnode@@@Z 005043b0 f   pvs.obj
 0001:00103410       ?waterpvsoccluded@@YA_NH@Z 00504410 f   pvs.obj
 0001:00103480       ?pvsoccludedsphere@@YA_NABUvec@@M@Z 00504480 f   pvs.obj
 0001:00103540       ?pvsoccluded@@YA_NABUivec@@0@Z 00504540 f   pvs.obj
 0001:00103830       ?pvsstats@@YAXXZ           00504830 f   pvs.obj
 0001:00103880       ?genpvs@@YAXPAH@Z          00504880 f   pvs.obj
 0001:00104000       ?testpvs@@YAXPAH@Z         00505000 f   pvs.obj
 0001:001045e0       ?clearpvs@@YAXXZ           005055e0 f   pvs.obj
 0001:00104640       ?setviewcell@@YAXABUvec@@@Z 00505640 f   pvs.obj
 0001:001046f0       ?var_lockpvs@@YAXXZ        005056f0 f   pvs.obj
 0001:001058d0       ?getworldsize@@YAHXZ       005068d0 f   world.obj
 0001:001058e0       ?mpeditent@@YAXHABUvec@@HHHHHH_N@Z 005068e0 f   world.obj
 0001:00105a20       ?mapname@@YAXXZ            00506a20 f   world.obj
 0001:00105a70       ?mapenlarge@@YAXXZ         00506a70 f   world.obj
 0001:00105a90       ?newmap@@YAXPAH@Z          00506a90 f   world.obj
 0001:00105af0       ?shrinkmap@@YAXXZ          00506af0 f   world.obj
 0001:00105d80       ?enlargemap@@YA_N_N@Z      00506d80 f   world.obj
 0001:00105ed0       ?emptymap@@YA_NH_NPBD0@Z   00506ed0 f   world.obj
 0001:00106140       ?startmap@@YAXPBD@Z        00507140 f   world.obj
 0001:00106250       ?resetmap@@YAXXZ           00507250 f   world.obj
 0001:001065a0       ?splitocta@@YAXPAUcube@@H@Z 005075a0 f   world.obj
 0001:001065f0       ?findplayerspawn@@YAXPAUdynent@@HH@Z 005075f0 f   world.obj
 0001:00106730       ?findentity@@YAHHHHH@Z     00507730 f   world.obj
 0001:001067b0       ?entattr@@YAXPAH00@Z       005077b0 f   world.obj
 0001:00106d30       ?enttype@@YAXPADPAH@Z      00507d30 f   world.obj
 0001:00107140       ?run@?$_icmd_entindex@$0EDH@@@SAXXZ 00508140 f   world.obj
 0001:00107160       ?run@?$_icmd_entget@$0EDG@@@SAXXZ 00508160 f   world.obj
 0001:001072c0       ?run@?$_icmd_insel@$0EDF@@@SAXXZ 005082c0 f   world.obj
 0001:00107390       ?run@?$_icmd_entloop@$0EDE@@@SAXPAI@Z 00508390 f   world.obj
 0001:00107620       ?run@?$_icmd_entselect@$0EDD@@@SAXPAI@Z 00508620 f   world.obj
 0001:00107710       ?run@?$_icmd_enthavesel@$0EDC@@@SAXXZ 00508710 f   world.obj
 0001:001077a0       ?nearestent@@YAXXZ         005087a0 f   world.obj
 0001:001078c0       ?printent@@YAXAAUextentity@@PADH@Z 005088c0 f   world.obj
 0001:001079f0       ?entset@@YAXPADPAH1111@Z   005089f0 f   world.obj
 0001:00107e90       ?entpaste@@YAXXZ           00508e90 f   world.obj
 0001:00108290       ?entcopy@@YAXXZ            00509290 f   world.obj
 0001:001083e0       ?newent@@YAXPADPAH1111@Z   005093e0 f   world.obj
 0001:00108550       ?newentity@@YAXHHHHHH@Z    00509550 f   world.obj
 0001:00108670       ?newentity@@YAPAUextentity@@_NABUvec@@HHHHHHAAH@Z 00509670 f   world.obj
 0001:001089b0       ?attachent@@YAXXZ          005099b0 f   world.obj
 0001:00108da0       ?dropent@@YAXXZ            00509da0 f   world.obj
 0001:00109190       ?dropentity@@YA_NAAUentity@@H@Z 0050a190 f   world.obj
 0001:00109450       ?findtype@@YAHPAD@Z        0050a450 f   world.obj
 0001:001094b0       ?delent@@YAXXZ             0050a4b0 f   world.obj
 0001:00109830       ?entautoview@@YAXPAH@Z     0050a830 f   world.obj
 0001:001099c0       ?entpush@@YAXPAH@Z         0050a9c0 f   world.obj
 0001:00109fd0       ?run@?$_icmd_entmoving@$0DCD@@@SAXPAH@Z 0050afd0 f   world.obj
 0001:0010a0c0       ?run@?$_icmd_enttoggle@$0DBF@@@SAXXZ 0050b0c0 f   world.obj
 0001:0010a130       ?run@?$_icmd_entadd@$0DAP@@@SAXXZ 0050b130 f   world.obj
 0001:0010a1d0       ?enttoggle@@YA_NH@Z        0050b1d0 f   world.obj
 0001:0010a940       ?renderentradius@@YAXAAUextentity@@_N@Z 0050b940 f   world.obj
 0001:0010ad50       ?renderentcone@@YAXABUextentity@@ABUvec@@MM@Z 0050bd50 f   world.obj
 0001:0010b2a0       ?renderentarrow@@YAXABUextentity@@ABUvec@@M@Z 0050c2a0 f   world.obj
 0001:0010b6c0       ?renderentattachment@@YAXABUextentity@@@Z 0050c6c0 f   world.obj
 0001:0010b790       ?renderentsphere@@YAXABUextentity@@M@Z 0050c790 f   world.obj
 0001:0010b8e0       ?renderentring@@YAXABUextentity@@MH@Z 0050c8e0 f   world.obj
 0001:0010ba00       ?entrotate@@YAXPAH@Z       0050ca00 f   world.obj
 0001:0010bdd0       ?entflip@@YAXXZ            0050cdd0 f   world.obj
 0001:0010c040       ?getselpos@@YA?AUvec@@XZ   0050d040 f   world.obj
 0001:0010c0c0       ?attachentities@@YAXXZ     0050d0c0 f   world.obj
 0001:0010c200       ?attachentity@@YAXAAUextentity@@@Z 0050d200 f   world.obj
 0001:0010c310       ?detachentity@@YAXAAUextentity@@@Z 0050d310 f   world.obj
 0001:0010c330       ?makeundoent@@YAXXZ        0050d330 f   world.obj
 0001:0010c360       ?newundoent@@YAPAUundoblock@@XZ 0050d360 f   world.obj
 0001:0010c3f0       ?entadd@@YAXH@Z            0050d3f0 f   world.obj
 0001:0010c440       ?noentedit@@YA_NXZ         0050d440 f   world.obj
 0001:0010c470       ?var_entediting@@YAXXZ     0050d470 f   world.obj
 0001:0010c4a0       ?entname@@YAPADAAUentity@@@Z 0050d4a0 f   world.obj
 0001:0010c4f0       ?findents@@YAXHH_NABUvec@@1AAU?$vector@H@@@Z 0050d4f0 f   world.obj
 0001:0010ccc0       ?modifyoctaentity@@YAXHHAAUextentity@@PAUcube@@ABUivec@@H22HPAUvtxarray@@@Z 0050dcc0 f   world.obj
 0001:0010d290       ?getentboundingbox@@YA_NABUextentity@@AAUivec@@1@Z 0050e290 f   world.obj
 0001:0010d550       ?entselectionbox@@YAXABUentity@@AAUvec@@1@Z 0050e550 f   world.obj
 0001:0010d7b0       ?pointinsel@@YA_NABUselinfo@@ABUvec@@@Z 0050e7b0 f   world.obj
 0001:0010d850       ?entcancel@@YAXXZ          0050e850 f   world.obj
 0001:0010d860       ?haveselent@@YA_NXZ        0050e860 f   world.obj
 0001:0010d870       ?entdrag@@YAXABUvec@@@Z    0050e870 f   world.obj
 0001:0010dc80       ?hoveringonent@@YA_NHH@Z   0050ec80 f   world.obj
 0001:0010dd00       ?renderentselection@@YAXABUvec@@0_N@Z 0050ed00 f   world.obj
 0001:0010e2a0       ?entitiesinoctanodes@@YAXXZ 0050f2a0 f   world.obj
 0001:0010e490       ?pasteundoents@@YAXPAUundoblock@@@Z 0050f490 f   world.obj
 0001:0010e5f0       ?copyundoents@@YAPAUundoblock@@PAU1@@Z 0050f5f0 f   world.obj
 0001:0010e6f0       ?pasteundoent@@YAXHABUentity@@@Z 0050f6f0 f   world.obj
 0001:0010e8a0       ?freeoctaentities@@YAXAAUcube@@@Z 0050f8a0 f   world.obj
 0001:0010ed70       ?writeobj@@YAXPAD@Z        0050fd70 f   worldio.obj
 0001:0010fc40       ?savemap@@YAXPAD@Z         00510c40 f   worldio.obj
 0001:0010fc50       ?savecurrentmap@@YAXXZ     00510c50 f   worldio.obj
 0001:0010fc60       ?load_world@@YA_NPBD0@Z    00510c60 f   worldio.obj
 0001:00110d60       ?getmapcrc@@YAIXZ          00511d60 f   worldio.obj
 0001:00110d70       ?save_world@@YA_NPBD_N@Z   00511d70 f   worldio.obj
 0001:00111660       ?loadvslots@@YAXPAUstream@@H@Z 00512660 f   worldio.obj
 0001:00111a30       ?loadvslot@@YAXPAUstream@@AAUVSlot@@H@Z 00512a30 f   worldio.obj
 0001:00111cf0       ?savevslots@@YAXPAUstream@@H@Z 00512cf0 f   worldio.obj
 0001:00111e10       ?savevslot@@YAXPAUstream@@AAUVSlot@@H@Z 00512e10 f   worldio.obj
 0001:00112030       ?loadchildren@@YAPAUcube@@PAUstream@@ABUivec@@HAA_N@Z 00513030 f   worldio.obj
 0001:001120d0       ?loadc@@YAXPAUstream@@AAUcube@@ABUivec@@HAA_N@Z 005130d0 f   worldio.obj
 0001:001134b0       ?convertoldsurfaces@@YAXAAUcube@@ABUivec@@HPAUsurfacecompat@@HPAUnormalscompat@@HPAUmergecompat@@H@Z 005144b0 f   worldio.obj
 0001:00114200       ?savec@@YAXPAUcube@@ABUivec@@HPAUstream@@_N@Z 00515200 f   worldio.obj
 0001:00114d30       ?backup@@YAXPAD0@Z         00515d30 f   worldio.obj
 0001:00114da0       ?mapcfgname@@YAXXZ         00515da0 f   worldio.obj
 0001:00114e40       ?setmapfilenames@@YAXPBD0@Z 00515e40 f   worldio.obj
 0001:00114f20       ?loadents@@YA_NPBDAAU?$vector@Uentity@@@@PAI@Z 00515f20 f   worldio.obj
 0001:00115430       ?getmapfilenames@@YAXPBD0PAD11@Z 00516430 f   worldio.obj
 0001:00115560       ?fixmapname@@YAXPAD@Z      00516560 f   worldio.obj
 0001:00115580       ?validmapname@@YAXPADPBD11I@Z 00516580 f   worldio.obj
 0001:00115620       ?clearmapcrc@@YAXXZ        00516620 f   worldio.obj
 0001:00115630       ?gets2c@@YAXXZ             00516630 f   client.obj
 0001:00115860       ?clientkeepalive@@YAXXZ    00516860 f   client.obj
 0001:00115880       ?localservertoclient@@YAXHPAU_ENetPacket@@@Z 00516880 f   client.obj
 0001:00115950       ?neterr@@YAXPBD_N@Z        00516950 f   client.obj
 0001:00115960       ?flushclient@@YAXXZ        00516960 f   client.obj
 0001:00115980       ?sendclientpacket@@YAXPAU_ENetPacket@@H@Z 00516980 f   client.obj
 0001:001159f0       ?run@?$_icmd_localdisconnect@$0LM@@@SAXXZ 005169f0 f   client.obj
 0001:00115a10       ?run@?$_icmd_localconnect@$0LL@@@SAXXZ 00516a10 f   client.obj
 0001:00115a30       ?run@?$_icmd_disconnect@$0LK@@@SAXPAH@Z 00516a30 f   client.obj
 0001:00115aa0       ?run@?$_icmd_lanconnect@$0LI@@@SAXPAHPAD@Z 00516aa0 f   client.obj
 0001:00115ac0       ?run@?$_icmd_connect@$0LH@@@SAXPADPAH0@Z 00516ac0 f   client.obj
 0001:00115ae0       ?trydisconnect@@YAX_N@Z    00516ae0 f   client.obj
 0001:00115b50       ?disconnect@@YAX_N0@Z      00516b50 f   client.obj
 0001:00115c00       ?reconnect@@YAXPBD@Z       00516c00 f   client.obj
 0001:00115c30       ?connectserv@@YAXPBDH0@Z   00516c30 f   client.obj
 0001:00115df0       ?abortconnect@@YAXXZ       00516df0 f   client.obj
 0001:00115e50       ?run@?$_icmd_connectedport@$0DM@@@SAXXZ 00516e50 f   client.obj
 0001:00115e90       ?run@?$_icmd_connectedip@$0DG@@@SAXXZ 00516e90 f   client.obj
 0001:00115f10       ?connectedpeer@@YAPBU_ENetAddress@@XZ 00516f10 f   client.obj
 0001:00115f20       ?run@?$_icmd_isconnected@$0CK@@@SAXPAH0@Z 00516f20 f   client.obj
 0001:00115f70       ?throttle@@YAXXZ           00516f70 f   client.obj
 0001:00115fa0       ?var_throttle_decel@@YAXXZ 00516fa0 f   client.obj
 0001:00115fd0       ?var_throttle_accel@@YAXXZ 00516fd0 f   client.obj
 0001:00116000       ?var_throttle_interval@@YAXXZ 00517000 f   client.obj
 0001:00116030       ?var_rate@@YAXXZ           00517030 f   client.obj
 0001:00116060       ?setrate@@YAXH@Z           00517060 f   client.obj
 0001:00116090       ?isconnected@@YA_N_N0@Z    00517090 f   client.obj
 0001:001160c0       ?multiplayer@@YA_N_N@Z     005170c0 f   client.obj
 0001:00116190       ?serveroption@@YA_NPAD@Z   00517190 f   server.obj
 0001:00116280       ?stoplistenserver@@YAXXZ   00517280 f   server.obj
 0001:001162c0       ?startlistenserver@@YAXPAH@Z 005172c0 f   server.obj
 0001:00116330       ?initserver@@YAX_N0@Z      00517330 f   server.obj
 0001:001163b0       ?setuplistenserver@@YA_N_N@Z 005173b0 f   server.obj
 0001:00116590       ?servererror@@YA_N_NPBD@Z  00517590 f   server.obj
 0001:001165b0       ?rundedicatedserver@@YAXXZ 005175b0 f   server.obj
 0001:00116650       ?isdedicatedserver@@YA_NXZ 00517650 f   server.obj
 0001:00116660       ?logoutfv@@YAXPBDPAD@Z     00517660 f   server.obj
 0001:00116760       _WinMain@16                00517760 f   server.obj
 0001:001171c0       ?flushserver@@YAX_N@Z      005181c0 f   server.obj
 0001:001171e0       ?serverslice@@YAX_NI@Z     005181e0 f   server.obj
 0001:00117710       ?updatetime@@YAXXZ         00518710 f   server.obj
 0001:00117750       ?updatemasterserver@@YAXXZ 00518750 f   server.obj
 0001:001177c0       ?var_serverport@@YAXXZ     005187c0 f   server.obj
 0001:001177e0       ?checkserversockets@@YAXXZ 005187e0 f   server.obj
 0001:00117a30       ?sendserverinforeply@@YAXAAU?$databuf@E@@@Z 00518a30 f   server.obj
 0001:00117a60       ?flushmasterinput@@YAXXZ   00518a60 f   server.obj
 0001:00117c10       ?flushmasteroutput@@YAXXZ  00518c10 f   server.obj
 0001:00117cc0       ?processmasterinput@@YAXXZ 00518cc0 f   server.obj
 0001:00117df0       ?requestmasterf@@YA_NPBDZZ 00518df0 f   server.obj
 0001:00117ee0       ?requestmaster@@YA_NPBD@Z  00518ee0 f   server.obj
 0001:00117f80       ?connectmaster@@YAI_N@Z    00518f80 f   server.obj
 0001:00118080       ?var_masterport@@YAXXZ     00519080 f   server.obj
 0001:00118090       ?var_mastername@@YAXXZ     00519090 f   server.obj
 0001:001180a0       ?disconnectmaster@@YAXXZ   005190a0 f   server.obj
 0001:00118140       ?process@@YAXPAU_ENetPacket@@HH@Z 00519140 f   server.obj
 0001:00118200       ?kicknonlocalclients@@YAXH@Z 00519200 f   server.obj
 0001:001182f0       ?disconnect_client@@YAXHH@Z 005192f0 f   server.obj
 0001:001183c0       ?sendfile@@YAPAU_ENetPacket@@HHPAUstream@@PBDZZ 005193c0 f   server.obj
 0001:00118770       ?sendf@@YAPAU_ENetPacket@@HHPBDZZ 00519770 f   server.obj
 0001:00118b50       ?sendpacket@@YAXHHPAU_ENetPacket@@H@Z 00519b50 f   server.obj
 0001:00118c40       ?getclientip@@YAIH@Z       00519c40 f   server.obj
 0001:00118c70       ?getclientpeer@@YAPAU_ENetPeer@@H@Z 00519c70 f   server.obj
 0001:00118c90       ?getclientinfo@@YAPAXH@Z   00519c90 f   server.obj
 0001:00118cc0       ?getservermtu@@YAHXZ       00519cc0 f   server.obj
 0001:00118ce0       ?var_maxdupclients@@YAXXZ  00519ce0 f   server.obj
 0001:00118d00       ?var_maxclients@@YAXXZ     00519d00 f   server.obj
 0001:00118d20       ?cleanupserver@@YAXXZ      00519d20 f   server.obj
 0001:00118d80       ?delclient@@YAXPAUclient@@@Z 00519d80 f   server.obj
 0001:00118de0       ?addclient@@YAAAUclient@@H@Z 00519de0 f   server.obj
 0001:001191c0       ?logoutf@@YAXPBDZZ         0051a1c0 f   server.obj
 0001:001192d0       ?setlogfile@@YAXPBD@Z      0051a2d0 f   server.obj
 0001:00119340       ?getlogfile@@YAPAU_iobuf@@XZ 0051a340 f   server.obj
 0001:00119350       ?closelogfile@@YAXXZ       0051a350 f   server.obj
 0001:00119370       ?hasnonlocalclients@@YA_NXZ 0051a370 f   server.obj
 0001:00119380       ?haslocalclients@@YA_NXZ   0051a380 f   server.obj
 0001:00119390       ?localdisconnect@@YAX_N@Z  0051a390 f   server.obj
 0001:00119480       ?localconnect@@YAXXZ       0051a480 f   server.obj
 0001:001195c0       ?localclienttoserver@@YAXHPAU_ENetPacket@@@Z 0051a5c0 f   server.obj
 0001:001196c0       ?disconnectreason@@YAPBDH@Z 0051a6c0 f   server.obj
 0001:00119b30       ?writeservercfg@@YAXXZ     0051ab30 f   serverbrowser.obj
 0001:00119d50       ?run@?$_icmd_clearservers@$0CLL@@@SAXPAH@Z 0051ad50 f   serverbrowser.obj
 0001:00119d60       ?run@?$_icmd_keepserver@$0CLK@@@SAXPBDPAH0@Z 0051ad60 f   serverbrowser.obj
 0001:00119d90       ?run@?$_icmd_addserver@$0CLJ@@@SAXPBDPAH0@Z 0051ad90 f   serverbrowser.obj
 0001:00119dc0       ?initservers@@YAXXZ        0051adc0 f   serverbrowser.obj
 0001:00119df0       ?updatefrommaster@@YAXXZ   0051adf0 f   serverbrowser.obj
 0001:00119e90       ?retrieveservers@@YAXAAU?$vector@D@@@Z 0051ae90 f   serverbrowser.obj
 0001:0011a0b0       ?clearservers@@YAX_N@Z     0051b0b0 f   serverbrowser.obj
 0001:0011a2c0       ?connectselected@@YAXXZ    0051b2c0 f   serverbrowser.obj
 0001:0011a2f0       ?showservers@@YAPBDPAUg3d_gui@@PAIHH@Z 0051b2f0 f   serverbrowser.obj
 0001:0011a610       ?refreshservers@@YAXXZ     0051b610 f   serverbrowser.obj
 0001:0011a6e0       ?sortservers@@YAXXZ        0051b6e0 f   serverbrowser.obj
 0001:0011a700       ?checkpings@@YAXXZ         0051b700 f   serverbrowser.obj
 0001:0011aa60       ?checkresolver@@YAXXZ      0051ba60 f   serverbrowser.obj
 0001:0011ac80       ?pingservers@@YAXXZ        0051bc80 f   serverbrowser.obj
 0001:0011b200       ?resolvercheck@@YA_NPAPBDPAU_ENetAddress@@@Z 0051c200 f   serverbrowser.obj
 0001:0011b2b0       ?resolverquery@@YAXPBD@Z   0051c2b0 f   serverbrowser.obj
 0001:0011b300       ?resolverclear@@YAXXZ      0051c300 f   serverbrowser.obj
 0001:0011b3d0       ?resolverstop@@YAXAAUresolverthread@@@Z 0051c3d0 f   serverbrowser.obj
 0001:0011b430       ?resolverinit@@YAXXZ       0051c430 f   serverbrowser.obj
 0001:0011b590       ?resolverloop@@YAHPAX@Z    0051c590 f   serverbrowser.obj
 0001:0011b7c0       ?connectwithtimeout@@YAHIPBDABU_ENetAddress@@@Z 0051c7c0 f   serverbrowser.obj
 0001:0011b920       ?addserver@@YAXPBDH0_N@Z   0051c920 f   serverbrowser.obj
 0001:0011ba60       ?resolverwait@@YA_NPBDPAU_ENetAddress@@@Z 0051ca60 f   serverbrowser.obj
 0001:0011cc10       ?consolebox@@YAXHHHH@Z     0051dc10 f   3dgui.obj
 0001:0011ce50       ?g3d_render@@YAXXZ         0051de50 f   3dgui.obj
 0001:0011d450       ?g3d_limitscale@@YAXM@Z    0051e450 f   3dgui.obj
 0001:0011d460       ?g3d_movecursor@@YA_NHH@Z  0051e460 f   3dgui.obj
 0001:0011d510       ?g3d_resetcursor@@YAXXZ    0051e510 f   3dgui.obj
 0001:0011d530       ?g3d_cursorpos@@YAXAAM0@Z  0051e530 f   3dgui.obj
 0001:0011d560       ?g3d_key@@YA_NH_N@Z        0051e560 f   3dgui.obj
 0001:0011da20       ?g3d_input@@YA_NPBDH@Z     0051ea20 f   3dgui.obj
 0001:0011da60       ?run@?$_icmd_textexec@$0CPO@@@SAXPAH@Z 0051ea60 f   3dgui.obj
 0001:0011db50       ?run@?$_icmd_textcurrentline@$0CPI@@@SAXXZ 0051eb50 f   3dgui.obj
 0001:0011db80       ?run@?$_icmd_textclear@$0CPH@@@SAXXZ 0051eb80 f   3dgui.obj
 0001:0011dbb0       ?run@?$_icmd_textselectall@$0CPG@@@SAXXZ 0051ebb0 f   3dgui.obj
 0001:0011dbf0       ?run@?$_icmd_textmark@$0CPF@@@SAXPAH@Z 0051ebf0 f   3dgui.obj
 0001:0011dc80       ?run@?$_icmd_textpaste@$0CPB@@@SAXXZ 0051ec80 f   3dgui.obj
 0001:0011dcd0       ?run@?$_icmd_textcopy@$0CPA@@@SAXXZ 0051ecd0 f   3dgui.obj
 0001:0011dd20       ?run@?$_icmd_textinit@$0COM@@@SAXPAD00@Z 0051ed20 f   3dgui.obj
 0001:0011dde0       ?run@?$_icmd_textload@$0COC@@@SAXPAD@Z 0051ede0 f   3dgui.obj
 0001:0011de30       ?run@?$_icmd_textsave@$0CNK@@@SAXPAD@Z 0051ee30 f   3dgui.obj
 0001:0011dee0       ?run@?$_icmd_textmode@$0CNG@@@SAXPAH@Z 0051eee0 f   3dgui.obj
 0001:0011df20       ?run@?$_icmd_textprev@$0CNC@@@SAXXZ 0051ef20 f   3dgui.obj
 0001:0011df60       ?run@?$_icmd_textfocus@$0CNB@@@SAXPADPAH@Z 0051ef60 f   3dgui.obj
 0001:0011dfb0       ?run@?$_icmd_textshow@$0CMN@@@SAXXZ 0051efb0 f   3dgui.obj
 0001:0011e020       ?run@?$_icmd_textlist@$0CMH@@@SAXXZ 0051f020 f   3dgui.obj
 0001:0011e530       ?g3d_windowhit@@YA_N_N0@Z  0051f530 f   3dgui.obj
 0001:0011e5c0       ?g3d_addgui@@YAXPAUg3d_callback@@AAUvec@@H@Z 0051f5c0 f   3dgui.obj
 0001:0011e910       ??1BIH@@QAE@XZ             0051f910 f   bih.obj
 0001:0011e970       ??0BIH@@QAE@AAU?$vector@Umesh@BIH@@@@@Z 0051f970 f   bih.obj
 0001:0011fa90       ?build@BIH@@QAEXAAUmesh@1@PAGHABUivec@@2@Z 00520a90 f   bih.obj
 0001:001201b0       ?triintersect@BIH@@QAE_NABUmesh@1@HABUvec@@1MAAMH@Z 005211b0 f   bih.obj
 0001:00120740       ?mmintersect@@YA_NABUextentity@@ABUvec@@1MHAAM@Z 00521740 f   bih.obj
 0001:00120bb0       ?cleanupblobs@@YAXXZ       00521bb0 f   blob.obj
 0001:00120c50       ?flushblobs@@YAXXZ         00521c50 f   blob.obj
 0001:00120d40       ?renderblob@@YAXHABUvec@@MM@Z 00521d40 f   blob.obj
 0001:00120db0       ?initblobs@@YAXH@Z         00521db0 f   blob.obj
 0001:00120e10       ?var_blobdyntris@@YAXXZ    00521e10 f   blob.obj
 0001:00120e40       ?var_blobstattris@@YAXXZ   00521e40 f   blob.obj
 0001:00120e70       ?var_blobmargin@@YAXXZ     00521e70 f   blob.obj
 0001:00120e80       ?var_blobfadehigh@@YAXXZ   00521e80 f   blob.obj
 0001:00120e90       ?var_blobfadelow@@YAXXZ    00521e90 f   blob.obj
 0001:00120ea0       ?var_blobheight@@YAXXZ     00521ea0 f   blob.obj
 0001:00120eb0       ?var_blobintensity@@YAXXZ  00521eb0 f   blob.obj
 0001:00120ec0       ?resetblobs@@YAXXZ         00521ec0 f   blob.obj
 0001:00121080       ?adddecal@@YAXHABUvec@@0MABUbvec@@H@Z 00522080 f   decal.obj
 0001:00121140       ?renderdecals@@YAX_N@Z     00522140 f   decal.obj
 0001:00121410       ?cleanupdecals@@YAXXZ      00522410 f   decal.obj
 0001:00121450       ?initdecals@@YAXXZ         00522450 f   decal.obj
 0001:00121590       ?var_maxdecaltris@@YAXXZ   00522590 f   decal.obj
 0001:001215a0       ?cleardecals@@YAXXZ        005225a0 f   decal.obj
 0001:001216a0       ?setdynlights@@YAHPAUvtxarray@@@Z 005226a0 f   dynlight.obj
 0001:001219a0       ?calcdynlightmask@@YAXPAUvtxarray@@@Z 005229a0 f   dynlight.obj
 0001:00121ad0       ?dynlightreaching@@YAXABUvec@@AAU1@1_N@Z 00522ad0 f   dynlight.obj
 0001:00121c70       ?finddynlights@@YAHXZ      00522c70 f   dynlight.obj
 0001:001220d0       ?updatedynlights@@YAXXZ    005230d0 f   dynlight.obj
 0001:00122730       ?removetrackeddynlights@@YAXPAUphysent@@@Z 00523730 f   dynlight.obj
 0001:00122800       ?cleardynlights@@YAXXZ     00523800 f   dynlight.obj
 0001:001228b0       ?adddynlight@@YAXABUvec@@M0HHHM0PAUphysent@@@Z 005238b0 f   dynlight.obj
 0001:00122d10       ?addglare@@YAXXZ           00523d10 f   glare.obj
 0001:00122e00       ?drawglaretex@@YAXXZ       00523e00 f   glare.obj
 0001:00122e50       ?viewglaretex@@YAXXZ       00523e50 f   glare.obj
 0001:00122e70       ?var_glaresize@@YAXXZ      00523e70 f   glare.obj
 0001:00122f10       ?cleanupglare@@YAXXZ       00523f10 f   glare.obj
 0001:001235f0       ?cleanupgrass@@YAXXZ       005245f0 f   grass.obj
 0001:00123620       ?rendergrass@@YAXXZ        00524620 f   grass.obj
 0001:00123950       ?generategrass@@YAXXZ      00524950 f   grass.obj
 0001:001254b0       ?var_grasscolour@@YAXXZ    005264b0 f   grass.obj
 0001:00126080       ?rendermaterials@@YAXXZ    00527080 f   material.obj
 0001:00127070       ?var_waterfallenv@@YAXXZ   00528070 f   material.obj
 0001:00128630       ?getglasscolor@@YAABUbvec@@H@Z 00529630 f   material.obj
 0001:00128660       ?var_glass4colour@@YAXXZ   00529660 f   material.obj
 0001:001286a0       ?var_glass3colour@@YAXXZ   005296a0 f   material.obj
 0001:001286e0       ?var_glass2colour@@YAXXZ   005296e0 f   material.obj
 0001:00128720       ?var_glasscolour@@YAXXZ    00529720 f   material.obj
 0001:00128760       ?rendermatgrid@@YAXAAU?$vector@PAUmaterialsurface@@@@@Z 00529760 f   material.obj
 0001:001289a0       ?sortmaterials@@YAXAAU?$vector@PAUmaterialsurface@@@@@Z 005299a0 f   material.obj
 0001:00128f90       ?var_optmats@@YAXXZ        00529f90 f   material.obj
 0001:001293d0       ?visiblematerial@@YAHABUcube@@HABUivec@@HG@Z 0052a3d0 f   material.obj
 0001:001294a0       ?getmaterialdesc@@YAPBDHPBD@Z 0052a4a0 f   material.obj
 0001:001295b0       ?findmaterialname@@YAPBDH@Z 0052a5b0 f   material.obj
 0001:0012ab20       ?optimizematsurfs@@YAHPAUmaterialsurface@@H@Z 0052bb20 f   material.obj
 0001:0012af90       ?genmatsurfs@@YAXABUcube@@ABUivec@@HAAU?$vector@Umaterialsurface@@@@@Z 0052bf90 f   material.obj
 0001:0012b120       ?setupmaterials@@YAXHH@Z   0052c120 f   material.obj
 0001:0012baa0       ?findmaterial@@YAHPBD@Z    0052caa0 f   material.obj
 0001:0012bf00       ?cleanupgl@@YAXXZ          0052cf00 f   rendergl.obj
 0001:0012c000       ?gl_drawhud@@YAXXZ         0052d000 f   rendergl.obj
 0001:0012d1f0       ?drawcrosshair@@YAXHH@Z    0052e1f0 f   rendergl.obj
 0001:0012d470       ?writecrosshairs@@YAXPAUstream@@@Z 0052e470 f   rendergl.obj
 0001:0012d790       ?run@?$_icmd_getcrosshair@$0IEP@@@SAXPAH@Z 0052e790 f   rendergl.obj
 0001:0012d820       ?loadcrosshair_@@YAXPBDPAH@Z 0052e820 f   rendergl.obj
 0001:0012d830       ?loadcrosshair@@YAXPBDH@Z  0052e830 f   rendergl.obj
 0001:0012d8b0       ?drawdamagescreen@@YAXHH@Z 0052e8b0 f   rendergl.obj
 0001:0012d9d0       ?damageblend@@YAXH@Z       0052e9d0 f   rendergl.obj
 0001:0012da30       ?var_damagescreen@@YAXXZ   0052ea30 f   rendergl.obj
 0001:0012da50       ?drawdamagecompass@@YAXHH@Z 0052ea50 f   rendergl.obj
 0001:0012df40       ?damagecompass@@YAXHABUvec@@@Z 0052ef40 f   rendergl.obj
 0001:0012e100       ?gl_drawmainmenu@@YAXXZ    0052f100 f   rendergl.obj
 0001:0012e160       ?gl_drawframe@@YAXXZ       0052f160 f   rendergl.obj
 0001:0012e950       ?addmotionblur@@YAXXZ      0052f950 f   rendergl.obj
 0001:0012ec20       ?var_motionblur@@YAXXZ     0052fc20 f   rendergl.obj
 0001:0012ec70       ?cleanupmotionblur@@YAXXZ  0052fc70 f   rendergl.obj
 0001:0012ecb0       ?drawminimap@@YAXXZ        0052fcb0 f   rendergl.obj
 0001:0012f4f0       ?clipminimap@@YAXAAUivec@@0PAUcube@@ABU1@H@Z 005304f0 f   rendergl.obj
 0001:0012f610       ?bindminimap@@YAXXZ        00530610 f   rendergl.obj
 0001:0012f630       ?var_minimapsize@@YAXXZ    00530630 f   rendergl.obj
 0001:0012f640       ?var_minimapcolour@@YAXXZ  00530640 f   rendergl.obj
 0001:0012f670       ?clearminimap@@YAXXZ       00530670 f   rendergl.obj
 0001:0012f6a0       ?drawcubemap@@YAXHABUvec@@MMABUcubemapside@@@Z 005306a0 f   rendergl.obj
 0001:0012fad0       ?drawreflection@@YAXM_NHABUbvec@@@Z 00530ad0 f   rendergl.obj
 0001:00130670       ?rendergame@@YAX_N@Z       00531670 f   rendergl.obj
 0001:001306a0       ?drawfogoverlay@@YAXHMH@Z  005316a0 f   rendergl.obj
 0001:00130b30       ?popfogdist@@YAXXZ         00531b30 f   rendergl.obj
 0001:00130b60       ?pushfogdist@@YAXMM@Z      00531b60 f   rendergl.obj
 0001:00130ba0       ?resetfogdist@@YAXXZ       00531ba0 f   rendergl.obj
 0001:00130bc0       ?clearfogdist@@YAXXZ       00531bc0 f   rendergl.obj
 0001:00130bd0       ?setfogdist@@YAXMM@Z       00531bd0 f   rendergl.obj
 0001:00130ca0       ?popfogcolor@@YAXXZ        00531ca0 f   rendergl.obj
 0001:00130cd0       ?pushfogcolor@@YAXABUvec@@@Z 00531cd0 f   rendergl.obj
 0001:00130d10       ?setfogcolor@@YAXABUvec@@@Z 00531d10 f   rendergl.obj
 0001:001310f0       ?var_fogcolour@@YAXXZ      005320f0 f   rendergl.obj
 0001:00131120       ?screenquadflipped@@YAXMM@Z 00532120 f   rendergl.obj
 0001:001311c0       ?screenquad@@YAXXZ         005321c0 f   rendergl.obj
 0001:00131370       ?calcspherescissor@@YAXABUvec@@MAAM111@Z 00532370 f   rendergl.obj
 0001:00131760       ?renderavatar@@YAXXZ       00532760 f   rendergl.obj
 0001:00131970       ?calcavatarpos@@YA?AUvec@@ABU1@M@Z 00532970 f   rendergl.obj
 0001:00131cf0       ?recomputecamera@@YAXXZ    00532cf0 f   rendergl.obj
 0001:00132760       ?mousemove@@YAXHH@Z        00533760 f   rendergl.obj
 0001:00132a10       ?fixcamerarange@@YAXXZ     00533a10 f   rendergl.obj
 0001:00132b20       ?isthirdperson@@YA_NXZ     00533b20 f   rendergl.obj
 0001:00132b50       ?computezoom@@YAXXZ        00533b50 f   rendergl.obj
 0001:00132c90       ?disablezoom@@YAXXZ        00533c90 f   rendergl.obj
 0001:00132cb0       ?setcamprojmatrix@@YAX_N0@Z 00533cb0 f   rendergl.obj
 0001:00132f90       ?setcammatrix@@YAXXZ       00533f90 f   rendergl.obj
 0001:001333a0       ?run@?$_icmd_getcampos@$0CHH@@@SAXXZ 005343a0 f   rendergl.obj
 0001:001334c0       ?run@?$_icmd_getcamroll@$0CHC@@@SAXXZ 005344c0 f   rendergl.obj
 0001:001334e0       ?run@?$_icmd_getcampitch@$0CHB@@@SAXXZ 005344e0 f   rendergl.obj
 0001:00133500       ?run@?$_icmd_getcamyaw@$0CHA@@@SAXXZ 00534500 f   rendergl.obj
 0001:00133520       ?gl_init@@YAXXZ            00534520 f   rendergl.obj
 0001:00133760       ?gl_resize@@YAXXZ          00534760 f   rendergl.obj
 0001:00133780       ?glext@@YAXPAD@Z           00534780 f   rendergl.obj
 0001:001337a0       ?gl_checkextensions@@YAXXZ 005347a0 f   rendergl.obj
 0001:00134560       ?hasext@@YA_NPBD@Z         00535560 f   rendergl.obj
 0001:001345c0       ?parseglexts@@YAXXZ        005355c0 f   rendergl.obj
 0001:00134780       ?getprocaddress@@YAPAXPBD@Z 00535780 f   rendergl.obj
 0001:00134790       ?screenquad@@YAXMM@Z       00535790 f   rendergl.obj
 0001:001347b0       ?hudquad@@YAXMMMMMMMM@Z    005357b0 f   rendergl.obj
 0001:001349b0       ?drawglare@@YAXXZ          005359b0 f   rendergl.obj
 0001:00134af0       ?zerofogcolor@@YAXXZ       00535af0 f   rendergl.obj
 0001:00134b20       ?resetfogcolor@@YAXXZ      00535b20 f   rendergl.obj
 0001:00134b30       ?start@modelpreview@@YAXHHHH_N@Z 00535b30 f   rendergl.obj
 0001:00134d70       ?end@modelpreview@@YAXXZ   00535d70 f   rendergl.obj
 0001:00134e50       ?resethudmatrix@@YAXXZ     00535e50 f   rendergl.obj
 0001:00134f00       ?drawtextures@@YAXXZ       00535f00 f   rendergl.obj
 0001:00134f30       ?enablepolygonoffset@@YAXI@Z 00535f30 f   rendergl.obj
 0001:00134fe0       ?disablepolygonoffset@@YAXI@Z 00535fe0 f   rendergl.obj
 0001:00135030       ?invalidatepostfx@@YAXXZ   00536030 f   rendergl.obj
 0001:00135040       ?calcmodelpreviewpos@@YA?AUvec@@ABU1@AAM@Z 00536040 f   rendergl.obj
 0001:00135180       ?pushhudmatrix@@YAXXZ      00536180 f   rendergl.obj
 0001:001351d0       ?flushhudmatrix@@YAX_N@Z   005361d0 f   rendergl.obj
 0001:00135290       ?pophudmatrix@@YAX_N0@Z    00536290 f   rendergl.obj
 0001:001363c0       ?setbbfrommodel@@YAXPAUdynent@@PBD@Z 005373c0 f   rendermodel.obj
 0001:00136500       ?renderclient@@YAXPAUdynent@@PBDPAUmodelattach@@HHHHHM_N@Z 00537500 f   rendermodel.obj
 0001:00136830       ?loadskin@@YAXPBD0AAPAUTexture@@1@Z 00537830 f   rendermodel.obj
 0001:001369f0       ?run@?$_icmd_findanims@$0DPM@@@SAXPAD@Z 005379f0 f   rendermodel.obj
 0001:00136bd0       ?findanims@@YAXPBDAAU?$vector@H@@@Z 00537bd0 f   rendermodel.obj
 0001:00136c90       ?matchanim@@YA_NPBD0@Z     00537c90 f   rendermodel.obj
 0001:00136d10       ?abovemodel@@YAXAAUvec@@PBD@Z 00537d10 f   rendermodel.obj
 0001:001374f0       ?endmodelquery@@YAXXZ      005384f0 f   rendermodel.obj
 0001:00137610       ?startmodelquery@@YAXPAUoccludequery@@@Z 00538610 f   rendermodel.obj
 0001:00137620       ?endmodelbatches@@YAXXZ    00538620 f   rendermodel.obj
 0001:00137b50       ?renderbatchedmodel@@YAXPAUmodel@@AAUbatchedmodel@@@Z 00538b50 f   rendermodel.obj
 0001:00137cb0       ?addbatchedmodel@@YAAAUmodelbatch@@PAUmodel@@@Z 00538cb0 f   rendermodel.obj
 0001:00137e70       ?startmodelbatches@@YAXXZ  00538e70 f   rendermodel.obj
 0001:00137e90       ?renderellipse@@YAXAAUvec@@MMM@Z 00538e90 f   rendermodel.obj
 0001:00137ff0       ?render3dbox@@YAXAAUvec@@MMMM@Z 00538ff0 f   rendermodel.obj
 0001:00138130       ?render2dbox@@YAXAAUvec@@MMM@Z 00539130 f   rendermodel.obj
 0001:00138280       ?modeloccluded@@YA_NABUvec@@M@Z 00539280 f   rendermodel.obj
 0001:00138340       ?clearmodel@@YAXPAD@Z      00539340 f   rendermodel.obj
 0001:00138490       ?cleanupmodels@@YAXXZ      00539490 f   rendermodel.obj
 0001:001384d0       ?clear_mdls@@YAXXZ         005394d0 f   rendermodel.obj
 0001:00138510       ?preloadmodelshaders@@YAX_N@Z 00539510 f   rendermodel.obj
 0001:00138560       ?preloadmodel@@YAXPBD@Z    00539560 f   rendermodel.obj
 0001:001385c0       ?run@?$_icmd_nummapmodels@$0BGA@@@SAXXZ 005395c0 f   rendermodel.obj
 0001:001385e0       ?run@?$_icmd_mapmodelname@$0BFP@@@SAXPAH@Z 005395e0 f   rendermodel.obj
 0001:00138650       ?mapmodelname@@YAPBDH@Z    00539650 f   rendermodel.obj
 0001:00138670       ?getmminfo@@YAPAUmapmodelinfo@@H@Z 00539670 f   rendermodel.obj
 0001:00138690       ?mapmodelreset@@YAXPAH@Z   00539690 f   rendermodel.obj
 0001:001386d0       ?mapmodelcompat@@YAXPAH00PAD1@Z 005396d0 f   rendermodel.obj
 0001:001386e0       ?mmodel@@YAXPAD@Z          005396e0 f   rendermodel.obj
 0001:001387f0       ?rdanimjoints@@YAXPAH@Z    005397f0 f   rendermodel.obj
 0001:001388c0       ?rdlimitrot@@YAXPAH0PAM1111@Z 005398c0 f   rendermodel.obj
 0001:00138ab0       ?rdlimitdist@@YAXPAH0PAM1@Z 00539ab0 f   rendermodel.obj
 0001:00138c40       ?rdjoint@@YAXPAH0000@Z     00539c40 f   rendermodel.obj
 0001:00138df0       ?rdtri@@YAXPAH00@Z         00539df0 f   rendermodel.obj
 0001:00138f70       ?rdeye@@YAXPAH@Z           00539f70 f   rendermodel.obj
 0001:00139040       ?rdvert@@YAXPAM000@Z       0053a040 f   rendermodel.obj
 0001:001391f0       ?mdlname@@YAXXZ            0053a1f0 f   rendermodel.obj
 0001:00139250       ?mdlextendbb@@YAXPAM00@Z   0053a250 f   rendermodel.obj
 0001:001392b0       ?mdlbb@@YAXPAM00@Z         0053a2b0 f   rendermodel.obj
 0001:001392f0       ?mdlshadow@@YAXPAH@Z       0053a2f0 f   rendermodel.obj
 0001:00139320       ?mdlpitch@@YAXPAM@Z        0053a320 f   rendermodel.obj
 0001:00139350       ?mdlyaw@@YAXPAM@Z          0053a350 f   rendermodel.obj
 0001:00139380       ?mdltrans@@YAXPAM00@Z      0053a380 f   rendermodel.obj
 0001:001393e0       ?mdlscale@@YAXPAH@Z        0053a3e0 f   rendermodel.obj
 0001:00139430       ?mdlspin@@YAXPAM0@Z        0053a430 f   rendermodel.obj
 0001:00139470       ?mdlshader@@YAXPAD@Z       0053a470 f   rendermodel.obj
 0001:001394c0       ?mdlfullbright@@YAXPAM@Z   0053a4c0 f   rendermodel.obj
 0001:001394f0       ?mdlenvmap@@YAXPAM0PAD@Z   0053a4f0 f   rendermodel.obj
 0001:00139550       ?mdlglare@@YAXPAM0@Z       0053a550 f   rendermodel.obj
 0001:001395a0       ?mdlglow@@YAXPAH0PAM@Z     0053a5a0 f   rendermodel.obj
 0001:00139630       ?mdldepthoffset@@YAXPAH@Z  0053a630 f   rendermodel.obj
 0001:00139660       ?mdlalphadepth@@YAXPAH@Z   0053a660 f   rendermodel.obj
 0001:00139690       ?mdlalphablend@@YAXPAH@Z   0053a690 f   rendermodel.obj
 0001:001396c0       ?mdlalphatest@@YAXPAM@Z    0053a6c0 f   rendermodel.obj
 0001:00139700       ?mdlambient@@YAXPAH@Z      0053a700 f   rendermodel.obj
 0001:00139760       ?mdlspec@@YAXPAH@Z         0053a760 f   rendermodel.obj
 0001:001397c0       ?mdlellipsecollide@@YAXPAH@Z 0053a7c0 f   rendermodel.obj
 0001:001397f0       ?mdlcollide@@YAXPAH@Z      0053a7f0 f   rendermodel.obj
 0001:00139820       ?mdlcullface@@YAXPAH@Z     0053a820 f   rendermodel.obj
 0001:00139d20       ?var_bumpmodels@@YAXXZ     0053ad20 f   rendermodel.obj
 0001:00139d30       ?var_envmapmodels@@YAXXZ   0053ad30 f   rendermodel.obj
 0001:00139d40       ?cleanragdoll@@YAXPAUdynent@@@Z 0053ad40 f   rendermodel.obj
 0001:00139d60       ?moveragdoll@@YAXPAUdynent@@@Z 0053ad60 f   rendermodel.obj
 0001:00139f10       ?move@ragdolldata@@QAEXPAUdynent@@M@Z 0053af10 f   rendermodel.obj
 0001:0013a6d0       ?constrain@ragdolldata@@QAEXXZ 0053b6d0 f   rendermodel.obj
 0001:0013a960       ?updatepos@ragdolldata@@QAEXXZ 0053b960 f   rendermodel.obj
 0001:0013ad80       ?tryunstick@ragdolldata@@QAEXM@Z 0053bd80 f   rendermodel.obj
 0001:0013b1b0       ?applyrotfriction@ragdolldata@@QAEXM@Z 0053c1b0 f   rendermodel.obj
 0001:0013b9f0       ?calcrotfriction@ragdolldata@@QAEXXZ 0053c9f0 f   rendermodel.obj
 0001:0013bc00       ?constrainrot@ragdolldata@@QAEXXZ 0053cc00 f   rendermodel.obj
 0001:0013c320       ?constraindist@ragdolldata@@QAEXXZ 0053d320 f   rendermodel.obj
 0001:0013c520       ?rendermodel@@YAXPAUentitylight@@PBDHABUvec@@MMHPAUdynent@@PAUmodelattach@@HHM@Z 0053d520 f   rendermodel.obj
 0001:0013d330       ?flushpreloadedmodels@@YAX_N@Z 0053e330 f   rendermodel.obj
 0001:0013d3f0       ?preloadusedmapmodels@@YAX_N0@Z 0053e3f0 f   rendermodel.obj
 0001:0013d590       ?loadmodel@@YAPAUmodel@@PBDH_N@Z 0053e590 f   rendermodel.obj
 0001:0013e140       ?updateparticles@@YAXXZ    0053f140 f   renderparticles.obj
 0001:0013eb60       ?regular_particle_flame@@YAXHABUvec@@MMHHMMMH@Z 0053fb60 f   renderparticles.obj
 0001:0013ee00       ?regularshape@@YAXHHHHHHABUvec@@MHH@Z 0053fe00 f   renderparticles.obj
 0001:0013f820       ?particle_fireball@@YAXABUvec@@MHHHM@Z 00540820 f   renderparticles.obj
 0001:0013f8b0       ?particle_flare@@YAXABUvec@@0HHHMPAUphysent@@@Z 005408b0 f   renderparticles.obj
 0001:0013f900       ?particle_meter@@YAXABUvec@@MHHHHM@Z 00540900 f   renderparticles.obj
 0001:0013f9b0       ?particle_icon@@YAXABUvec@@HHHHHMH@Z 005409b0 f   renderparticles.obj
 0001:0013fa20       ?particle_textcopy@@YAXABUvec@@PBDHHHMH@Z 00540a20 f   renderparticles.obj
 0001:0013fb20       ?particle_text@@YAXABUvec@@PBDHHHMH@Z 00540b20 f   renderparticles.obj
 0001:0013fc00       ?particle_trail@@YAXHHABUvec@@0HMH@Z 00540c00 f   renderparticles.obj
 0001:0013fea0       ?particle_splash@@YAXHHHABUvec@@HMHH@Z 00540ea0 f   renderparticles.obj
 0001:0013fef0       ?regular_particle_splash@@YAXHHHABUvec@@HMHHH@Z 00540ef0 f   renderparticles.obj
 0001:0013ff60       ?canaddparticles@@YA_NXZ   00540f60 f   renderparticles.obj
 0001:001403a0       ?removetrackedparticles@@YAXPAUphysent@@@Z 005413a0 f   renderparticles.obj
 0001:001403d0       ?cleanupparticles@@YAXXZ   005413d0 f   renderparticles.obj
 0001:001403f0       ?initparticles@@YAXXZ      005413f0 f   renderparticles.obj
 0001:001404a0       ?var_fewparticles@@YAXXZ   005414a0 f   renderparticles.obj
 0001:001404b0       ?var_maxparticles@@YAXXZ   005414b0 f   renderparticles.obj
 0001:00140f80       ?cleanup@sphere@@YAXXZ     00541f80 f   renderparticles.obj
 0001:00140fd0       ?disable@sphere@@YAXXZ     00541fd0 f   renderparticles.obj
 0001:00141000       ?draw@sphere@@YAXXZ        00542000 f   renderparticles.obj
 0001:00141040       ?enable@sphere@@YAXXZ      00542040 f   renderparticles.obj
 0001:00141100       ?init@sphere@@YAXHH@Z      00542100 f   renderparticles.obj
 0001:00141530       ?binddepthfxparams@@YAXMM_NPAX@Z 00542530 f   renderparticles.obj
 0001:001417f0       ?binddepthfxtex@@YA_NXZ    005427f0 f   renderparticles.obj
 0001:00141850       ?cleanupdepthfx@@YAXXZ     00542850 f   renderparticles.obj
 0001:001418f0       ?var_depthfxsize@@YAXXZ    005428f0 f   renderparticles.obj
 0001:00141990       ?var_fpdepthfx@@YAXXZ      00542990 f   renderparticles.obj
 0001:00142100       ?addparticleemitters@@YAXXZ 00543100 f   renderparticles.obj
 0001:001422e0       ?finddepthfxranges@@YAXXZ  005432e0 f   renderparticles.obj
 0001:00142590       ?renderparticles@@YAX_N@Z  00543590 f   renderparticles.obj
 0001:00142a50       ?drawdepthfxtex@@YAXXZ     00543a50 f   renderparticles.obj
 0001:00142aa0       ?viewdepthfxtex@@YAXXZ     00543aa0 f   renderparticles.obj
 0001:00142ac0       ?debugparticles@@YAXXZ     00543ac0 f   renderparticles.obj
 0001:00142c10       ?clearparticleemitters@@YAXXZ 00543c10 f   renderparticles.obj
 0001:00142c30       ?printparticles@@YA_NAAUextentity@@PADH@Z 00543c30 f   renderparticles.obj
 0001:00142d50       ?clearparticles@@YAXXZ     00543d50 f   renderparticles.obj
 0001:00142d80       ?seedparticles@@YAXXZ      00543d80 f   renderparticles.obj
 0001:00143b40       ?drawskyoutline@@YAXXZ     00544b40 f   rendersky.obj
 0001:00143ca0       ?drawskylimits@@YA_N_N@Z   00544ca0 f   rendersky.obj
 0001:00143d10       ?cleanupsky@@YAXXZ         00544d10 f   rendersky.obj
 0001:00143d70       ?draw@fogdome@@YAXXZ       00544d70 f   rendersky.obj
 0001:00143fd0       ?cleanup@fogdome@@YAXXZ    00544fd0 f   rendersky.obj
 0001:00144030       ?init@fogdome@@YAXABUbvec@@MMMMHH@Z 00545030 f   rendersky.obj
 0001:00144740       ?sortcap@fogdome@@YAHGG@Z  00545740 f   rendersky.obj
 0001:001447a0       ?subdivide@fogdome@@YAXHH@Z 005457a0 f   rendersky.obj
 0001:001449b0       ?genface@fogdome@@YAXHHHH@Z 005459b0 f   rendersky.obj
 0001:001449f0       ?var_fogdomecolour@@YAXXZ  005459f0 f   rendersky.obj
 0001:00144a20       ?drawenvoverlay@@YAXHPAUTexture@@MM@Z 00545a20 f   rendersky.obj
 0001:00144f60       ?drawenvbox@@YAXHMMHPAPAUTexture@@@Z 00545f60 f   rendersky.obj
 0001:001452d0       ?drawenvboxface@@YAXMMHHHMMHHHMMHHHMMHHHPAUTexture@@@Z 005462d0 f   rendersky.obj
 0001:00145580       ?var_cloudlayer@@YAXXZ     00546580 f   rendersky.obj
 0001:001456b0       ?var_cloudbox@@YAXXZ       005466b0 f   rendersky.obj
 0001:001456d0       ?var_skybox@@YAXXZ         005466d0 f   rendersky.obj
 0001:001456f0       ?loadskyoverlay@@YAPAUTexture@@PBD@Z 005466f0 f   rendersky.obj
 0001:00145810       ?loadsky@@YAXPBDQAPAUTexture@@@Z 00546810 f   rendersky.obj
 0001:00145a30       ?drawskybox@@YAXH_N@Z      00546a30 f   rendersky.obj
 0001:00146770       ?limitsky@@YA_NXZ          00547770 f   rendersky.obj
 0001:001469c0       ?reloadfonts@@YAXXZ        005479c0 f   rendertext.obj
 0001:001470e0       ?tabify@@YAXPBDPAH@Z       005480e0 f   rendertext.obj
 0001:001471c0       ?popfont@@YA_NXZ           005481c0 f   rendertext.obj
 0001:001471f0       ?pushfont@@YAXXZ           005481f0 f   rendertext.obj
 0001:001472e0       ?setfont@@YA_NPBD@Z        005482e0 f   rendertext.obj
 0001:00147300       ?fontalias@@YAXPBD0@Z      00548300 f   rendertext.obj
 0001:001474c0       ?fontskip@@YAXPAH@Z        005484c0 f   rendertext.obj
 0001:00147530       ?fontchar@@YAXPAH000000@Z  00548530 f   rendertext.obj
 0001:001475e0       ?fonttex@@YAXPAD@Z         005485e0 f   rendertext.obj
 0001:00147650       ?fontscale@@YAXPAH@Z       00548650 f   rendertext.obj
 0001:00147670       ?fontoffset@@YAXPAD@Z      00548670 f   rendertext.obj
 0001:00147690       ?newfont@@YAXPAD0PAH1@Z    00548690 f   rendertext.obj
 0001:001477a0       ?gettextres@@YAXAAH0@Z     005487a0 f   rendertext.obj
 0001:001477f0       ?draw_textf@@YAXPBDHHZZ    005487f0 f   rendertext.obj
 0001:00147870       ?text_posf@@YAXPBDHAAM1H@Z 00548870 f   rendertext.obj
 0001:00147ae0       ?text_visible@@YAHPBDMMH@Z 00548ae0 f   rendertext.obj
 0001:00147d60       ?text_boundsf@@YAXPBDAAM1H@Z 00548d60 f   rendertext.obj
 0001:00147f60       ?draw_text@@YAXPBDHHHHHHHH@Z 00548f60 f   rendertext.obj
 0001:001484c0       ?text_widthf@@YAMPBD@Z     005494c0 f   rendertext.obj
 0001:00148870       ?renderreflectedskyvas@@YAXAAU?$vector@PAUvtxarray@@@@H@Z 00549870 f   renderva.obj
 0001:00148980       ?renderskyva@@YAXPAUvtxarray@@_N@Z 00549980 f   renderva.obj
 0001:00148a90       ?findreflectedvas@@YAXAAU?$vector@PAUvtxarray@@@@H@Z 00549a90 f   renderva.obj
 0001:00148d30       ?cleanupgeom@@YAXAAUrenderstate@@@Z 00549d30 f   renderva.obj
 0001:00148d90       ?setupgeom@@YAXAAUrenderstate@@@Z 00549d90 f   renderva.obj
 0001:00149080       ?setupcaustics@@YAXM@Z     0054a080 f   renderva.obj
 0001:00149590       ?var_caustics@@YAXXZ       0054a590 f   renderva.obj
 0001:001495a0       ?cleanupva@@YAXXZ          0054a5a0 f   renderva.obj
 0001:001496a0       ?renderva@@YAXAAUrenderstate@@PAUvtxarray@@H_N2@Z 0054a6a0 f   renderva.obj
 0001:00149a70       ?renderfoggedvas@@YAXAAUrenderstate@@_N@Z 0054aa70 f   renderva.obj
 0001:00149c40       ?renderzpass@@YAXAAUrenderstate@@PAUvtxarray@@@Z 0054ac40 f   renderva.obj
 0001:0014b4a0       ?rendershadowmapreceivers@@YAXXZ 0054c4a0 f   renderva.obj
 0001:0014b870       ?rendermapmodel@@YAXAAUextentity@@@Z 0054c870 f   renderva.obj
 0001:0014b930       ?findvisiblemms@@YAXABU?$vector@PAUextentity@@@@_N@Z 0054c930 f   renderva.obj
 0001:0014bf60       ?clearqueries@@YAXXZ       0054cf60 f   renderva.obj
 0001:0014bfb0       ?flipqueries@@YAXXZ        0054cfb0 f   renderva.obj
 0001:0014c090       ?restorevfcP@@YAXXZ        0054d090 f   renderva.obj
 0001:0014c0b0       ?savevfcP@@YAXXZ           0054d0b0 f   renderva.obj
 0001:0014c0d0       ?setvfcP@@YAXMABUvec@@0@Z  0054d0d0 f   renderva.obj
 0001:0014c6f0       ?calcvfcD@@YAXXZ           0054d6f0 f   renderva.obj
 0001:0014c7a0       ?findvisiblevas@@YAXAAU?$vector@PAUvtxarray@@@@_N@Z 0054d7a0 f   renderva.obj
 0001:0014c9d0       ?sortvisiblevas@@YAXXZ     0054d9d0 f   renderva.obj
 0001:0014ca10       ?addvisibleva@@YAXPAUvtxarray@@@Z 0054da10 f   renderva.obj
 0001:0014ca80       ?vadist@@YAMPAUvtxarray@@ABUvec@@@Z 0054da80 f   renderva.obj
 0001:0014cb50       ?isvisiblecube@@YAHABUivec@@H@Z 0054db50 f   renderva.obj
 0001:0014cdf0       ?rendersky@@YA_N_N@Z       0054ddf0 f   renderva.obj
 0001:0014ced0       ?renderdepthobstacles@@YAXABUvec@@0MPAMH@Z 0054ded0 f   renderva.obj
 0001:0014d980       ?bboccluded@@YA_NABUivec@@0@Z 0054e980 f   renderva.obj
 0001:0014db60       ?endquery@@YAXPAUoccludequery@@@Z 0054eb60 f   renderva.obj
 0001:0014db70       ?startquery@@YAXPAUoccludequery@@@Z 0054eb70 f   renderva.obj
 0001:0014db80       ?startbb@@YAX_N@Z          0054eb80 f   renderva.obj
 0001:0014dc80       ?newquery@@YAPAUoccludequery@@PAX@Z 0054ec80 f   renderva.obj
 0001:0014dce0       ?drawbb@@YAXABUivec@@0@Z   0054ece0 f   renderva.obj
 0001:0014e170       ?endbb@@YAX_N@Z            0054f170 f   renderva.obj
 0001:0014e1c0       ?checkquery@@YA_NPAUoccludequery@@_N@Z 0054f1c0 f   renderva.obj
 0001:0014e220       ?rendergeom@@YAXM_N@Z      0054f220 f   renderva.obj
 0001:0014f0f0       ?renderreflectedmapmodels@@YAXXZ 005500f0 f   renderva.obj
 0001:0014f340       ?renderalphageom@@YAX_N@Z  00550340 f   renderva.obj
 0001:0014f860       ?renderreflectedgeom@@YAX_N0@Z 00550860 f   renderva.obj
 0001:0014f8a0       ?visiblecubes@@YAX_N@Z     005508a0 f   renderva.obj
 0001:0014f9f0       ?rendermapmodels@@YAXXZ    005509f0 f   renderva.obj
 0001:0014fdc0       ?renderoutline@@YAXXZ      00550dc0 f   renderva.obj
 0001:001500f0       ?getnumqueries@@YAHXZ      005510f0 f   renderva.obj
 0001:00150110       ?loadcaustics@@YAX_N@Z     00551110 f   renderva.obj
 0001:001501c0       ?isfoggedsphere@@YA_NMABUvec@@@Z 005511c0 f   renderva.obj
 0001:00150260       ?resetqueries@@YAXXZ       00551260 f   renderva.obj
 0001:00150290       ?isvisiblesphere@@YAHMABUvec@@@Z 00551290 f   renderva.obj
 0001:00150320       ?renderblendbrush@@YAXIMMMM@Z 00551320 f   renderva.obj
 0001:00150b00       ?reloadshaders@@YAXXZ      00551b00 f   shader.obj
 0001:00150c50       ?cleanupshaders@@YAXXZ     00551c50 f   shader.obj
 0001:00150d10       ?run@?$_icmd_setpostfx@$0FKA@@@SAXPADPAM111@Z 00551d10 f   shader.obj
 0001:00150d90       ?run@?$_icmd_addpostfx@$0FJK@@@SAXPADPAH10PAM222@Z 00551d90 f   shader.obj
 0001:00150e80       ?clearpostfx@@YAXXZ        00551e80 f   shader.obj
 0001:00151040       ?cleanuppostfx@@YAX_N@Z    00552040 f   shader.obj
 0001:001512f0       ?run@?$_icmd_defuniformparam@$0EOK@@@SAXPADPAM111@Z 005522f0 f   shader.obj
 0001:00151330       ?run@?$_icmd_setshaderparam@$0EOJ@@@SAXPADPAM111@Z 00552330 f   shader.obj
 0001:00151370       ?run@?$_icmd_setuniformparam@$0EOI@@@SAXPADPAM111@Z 00552370 f   shader.obj
 0001:001513b0       ?addslotparam@@YAXPBDMMMM@Z 005523b0 f   shader.obj
 0001:001514a0       ?run@?$_icmd_isshaderdefined@$0EMK@@@SAXPAD@Z 005524a0 f   shader.obj
 0001:001514e0       ?run@?$_icmd_forceshader@$0EMI@@@SAXPBD@Z 005524e0 f   shader.obj
 0001:00151510       ?fastshader@@YAXPAD0PAH@Z  00552510 f   shader.obj
 0001:00151580       ?altshader@@YAXPAD0@Z      00552580 f   shader.obj
 0001:001515b0       ?linkvslotshader@@YAXAAUVSlot@@_N@Z 005525b0 f   shader.obj
 0001:00151760       ?linkslotshader@@YAXAAUSlot@@_N@Z 00552760 f   shader.obj
 0001:00151860       ?setslotshader@@YAXAAUSlot@@@Z 00552860 f   shader.obj
 0001:001518e0       ?resetslotshader@@YAXXZ    005528e0 f   shader.obj
 0001:00151900       ?setshader@@YAXPAD@Z       00552900 f   shader.obj
 0001:00151940       ?variantshader@@YAXPAHPAD011@Z 00552940 f   shader.obj
 0001:00151c40       ?shader@@YAXPAHPAD11@Z     00552c40 f   shader.obj
 0001:00151f00       ?fixdetailshader@Shader@@QAEX_N0@Z 00552f00 f   shader.obj
 0001:00152070       ?var_shaderdetail@@YAXXZ   00553070 f   shader.obj
 0001:00152100       ?fixshaderdetail@@YAXXZ    00553100 f   shader.obj
 0001:00152190       ?force@Shader@@QAEXXZ      00553190 f   shader.obj
 0001:00152250       ?defershader@@YAXPAHPBD1@Z 00553250 f   shader.obj
 0001:00153bc0       ?newshader@@YAPAUShader@@HPBD00PAU1@H@Z 00554bc0 f   shader.obj
 0001:00154600       ?cleanup@Shader@@QAEX_N@Z  00555600 f   shader.obj
 0001:00154760       ?compile@Shader@@QAE_NXZ   00555760 f   shader.obj
 0001:001556a0       ?loadshaders@@YAXXZ        005566a0 f   shader.obj
 0001:00155840       ?setslotparams@Shader@@QAEXAAUSlot@@AAUVSlot@@@Z 00556840 f   shader.obj
 0001:00155eb0       ?generateshader@@YAPAUShader@@PBD0ZZ 00556eb0 f   shader.obj
 0001:00155f70       ?uniformlocversion@Shader@@SAHXZ 00556f70 f   shader.obj
 0001:00156000       ?setupshaders@@YAXXZ       00557000 f   shader.obj
 0001:00156100       ?renderpostfx@@YAXXZ       00557100 f   shader.obj
 0001:001567f0       ?getlocalparam@@YAHPBD@Z   005577f0 f   shader.obj
 0001:00156870       ?setupblurkernel@@YAXHMPAM0@Z 00557870 f   shader.obj
 0001:00156b70       ?setblurshader@@YAXHHHPAM0@Z 00557b70 f   shader.obj
 0001:00156e10       ?minimizedynlighttcusage@@YA_NXZ 00557e10 f   shader.obj
 0001:00156e30       ?allocparams@Shader@@QAEXPAUSlot@@@Z 00557e30 f   shader.obj
 0001:001570c0       ?bindprograms@Shader@@QAEXXZ 005580c0 f   shader.obj
 0001:001570f0       ?useshaderbyname@@YAPAUShader@@PBD@Z 005580f0 f   shader.obj
 0001:00157130       ?resetversions@GlobalShaderParamState@@QAEXXZ 00558130 f   shader.obj
 0001:00157260       ?getglobalparam@@YAPAUGlobalShaderParamState@@PBD@Z 00558260 f   shader.obj
 0001:00157300       ?lookupshaderbyname@@YAPAUShader@@PBD@Z 00558300 f   shader.obj
 0001:00157320       ?getshaderparamname@@YAPBDPBD_N@Z 00558320 f   shader.obj
 0001:001574b0       ?calcshadowmapbb@@YAXABUvec@@MMAAM111@Z 005584b0 f   shadowmap.obj
 0001:00157710       ?cleanshadowmap@@YAXXZ     00558710 f   shadowmap.obj
 0001:001577b0       ?var_shadowmapangle@@YAXXZ 005587b0 f   shadowmap.obj
 0001:00157850       ?setshadowdir@@YAXH@Z      00558850 f   shadowmap.obj
 0001:001578f0       ?var_shadowmapambient@@YAXXZ 005588f0 f   shadowmap.obj
 0001:00157940       ?var_shadowmapprecision@@YAXXZ 00558940 f   shadowmap.obj
 0001:001579e0       ?var_fpshadowmap@@YAXXZ    005589e0 f   shadowmap.obj
 0001:00157a80       ?var_shadowmapsize@@YAXXZ  00558a80 f   shadowmap.obj
 0001:00157b20       ?isshadowmapreceiver@@YA_NPAUvtxarray@@@Z 00558b20 f   shadowmap.obj
 0001:00157de0       ?rendershadowmap@@YAXXZ    00558de0 f   shadowmap.obj
 0001:00157e30       ?pushshadowmap@@YAXXZ      00558e30 f   shadowmap.obj
 0001:001582d0       ?popshadowmap@@YAXXZ       005592d0 f   shadowmap.obj
 0001:001582e0       ?isshadowmapcaster@@YA_NABUvec@@M@Z 005592e0 f   shadowmap.obj
 0001:001583d0       ?addshadowmapcaster@@YA_NABUvec@@MM@Z 005593d0 f   shadowmap.obj
 0001:00158480       ?viewshadowmap@@YAXXZ      00559480 f   shadowmap.obj
 0001:001584a0       ?guessshadowdir@@YAXXZ     005594a0 f   shadowmap.obj
 0001:0015bc40       ?mergenormalmaps@@YAXPAD0@Z 0055cc40 f   texture.obj
 0001:0015bff0       ?flipnormalmapy@@YAXPAD0@Z 0055cff0 f   texture.obj
 0001:0015c1b0       ?screenshot@@YAXPAD@Z      0055d1b0 f   texture.obj
 0001:0015c4a0       ?saveimage@@YAXPBDHAAUImageData@@_N@Z 0055d4a0 f   texture.obj
 0001:0015c730       ?guessimageformat@@YAHPBDH@Z 0055d730 f   texture.obj
 0001:0015c7a0       ?savetga@@YAXPBDAAUImageData@@_N@Z 0055d7a0 f   texture.obj
 0001:0015ca80       ?writepngchunk@@YAXPAUstream@@PBDPAEI@Z 0055da80 f   texture.obj
 0001:0015cb00       ?gendds@@YAXPAD0@Z         0055db00 f   texture.obj
 0001:0015d0d0       ?loaddds@@YA_NPBDAAUImageData@@H@Z 0055e0d0 f   texture.obj
 0001:0015ea60       ?reloadtextures@@YAXXZ     0055fa60 f   texture.obj
 0001:0015ec20       ?reloadtex@@YAXPAD@Z       0055fc20 f   texture.obj
 0001:0015ed40       ?reloadtexture@@YA_NPBD@Z  0055fd40 f   texture.obj
 0001:0015eda0       ?cleanuptextures@@YAXXZ    0055fda0 f   texture.obj
 0001:0015ee80       ?cleanuptexture@@YAXPAUTexture@@@Z 0055fe80 f   texture.obj
 0001:0015ef50       ?genenvmap@@YAIABUvec@@HH@Z 0055ff50 f   texture.obj
 0001:0015f390       ?clearenvmaps@@YAXXZ       00560390 f   texture.obj
 0001:0015f400       ?cubemaploadwildcard@@YAPAUTexture@@PAU1@PBD_N22@Z 00560400 f   texture.obj
 0001:0015fcc0       ?var_envmapsize@@YAXXZ     00560cc0 f   texture.obj
 0001:0015fcd0       ?forcecubemapload@@YAXI@Z  00560cd0 f   texture.obj
 0001:00161250       ?texcolor@@YAXPAM00@Z      00562250 f   texture.obj
 0001:001612d0       ?texalpha@@YAXPAM0@Z       005622d0 f   texture.obj
 0001:00161330       ?texlayer@@YAXPAHPAD0PAM@Z 00562330 f   texture.obj
 0001:001613f0       ?texscale@@YAXPAM@Z        005623f0 f   texture.obj
 0001:00161440       ?texrotate_@@YAXPAH@Z      00562440 f   texture.obj
 0001:00161490       ?texoffset_@@YAXPAH0@Z     00562490 f   texture.obj
 0001:001614e0       ?texscroll@@YAXPAM0@Z      005624e0 f   texture.obj
 0001:00161550       ?autograss@@YAXPAD@Z       00562550 f   texture.obj
 0001:001615e0       ?texture@@YAXPAD0PAH11PAM@Z 005625e0 f   texture.obj
 0001:00161ad0       ?findslottex@@YAHPBD@Z     00562ad0 f   texture.obj
 0001:00161b10       ?run@?$_icmd_fixinsidefaces@$0HNE@@@SAXPAH@Z 00562b10 f   texture.obj
 0001:00161d40       ?packvslot@@YAXAAU?$vector@E@@PBUVSlot@@@Z 00562d40 f   texture.obj
 0001:00161d90       ?packvslot@@YAXAAU?$vector@E@@H@Z 00562d90 f   texture.obj
 0001:001624e0       ?run@?$_icmd_compactvslots@$0GIO@@@SAXXZ 005634e0 f   texture.obj
 0001:00162580       ?materialreset@@YAXXZ      00563580 f   texture.obj
 0001:001625c0       ?texturereset@@YAXPAH@Z    005635c0 f   texture.obj
 0001:00162700       ?settexture@@YA_NPBDH@Z    00563700 f   texture.obj
 0001:00163b20       ?loadsurface@@YAPAUSDL_Surface@@PBD@Z 00564b20 f   texture.obj
 0001:00163cf0       ?canloadsurface@@YA_NPBD@Z 00564cf0 f   texture.obj
 0001:00163d30       ?scaleimage@@YAXAAUImageData@@HH@Z 00564d30 f   texture.obj
 0001:00163e30       ?texblur@@YAXAAUImageData@@HH@Z 00564e30 f   texture.obj
 0001:00163fb0       ?texnormal@@YAXAAUImageData@@H@Z 00564fb0 f   texture.obj
 0001:00164250       ?texflip@@YAXAAUImageData@@@Z 00565250 f   texture.obj
 0001:00164370       ?fixsurfaceformat@@YAPAUSDL_Surface@@PAU1@@Z 00565370 f   texture.obj
 0001:00164490       ?checkgrayscale@@YA_NPAUSDL_Surface@@@Z 00565490 f   texture.obj
 0001:001644f0       ?creatergbasurface@@YAPAUSDL_Surface@@PAU1@@Z 005654f0 f   texture.obj
 0001:00164550       ?creatergbsurface@@YAPAUSDL_Surface@@PAU1@@Z 00565550 f   texture.obj
 0001:001645a0       ?wrapsurface@@YAPAUSDL_Surface@@PAXHHH@Z 005655a0 f   texture.obj
 0001:00164b20       ?createcompressedtexture@@YAXHHHPAEHHHHHII_N@Z 00565b20 f   texture.obj
 0001:00164fa0       ?swizzlemask@@YAPBHI@Z     00565fa0 f   texture.obj
 0001:00164fc0       ?uncompressedformat@@YAII@Z 00565fc0 f   texture.obj
 0001:00165060       ?textarget@@YAII@Z         00566060 f   texture.obj
 0001:00165080       ?uploadcompressedtexture@@YAXIIIHHPAEHHH_N@Z 00566080 f   texture.obj
 0001:001651a0       ?uploadtexture@@YAXIIHHIIPAXHHH_N@Z 005661a0 f   texture.obj
 0001:00165470       ?resizetexture@@YAXHH_N0IHAAH1@Z 00566470 f   texture.obj
 0001:001655c0       ?var_usenp2@@YAXXZ         005665c0 f   texture.obj
 0001:001655e0       ?formatsize@@YAHI@Z        005665e0 f   texture.obj
 0001:00165640       ?compressedformat@@YAIIHHH@Z 00566640 f   texture.obj
 0001:001657b0       ?var_aniso@@YAXXZ          005667b0 f   texture.obj
 0001:001657d0       ?var_bilinear@@YAXXZ       005667d0 f   texture.obj
 0001:001657f0       ?var_trilinear@@YAXXZ      005667f0 f   texture.obj
 0001:00165810       ?var_texcompressquality@@YAXXZ 00566810 f   texture.obj
 0001:00165860       ?var_texcompress@@YAXXZ    00566860 f   texture.obj
 0001:00165880       ?var_texreduce@@YAXXZ      00566880 f   texture.obj
 0001:001658a0       ?var_reducefilter@@YAXXZ   005668a0 f   texture.obj
 0001:001658c0       ?var_maxtexsize@@YAXXZ     005668c0 f   texture.obj
 0001:001658e0       ?texagrad@@YAXAAUImageData@@MMMM@Z 005668e0 f   texture.obj
 0001:00165a90       ?texpremul@@YAXAAUImageData@@@Z 00566a90 f   texture.obj
 0001:00165b90       ?texgrey@@YAXAAUImageData@@@Z 00566b90 f   texture.obj
 0001:00165d50       ?texmix@@YAXAAUImageData@@HHHH@Z 00566d50 f   texture.obj
 0001:00165f10       ?texdup@@YAXAAUImageData@@HH@Z 00566f10 f   texture.obj
 0001:00165f80       ?texcolormask@@YAXAAUImageData@@ABUvec@@1@Z 00566f80 f   texture.obj
 0001:00166190       ?texcolorify@@YAXAAUImageData@@ABUvec@@U2@@Z 00567190 f   texture.obj
 0001:001662c0       ?texmad@@YAXAAUImageData@@ABUvec@@1@Z 005672c0 f   texture.obj
 0001:001663e0       ?texoffset@@YAXAAUImageData@@HH@Z 005673e0 f   texture.obj
 0001:00166560       ?texrotate@@YAXAAUImageData@@HH@Z 00567560 f   texture.obj
 0001:001665b0       ?texreorient@@YAXAAUImageData@@_N11H@Z 005675b0 f   texture.obj
 0001:00166a80       ?swizzleimage@@YAXAAUImageData@@@Z 00567a80 f   texture.obj
 0001:00166cf0       ?forcergbimage@@YAXAAUImageData@@@Z 00567cf0 f   texture.obj
 0001:001686d0       ?linkslotshaders@@YAXXZ    005696d0 f   texture.obj
 0001:001687b0       ?reloadtexture@@YA_NAAUTexture@@@Z 005697b0 f   texture.obj
 0001:00168920       ?cubemapload@@YAPAUTexture@@PBD_N11@Z 00569920 f   texture.obj
 0001:00168a40       ?setuptexcompress@@YAXXZ   00569a40 f   texture.obj
 0001:00168a90       ?setuptexparameters@@YAXHPAXHHII_N@Z 00569a90 f   texture.obj
 0001:00168c10       ?genenvmaps@@YAXXZ         00569c10 f   texture.obj
 0001:00168cf0       ?closestenvmap@@YAGABUvec@@@Z 00569cf0 f   texture.obj
 0001:00168dc0       ?lookupmaterialslot@@YAAAUMSlot@@H_N@Z 00569dc0 f   texture.obj
 0001:00168e00       ?lookupenvmap@@YAIAAUSlot@@@Z 00569e00 f   texture.obj
 0001:00168e40       ?lookupenvmap@@YAIG@Z      00569e40 f   texture.obj
 0001:00168e90       ?loadalphamask@@YAPAEPAUTexture@@@Z 00569e90 f   texture.obj
 0001:00169000       ?compactvslots@@YAHXZ      0056a000 f   texture.obj
 0001:00169450       ?textureload@@YAPAUTexture@@PBDH_N1@Z 0056a450 f   texture.obj
 0001:00169570       ?clearslots@@YAXXZ         0056a570 f   texture.obj
 0001:00169680       ?closestenvmap@@YAGHABUivec@@H@Z 0056a680 f   texture.obj
 0001:00169720       ?initenvmaps@@YAXXZ        0056a720 f   texture.obj
 0001:00169900       ?packvslot@@YAXAAU?$vector@E@@ABUVSlot@@@Z 0056a900 f   texture.obj
 0001:00169da0       ?lookupslot@@YAAAUSlot@@H_N@Z 0056ada0 f   texture.obj
 0001:00169dd0       ?unpackvslot@@YA_NAAU?$databuf@E@@AAUVSlot@@_N@Z 0056add0 f   texture.obj
 0001:0016a0f0       ?editvslot@@YAPAUVSlot@@ABU1@0@Z 0056b0f0 f   texture.obj
 0001:0016a210       ?compactvslot@@YAXAAH@Z    0056b210 f   texture.obj
 0001:0016a260       ?compactvslot@@YAXAAUVSlot@@@Z 0056b260 f   texture.obj
 0001:0016a280       ?compactvslots@@YAXPAUcube@@H@Z 0056b280 f   texture.obj
 0001:0016a370       ?mergevslot@@YAXAAUVSlot@@ABU1@1@Z 0056b370 f   texture.obj
 0001:0016a450       ?findvslot@@YAPAUVSlot@@AAUSlot@@ABU1@1@Z 0056b450 f   texture.obj
 0001:0016a600       ?loadthumbnail@@YAPAUTexture@@AAUSlot@@@Z 0056b600 f   texture.obj
 0001:0016ad20       ?texalign@@YAHPBXHH@Z      0056bd20 f   texture.obj
 0001:0016ad40       ?blurtexture@@YAXHHHHPAEPBEH@Z 0056bd40 f   texture.obj
 0001:0016ae10       ?blurnormals@@YAXHHHPAUbvec@@PBU1@H@Z 0056be10 f   texture.obj
 0001:0016ae70       ?lookupvslot@@YAAAUVSlot@@H_N@Z 0056be70 f   texture.obj
 0001:0016aee0       ?loadlayermasks@@YAXXZ     0056bee0 f   texture.obj
 0001:0016afc0       ?savepng@@YAXPBDAAUImageData@@_N@Z 0056bfc0 f   texture.obj
 0001:0016b3b0       ?createtexture@@YAXHHHPAXHHIIHHH_NI1@Z 0056c3b0 f   texture.obj
 0001:0016b4d0       ?loadimage@@YA_NPBDAAUImageData@@@Z 0056c4d0 f   texture.obj
 0001:0016be80       ?maskreflection@@YAXAAUReflection@@M_N1@Z 0056ce80 f   water.obj
 0001:0016c120       ?queryreflection@@YAXAAUReflection@@_N@Z 0056d120 f   water.obj
 0001:0016c930       ?addreflection@@YAXAAUmaterialsurface@@@Z 0056d930 f   water.obj
 0001:0016ca70       ?addwaterfallrefraction@@YAXAAUmaterialsurface@@@Z 0056da70 f   water.obj
 0001:0016cae0       ?genwatertex@@YAXAAI00_N@Z 0056dae0 f   water.obj
 0001:0016cf00       ?var_reflectsize@@YAXXZ    0056df00 f   water.obj
 0001:0016cf10       ?cleanreflection@@YAXAAUReflection@@@Z 0056df10 f   water.obj
 0001:0016cf70       ?var_waterfade@@YAXXZ      0056df70 f   water.obj
 0001:0016cf80       ?setprojtexmatrix@@YAXAAUReflection@@@Z 0056df80 f   water.obj
 0001:0016d190       ?var_lava4colour@@YAXXZ    0056e190 f   water.obj
 0001:0016d1d0       ?var_lava3colour@@YAXXZ    0056e1d0 f   water.obj
 0001:0016d210       ?var_lava2colour@@YAXXZ    0056e210 f   water.obj
 0001:0016d250       ?var_lavacolour@@YAXXZ     0056e250 f   water.obj
 0001:0016d290       ?getwaterspec@@YAHH@Z      0056e290 f   water.obj
 0001:0016d2c0       ?var_water4fallcolour@@YAXXZ 0056e2c0 f   water.obj
 0001:0016d2f0       ?var_water4colour@@YAXXZ   0056e2f0 f   water.obj
 0001:0016d330       ?var_water3fallcolour@@YAXXZ 0056e330 f   water.obj
 0001:0016d360       ?var_water3colour@@YAXXZ   0056e360 f   water.obj
 0001:0016d3a0       ?var_water2fallcolour@@YAXXZ 0056e3a0 f   water.obj
 0001:0016d3d0       ?var_water2colour@@YAXXZ   0056e3d0 f   water.obj
 0001:0016d410       ?var_waterfallcolour@@YAXXZ 0056e410 f   water.obj
 0001:0016d440       ?var_watercolour@@YAXXZ    0056e440 f   water.obj
 0001:0016d670       ?var_vertwater@@YAXXZ      0056e670 f   water.obj
 0001:0016d680       ?renderflatwater@@YAXHHHHHH@Z 0056e680 f   water.obj
 0001:0016d800       ?renderwaterlod@@YAHHHHHH@Z 0056e800 f   water.obj
 0001:0016d9c0       ?calcwatersubdiv@@YAHHHHH@Z 0056e9c0 f   water.obj
 0001:0016dae0       ?rendervertwater@@YAXHHHHHH@Z 0056eae0 f   water.obj
 0001:0016ed80       ?var_waterfallrefract@@YAXXZ 0056fd80 f   water.obj
 0001:0016ed90       ?var_waterenvmap@@YAXXZ    0056fd90 f   water.obj
 0001:0016eda0       ?var_waterrefract@@YAXXZ   0056fda0 f   water.obj
 0001:0016edb0       ?var_waterreflect@@YAXXZ   0056fdb0 f   water.obj
 0001:0016edc0       ?getlavacolor@@YAABUbvec@@H@Z 0056fdc0 f   water.obj
 0001:0016edf0       ?getlavafog@@YAHH@Z        0056fdf0 f   water.obj
 0001:0016ee20       ?renderwater@@YAXXZ        0056fe20 f   water.obj
 0001:00170020       ?queryreflections@@YAXXZ   00571020 f   water.obj
 0001:00170500       ?drawreflections@@YAXXZ    00571500 f   water.obj
 0001:00170b90       ?preloadwatershaders@@YAX_N@Z 00571b90 f   water.obj
 0001:00170d40       ?getwaterfallcolor@@YAABUbvec@@H@Z 00571d40 f   water.obj
 0001:00170d70       ?getwatercolor@@YAABUbvec@@H@Z 00571d70 f   water.obj
 0001:00170da0       ?getwaterfog@@YAHH@Z       00571da0 f   water.obj
 0001:00170dd0       ?renderlava@@YAXABUmaterialsurface@@PAUTexture@@M@Z 00571dd0 f   water.obj
 0001:00170e40       ?setupwaterfallrefract@@YAXXZ 00571e40 f   water.obj
 0001:00170e70       ?cleanreflections@@YAXXZ   00571e70 f   water.obj
 0001:00172160       ?clearsleep_@@YAXPAH@Z     00573160 f   command.obj
 0001:00172180       ?checksleep@@YAXH@Z        00573180 f   command.obj
 0001:00172270       ?addsleep@@YAXPAHPAD@Z     00573270 f   command.obj
 0001:00172390       ?run@?$_stdcmd@$0MFJ@@@SAXPAH@Z 00573390 f   command.obj
 0001:001723c0       ?strsplice@@YAXPBD0PAH1@Z  005733c0 f   command.obj
 0001:001724a0       ?run@?$_stdcmd@$0MEI@@@SAXPAD00@Z 005734a0 f   command.obj
 0001:001724d0       ?strreplace@@YAPADPBD00@Z  005734d0 f   command.obj
 0001:00172680       ?run@?$_stdcmd@$0MCO@@@SAXPAD@Z 00573680 f   command.obj
 0001:001726f0       ?run@?$_stdcmd@$0MCN@@@SAXPAD@Z 005736f0 f   command.obj
 0001:00172760       ?run@?$_stdcmd@$0MCB@@@SAXPAH@Z 00573760 f   command.obj
 0001:001727c0       ?run@?$_stdcmd@$0MCA@@@SAXPADPAH@Z 005737c0 f   command.obj
 0001:00172830       ?run@?$_stdcmd@$0MBP@@@SAXPAH@Z 00573830 f   command.obj
 0001:00172860       ?run@?$_stdcmd@$0MBO@@@SAXPADPAH@Z 00573860 f   command.obj
 0001:001728d0       ?run@?$_stdcmd@$0MBN@@@SAXPAD@Z 005738d0 f   command.obj
 0001:001728f0       ?run@?$_stdcmd@$0MBM@@@SAXPAD0@Z 005738f0 f   command.obj
 0001:00172920       ?run@?$_stdcmd@$0MBL@@@SAXPAD@Z 00573920 f   command.obj
 0001:00172940       ?run@?$_stdcmd@$0MBK@@@SAXPAD@Z 00573940 f   command.obj
 0001:00172960       ?run@?$_stdcmd@$0MBJ@@@SAXPAD0@Z 00573960 f   command.obj
 0001:00172990       ?run@?$_stdcmd@$0MBI@@@SAXPAD0@Z 00573990 f   command.obj
 0001:001729c0       ?run@?$_stdcmd@$0MBH@@@SAXPAD0@Z 005739c0 f   command.obj
 0001:001729f0       ?run@?$_stdcmd@$0MBG@@@SAXPAD0@Z 005739f0 f   command.obj
 0001:00172a20       ?run@?$_stdcmd@$0MBF@@@SAXPAD0@Z 00573a20 f   command.obj
 0001:00172a50       ?run@?$_stdcmd@$0MBE@@@SAXPAD0@Z 00573a50 f   command.obj
 0001:00172a80       ?run@?$_stdcmd@$0MBD@@@SAXPAD0@Z 00573a80 f   command.obj
 0001:00172ab0       ?run@?$_stdcmd@$0MBC@@@SAXPAH0@Z 00573ab0 f   command.obj
 0001:00172af0       ?run@?$_stdcmd@$0MBA@@@SAXPAUtagval@@H@Z 00573af0 f   command.obj
 0001:00172bd0       ?run@?$_stdcmd@$0MAP@@@SAXPAUtagval@@H@Z 00573bd0 f   command.obj
 0001:00172d50       ?run@?$_stdcmd@$0MAO@@@SAXPAUtagval@@H@Z 00573d50 f   command.obj
 0001:00172e30       ?run@?$_stdcmd@$0LPP@@@SAXPAUtagval@@H@Z 00573e30 f   command.obj
 0001:00172ed0       ?run@?$_stdcmd@$0LOL@@@SAXPAM@Z 00573ed0 f   command.obj
 0001:00172f10       ?run@?$_stdcmd@$0LOK@@@SAXPAH@Z 00573f10 f   command.obj
 0001:00172f30       ?run@?$_stdcmd@$0LOJ@@@SAXPAUtagval@@H@Z 00573f30 f   command.obj
 0001:00173080       ?run@?$_stdcmd@$0LOD@@@SAXPAUtagval@@H@Z 00574080 f   command.obj
 0001:001731d0       ?run@?$_stdcmd@$0LNN@@@SAXPAUtagval@@H@Z 005741d0 f   command.obj
 0001:001732a0       ?run@?$_stdcmd@$0LNH@@@SAXPAUtagval@@H@Z 005742a0 f   command.obj
 0001:00173370       ?run@?$_stdcmd@$0LNB@@@SAXPAM@Z 00574370 f   command.obj
 0001:001733b0       ?run@?$_stdcmd@$0LNA@@@SAXPAM@Z 005743b0 f   command.obj
 0001:001733f0       ?run@?$_stdcmd@$0LMP@@@SAXPAM@Z 005743f0 f   command.obj
 0001:00173430       ?run@?$_stdcmd@$0LMO@@@SAXPAM@Z 00574430 f   command.obj
 0001:00173470       ?run@?$_stdcmd@$0LMN@@@SAXPAM0@Z 00574470 f   command.obj
 0001:001734c0       ?run@?$_stdcmd@$0LMM@@@SAXPAM@Z 005744c0 f   command.obj
 0001:00173500       ?run@?$_stdcmd@$0LML@@@SAXPAM0@Z 00574500 f   command.obj
 0001:00173550       ?run@?$_stdcmd@$0LMK@@@SAXPAM@Z 00574550 f   command.obj
 0001:00173590       ?run@?$_stdcmd@$0LMJ@@@SAXPAM@Z 00574590 f   command.obj
 0001:001735d0       ?run@?$_stdcmd@$0LMI@@@SAXPAM@Z 005745d0 f   command.obj
 0001:00173610       ?run@?$_stdcmd@$0LMH@@@SAXPAM@Z 00574610 f   command.obj
 0001:00173650       ?run@?$_stdcmd@$0LMG@@@SAXPAM@Z 00574650 f   command.obj
 0001:00173690       ?run@?$_stdcmd@$0LMF@@@SAXPAM@Z 00574690 f   command.obj
 0001:001736d0       ?run@?$_stdcmd@$0LME@@@SAXPAM0@Z 005746d0 f   command.obj
 0001:00173740       ?run@?$_stdcmd@$0LMD@@@SAXPAM0@Z 00574740 f   command.obj
 0001:00173780       ?run@?$_stdcmd@$0LMC@@@SAXPAH0@Z 00574780 f   command.obj
 0001:001737c0       ?run@?$_stdcmd@$0LMB@@@SAXPAH0@Z 005747c0 f   command.obj
 0001:00173800       ?run@?$_stdcmd@$0LLP@@@SAXPAUtagval@@H@Z 00574800 f   command.obj
 0001:001739a0       ?run@?$_stdcmd@$0LLF@@@SAXPAUtagval@@H@Z 005749a0 f   command.obj
 0001:00173b40       ?run@?$_stdcmd@$0LKL@@@SAXPAH0@Z 00574b40 f   command.obj
 0001:00173b70       ?run@?$_stdcmd@$0LKK@@@SAXPAH0@Z 00574b70 f   command.obj
 0001:00173bb0       ?run@?$_stdcmd@$0LKJ@@@SAXPAH0@Z 00574bb0 f   command.obj
 0001:00173bd0       ?run@?$_stdcmd@$0LKI@@@SAXPAH0@Z 00574bd0 f   command.obj
 0001:00173bf0       ?run@?$_stdcmd@$0LKH@@@SAXPAH0@Z 00574bf0 f   command.obj
 0001:00173c10       ?run@?$_stdcmd@$0LKG@@@SAXPAH@Z 00574c10 f   command.obj
 0001:00173c30       ?run@?$_stdcmd@$0LKF@@@SAXPAH0@Z 00574c30 f   command.obj
 0001:00173c50       ?run@?$_stdcmd@$0LKE@@@SAXPAH0@Z 00574c50 f   command.obj
 0001:00173c70       ?run@?$_stdcmd@$0LKD@@@SAXPAUtagval@@@Z 00574c70 f   command.obj
 0001:00173c90       ?run@?$_stdcmd@$0LKC@@@SAXPAH0@Z 00574c90 f   command.obj
 0001:00173cb0       ?run@?$_stdcmd@$0LKB@@@SAXPAM0@Z 00574cb0 f   command.obj
 0001:00173ce0       ?run@?$_stdcmd@$0LKA@@@SAXPAM0@Z 00574ce0 f   command.obj
 0001:00173d10       ?run@?$_stdcmd@$0LJP@@@SAXPAM0@Z 00574d10 f   command.obj
 0001:00173d40       ?run@?$_stdcmd@$0LJO@@@SAXPAM0@Z 00574d40 f   command.obj
 0001:00173d70       ?run@?$_stdcmd@$0LJN@@@SAXPAM0@Z 00574d70 f   command.obj
 0001:00173da0       ?run@?$_stdcmd@$0LJM@@@SAXPAM0@Z 00574da0 f   command.obj
 0001:00173dd0       ?run@?$_stdcmd@$0LJL@@@SAXPAH0@Z 00574dd0 f   command.obj
 0001:00173df0       ?run@?$_stdcmd@$0LJK@@@SAXPAH0@Z 00574df0 f   command.obj
 0001:00173e10       ?run@?$_stdcmd@$0LJJ@@@SAXPAH0@Z 00574e10 f   command.obj
 0001:00173e30       ?run@?$_stdcmd@$0LJI@@@SAXPAH0@Z 00574e30 f   command.obj
 0001:00173e50       ?run@?$_stdcmd@$0LJH@@@SAXPAH0@Z 00574e50 f   command.obj
 0001:00173e70       ?run@?$_stdcmd@$0LJG@@@SAXPAH0@Z 00574e70 f   command.obj
 0001:00173e90       ?run@?$_stdcmd@$0LJF@@@SAXPAM0@Z 00574e90 f   command.obj
 0001:00173ec0       ?run@?$_stdcmd@$0LJE@@@SAXPAM0@Z 00574ec0 f   command.obj
 0001:00173ef0       ?run@?$_stdcmd@$0LJD@@@SAXPAM0@Z 00574ef0 f   command.obj
 0001:00173f20       ?run@?$_stdcmd@$0LJC@@@SAXPAH0@Z 00574f20 f   command.obj
 0001:00173f40       ?run@?$_stdcmd@$0LJB@@@SAXPAH0@Z 00574f40 f   command.obj
 0001:00173f60       ?run@?$_stdcmd@$0LJA@@@SAXPAH0@Z 00574f60 f   command.obj
 0001:00173f80       ?sortlist@@YAXPADPAUident@@1PAI@Z 00574f80 f   command.obj
 0001:00174270       ?findfile_@@YAXPAD@Z       00575270 f   command.obj
 0001:00174380       ?run@?$_stdcmd@$0LDJ@@@SAXPAUident@@PAD1PAI@Z 00575380 f   command.obj
 0001:00174540       ?listsplice@@YAXPBD0PAH1@Z 00575540 f   command.obj
 0001:001747c0       ?run@?$_stdcmd@$0KPM@@@SAXPAD0@Z 005757c0 f   command.obj
 0001:00174940       ?listdel@@YAPADPBD0@Z      00575940 f   command.obj
 0001:00174ab0       ?run@?$_stdcmd@$0KOM@@@SAXPAD0@Z 00575ab0 f   command.obj
 0001:00174ae0       ?listincludes@@YAHPBD0H@Z  00575ae0 f   command.obj
 0001:00174d50       ?prettylist@@YAXPBD0@Z     00575d50 f   command.obj
 0001:00174fa0       ?listfilter@@YAXPAUident@@PBDPBI@Z 00575fa0 f   command.obj
 0001:00175230       ?run@?$_stdcmd@$0KLB@@@SAXPAUident@@PADPAI@Z 00576230 f   command.obj
 0001:00175250       ?run@?$_stdcmd@$0KLA@@@SAXPAUident@@PADPAI@Z 00576250 f   command.obj
 0001:00175270       ?looplistconc@@YAXPAUident@@PBDPBI_N@Z 00576270 f   command.obj
 0001:00175580       ?looplist@@YAXPAUident@@PBDPBI@Z 00576580 f   command.obj
 0001:00175710       ?listfind@@YAXPAUident@@PBDPBI@Z 00576710 f   command.obj
 0001:001759b0       ?run@?$_stdcmd@$0KGD@@@SAXPAD@Z 005769b0 f   command.obj
 0001:00175a20       ?sublist@@YAXPBDPAH11@Z    00576a20 f   command.obj
 0001:00175b90       ?substr@@YAXPADPAH11@Z     00576b90 f   command.obj
 0001:00175c20       ?at@@YAXPAUtagval@@H@Z     00576c20 f   command.obj
 0001:00175dc0       ?run@?$_stdcmd@$0KDK@@@SAXPAD@Z 00576dc0 f   command.obj
 0001:00175de0       ?listlen@@YAHPBD@Z         00576de0 f   command.obj
 0001:00176040       ?indexlist@@YAPADPBDH@Z    00577040 f   command.obj
 0001:001763e0       ?format@@YAXPAUtagval@@H@Z 005773e0 f   command.obj
 0001:00176610       ?run@?$_stdcmd@$0JNM@@@SAXPAUtagval@@@Z 00577610 f   command.obj
 0001:00176630       ?result@@YAXAAUtagval@@@Z  00577630 f   command.obj
 0001:00176650       ?run@?$_stdcmd@$0JMG@@@SAXPAUident@@PAUtagval@@@Z 00577650 f   command.obj
 0001:00176670       ?run@?$_stdcmd@$0JMF@@@SAXPAUident@@PAUtagval@@@Z 00577670 f   command.obj
 0001:00176690       ?append@@YAXPAUident@@PAUtagval@@_N@Z 00577690 f   command.obj
 0001:00176750       ?concatword@@YAXPAUtagval@@H@Z 00577750 f   command.obj
 0001:00176780       ?concat@@YAXPAUtagval@@H@Z 00577780 f   command.obj
 0001:001767b0       ?run@?$_stdcmd@$0JKF@@@SAXPAUident@@PAHPAI@Z 005777b0 f   command.obj
 0001:001767f0       ?run@?$_stdcmd@$0JKA@@@SAXPAUident@@PAHPAI@Z 005777f0 f   command.obj
 0001:00176830       ?loopconc@@YAPADPAUident@@HPAI_N@Z 00577830 f   command.obj
 0001:00176b30       ?run@?$_stdcmd@$0JIH@@@SAXPAI0@Z 00577b30 f   command.obj
 0001:00176ba0       ?run@?$_stdcmd@$0JIG@@@SAXPAUident@@PAHPAI2@Z 00577ba0 f   command.obj
 0001:00176cb0       ?run@?$_stdcmd@$0JHK@@@SAXPAUident@@PAHPAI@Z 00577cb0 f   command.obj
 0001:00176e50       ?run@?$_stdcmd@$0JEG@@@SAXPAUident@@PAUtagval@@PAI@Z 00577e50 f   command.obj
 0001:00176eb0       ?run@?$_stdcmd@$0JDI@@@SAXPAUtagval@@00@Z 00577eb0 f   command.obj
 0001:00176ee0       ?run@?$_stdcmd@$0JDH@@@SAXPAUtagval@@PAI1@Z 00577ee0 f   command.obj
 0001:00176f10       ?run@?$_stdcmd@$0JDG@@@SAXPAI@Z 00577f10 f   command.obj
 0001:00176f20       ?changedvars@@YAXXZ        00577f20 f   command.obj
 0001:001770b0       ?writecfg@@YAXPBD@Z        005780b0 f   command.obj
 0001:001775c0       ?validateblock@@YA_NPBD@Z  005785c0 f   command.obj
 0001:001776b0       ?run@?$_icmd_unescape@$0IMF@@@SAXPAD@Z 005786b0 f   command.obj
 0001:00177700       ?run@?$_icmd_escape@$0ILO@@@SAXPAD@Z 00578700 f   command.obj
 0001:00177750       ?run@?$_icmd_exec@$0IKH@@@SAXPADPAH@Z 00578750 f   command.obj
 0001:00177980       ?executeret@@YAXPBDAAUtagval@@@Z 00578980 f   command.obj
 0001:00177aa0       ?executeret@@YAXPBIAAUtagval@@@Z 00578aa0 f   command.obj
 0001:0017ab70       ?printvar@@YAXPAUident@@@Z 0057bb70 f   command.obj
 0001:0017ac20       ?printsvar@@YAXPAUident@@PBD@Z 0057bc20 f   command.obj
 0001:0017ac50       ?printfvar@@YAXPAUident@@M@Z 0057bc50 f   command.obj
 0001:0017aca0       ?printvar@@YAXPAUident@@H@Z 0057bca0 f   command.obj
 0001:0017ad20       ?freecode@@YAXPAI@Z        0057bd20 f   command.obj
 0001:0017ada0       ?compilecode@@YAPAIPBD@Z   0057bda0 f   command.obj
 0001:0017d8d0       ?unescapestring@@YAHPADPBD1@Z 0057e8d0 f   command.obj
 0001:0017d930       ?parsestring@@YAPBDPBD@Z   0057e930 f   command.obj
 0001:0017d9d0       ?addkeyword@@YA_NHPBD@Z    0057e9d0 f   command.obj
 0001:0017da10       ?setsvarchecked@@YAXPAUident@@PBD@Z 0057ea10 f   command.obj
 0001:0017db20       ?setfvarchecked@@YAXPAUident@@M@Z 0057eb20 f   command.obj
 0001:0017dcc0       ?clampfvar@@YAMPAUident@@MMM@Z 0057ecc0 f   command.obj
 0001:0017dd90       ?setvarchecked@@YAXPAUident@@H@Z 0057ed90 f   command.obj
 0001:0017de70       ?clampvar@@YAHPAUident@@HHH@Z 0057ee70 f   command.obj
 0001:0017ded0       ?run@?$_icmd_getalias@$0CFI@@@SAXPAD@Z 0057eed0 f   command.obj
 0001:0017df60       ?getalias@@YAPBDPBD@Z      0057ef60 f   command.obj
 0001:0017dfb0       ?run@?$_icmd_getfvarmax@$0CEA@@@SAXPAD@Z 0057efb0 f   command.obj
 0001:0017e000       ?run@?$_icmd_getfvarmin@$0CDP@@@SAXPAD@Z 0057f000 f   command.obj
 0001:0017e050       ?run@?$_icmd_getvarmax@$0CDO@@@SAXPAD@Z 0057f050 f   command.obj
 0001:0017e090       ?run@?$_icmd_getvarmin@$0CDN@@@SAXPAD@Z 0057f090 f   command.obj
 0001:0017e0d0       ?getfvarmax@@YAMPBD@Z      0057f0d0 f   command.obj
 0001:0017e100       ?getfvarmin@@YAMPBD@Z      0057f100 f   command.obj
 0001:0017e130       ?getvarmax@@YAHPBD@Z       0057f130 f   command.obj
 0001:0017e150       ?getvarmin@@YAHPBD@Z       0057f150 f   command.obj
 0001:0017e170       ?run@?$_icmd_alias@$0BOB@@@SAXPBDPAUtagval@@@Z 0057f170 f   command.obj
 0001:0017e190       ?alias@@YAXPBD0@Z          0057f190 f   command.obj
 0001:0017e420       ?resetvar@@YAXPAD@Z        0057f420 f   command.obj
 0001:0017e450       ?readident@@YAPAUident@@PBD@Z 0057f450 f   command.obj
 0001:0017e490       ?writeident@@YAPAUident@@PBDH@Z 0057f490 f   command.obj
 0001:0017e4f0       ?newident@@YAPAUident@@PBDH@Z 0057f4f0 f   command.obj
 0001:0017e640       ?run@?$_icmd_push@$0BFH@@@SAXPAUident@@PAUtagval@@PAI@Z 0057f640 f   command.obj
 0001:0017e770       ?run@?$_icmd_nodebug@$0BDD@@@SAXPAI@Z 0057f770 f   command.obj
 0001:0017ec30       ?clearoverride@@YAXAAUident@@@Z 0057fc30 f   command.obj
 0001:0017ecd0       ?clear_command@@YAXXZ      0057fcd0 f   command.obj
 0001:0017f130       ?stringret@@YAXPAD@Z       00580130 f   command.obj
 0001:0017f140       ?explodelist@@YAXPBDAAU?$vector@PAD@@H@Z 00580140 f   command.obj
 0001:0017f250       ?floatret@@YAXM@Z          00580250 f   command.obj
 0001:0017f270       ?floatstr@@YAPBDM@Z        00580270 f   command.obj
 0001:0017f2b0       ?executestr@@YAPADPBD@Z    005802b0 f   command.obj
 0001:0017f2c0       ?identexists@@YA_NPBD@Z    005802c0 f   command.obj
 0001:0017f2e0       ?intstr@@YAPBDH@Z          005802e0 f   command.obj
 0001:0017f330       ?escapestring@@YAPBDPBD@Z  00580330 f   command.obj
 0001:0017f5f0       ?escapeid@@YAPBDPBD@Z      005805f0 f   command.obj
 0001:0017f620       ?setsvar@@YAXPBD0_N@Z      00580620 f   command.obj
 0001:0017f6d0       ?getident@@YAPAUident@@PBD@Z 005806d0 f   command.obj
 0001:0017f6e0       ?setfvar@@YAXPBDM_N1@Z     005806e0 f   command.obj
 0001:0017f780       ?svariable@@YAPADPBD0PAPADP6AXXZH@Z 00580780 f   command.obj
 0001:0017f7f0       ?executebool@@YA_NPBI@Z    005807f0 f   command.obj
 0001:0017f860       ?execute@@YAHPBI@Z         00580860 f   command.obj
 0001:0017f900       ?clearoverrides@@YAXXZ     00580900 f   command.obj
 0001:0017fa50       ?clearsleep@@YAX_N@Z       00580a50 f   command.obj
 0001:0017fac0       ?setvar@@YAXPBDH_N1@Z      00580ac0 f   command.obj
 0001:0017fb60       ?execfile@@YA_NPBD_N@Z     00580b60 f   command.obj
 0001:0017fd00       ?execute@@YAHPBD@Z         00580d00 f   command.obj
 0001:0017fe90       ?fvariable@@YAMPBDMMMPAMP6AXXZH@Z 00580e90 f   command.obj
 0001:0017fef0       ?variable@@YAHPBDHHHPAHP6AXXZH@Z 00580ef0 f   command.obj
 0001:0017ff50       ?result@@YAXPBD@Z          00580f50 f   command.obj
 0001:0017ff90       ?intret@@YAXH@Z            00580f90 f   command.obj
 0001:0017ffa0       ?addcommand@@YA_NPBDP6AXXZ0@Z 00580fa0 f   command.obj
 0001:00180900       ?complete@@YAXPADHPBD@Z    00581900 f   console.obj
 0001:00180d70       ?addlistcomplete@@YAXPAD0@Z 00581d70 f   console.obj
 0001:00180d90       ?addfilecomplete@@YAXPAD00@Z 00581d90 f   console.obj
 0001:00180db0       ?addcomplete@@YAXPADH00@Z  00581db0 f   console.obj
 0001:001810e0       ?resetcomplete@@YAXXZ      005820e0 f   console.obj
 0001:00181170       ?clear_console@@YAXXZ      00582170 f   console.obj
 0001:001811b0       ?processkey@@YAXH_N@Z      005821b0 f   console.obj
 0001:00181230       ?processtextinput@@YAXPBDH@Z 00582230 f   console.obj
 0001:00181310       ?consolekey@@YA_NH_N@Z     00582310 f   console.obj
 0001:00181bb0       ?consoleinput@@YA_NPBDH@Z  00582bb0 f   console.obj
 0001:00181c60       ?execbind@@YAXAAUkeym@@_N@Z 00582c60 f   console.obj
 0001:00181d60       ?onrelease@@YAXPBD@Z       00582d60 f   console.obj
 0001:00181da0       ?history_@@YAXPAH@Z        00582da0 f   console.obj
 0001:00181de0       ?pasteconsole@@YAXXZ       00582de0 f   console.obj
 0001:00181e40       ?run@?$_icmd_saycommand@$0BBE@@@SAXPAD@Z 00582e40 f   console.obj
 0001:00181e60       ?inputcommand@@YAXPAD000@Z 00582e60 f   console.obj
 0001:00182020       ?run@?$_icmd_searcheditbinds@$0PN@@@SAXPAD@Z 00583020 f   console.obj
 0001:00182030       ?run@?$_icmd_searchspecbinds@$0PM@@@SAXPAD@Z 00583030 f   console.obj
 0001:00182040       ?run@?$_icmd_searchbinds@$0PL@@@SAXPAD@Z 00583040 f   console.obj
 0001:00182050       ?run@?$_icmd_geteditbind@$0PK@@@SAXPAD@Z 00583050 f   console.obj
 0001:001820b0       ?run@?$_icmd_getspecbind@$0PJ@@@SAXPAD@Z 005830b0 f   console.obj
 0001:00182110       ?run@?$_icmd_getbind@$0PI@@@SAXPAD@Z 00583110 f   console.obj
 0001:00182170       ?run@?$_icmd_editbind@$0PH@@@SAXPAD0@Z 00583170 f   console.obj
 0001:001821b0       ?run@?$_icmd_specbind@$0PG@@@SAXPAD0@Z 005831b0 f   console.obj
 0001:001821f0       ?run@?$_icmd_bind@$0PF@@@SAXPAD0@Z 005831f0 f   console.obj
 0001:00182230       ?bindkey@@YAXPAD0HPBD@Z    00583230 f   console.obj
 0001:00182300       ?getbind@@YAXPADH@Z        00583300 f   console.obj
 0001:00182360       ?findbind@@YAPAUkeym@@PAD@Z 00583360 f   console.obj
 0001:001823c0       ?searchbinds@@YAXPADH@Z    005833c0 f   console.obj
 0001:00182560       ?keymap@@YAXPAHPAD@Z       00583560 f   console.obj
 0001:00182610       ?drawconlines@@YAHHHHHHHHH@Z 00583610 f   console.obj
 0001:00182890       ?run@?$_icmd_clearconsole@$0GD@@@SAXXZ 00583890 f   console.obj
 0001:001828f0       ?run@?$_icmd_miniconskip@$0GB@@@SAXPAH@Z 005838f0 f   console.obj
 0001:00182910       ?run@?$_icmd_conskip@$0GA@@@SAXPAH@Z 00583910 f   console.obj
 0001:00182940       ?setconskip@@YAXAAHHH@Z    00583940 f   console.obj
 0001:001829e0       ?run@?$_icmd_toggleconsole@$0DG@@@SAXXZ 005839e0 f   console.obj
 0001:001829f0       ?conline@@YAXHPBD@Z        005839f0 f   console.obj
 0001:00182b00       ?var_maxcon@@YAXXZ         00583b00 f   console.obj
 0001:00182b70       ?conoutfv@@YAXHPBDPAD@Z    00583b70 f   console.obj
 0001:00182cc0       ?addreleaseaction@@YAPBDPAD@Z 00583cc0 f   console.obj
 0001:00182dd0       ?writebinds@@YAXPAUstream@@@Z 00583dd0 f   console.obj
 0001:00183030       ?writecompletions@@YAXPAUstream@@@Z 00584030 f   console.obj
 0001:00183350       ?rendercommand@@YAHHHH@Z   00584350 f   console.obj
 0001:00183460       ?renderconsole@@YAHHHH@Z   00584460 f   console.obj
 0001:00183810       ?getkeyname@@YAPBDH@Z      00584810 f   console.obj
 0001:00183840       ?conoutf@@YAXPBDZZ         00584840 f   console.obj
 0001:00183860       ?conoutf@@YAXHPBDZZ        00584860 f   console.obj
 0001:00183a80       ?getclockmillis@@YAHXZ     00584a80 f   main.obj
 0001:00183ad0       ?var_clockfix@@YAXXZ       00584ad0 f   main.obj
 0001:00183af0       ?var_clockerror@@YAXXZ     00584af0 f   main.obj
 0001:00183b70       ?getfps_@@YAXPAH@Z         00584b70 f   main.obj
 0001:00183be0       ?updatefpshistory@@YAXH@Z  00584be0 f   main.obj
 0001:00183c20       ?resetfpshistory@@YAXXZ    00584c20 f   main.obj
 0001:00183c40       ?stackdumper@@YAXIPAU_EXCEPTION_POINTERS@@@Z 00584c40 f   main.obj
 0001:00183e10       ?limitfps@@YAXAAHH@Z       00584e10 f   main.obj
 0001:00183ea0       ?swapbuffers@@YAX_N@Z      00584ea0 f   main.obj
 0001:00184000       ?checkinput@@YAXXZ         00585000 f   main.obj
 0001:00184b00       ?pushevent@@YAXABTSDL_Event@@@Z 00585b00 f   main.obj
 0001:00184b10       ?resetgl@@YAXXZ            00585b10 f   main.obj
 0001:00185570       ?setupscreen@@YAXXZ        00586570 f   main.obj
 0001:00185910       ?var_vsynctear@@YAXXZ      00586910 f   main.obj
 0001:00185920       ?var_vsync@@YAXXZ          00586920 f   main.obj
 0001:00185970       ?restorevsync@@YAXXZ       00586970 f   main.obj
 0001:001859c0       ?cleargamma@@YAXXZ         005869c0 f   main.obj
 0001:001859f0       ?restoregamma@@YAXXZ       005869f0 f   main.obj
 0001:00185a10       ?var_gamma@@YAXXZ          00586a10 f   main.obj
 0001:00185a90       ?run@?$_icmd_screenres@$0CBP@@@SAXPAH0@Z 00586a90 f   main.obj
 0001:00185bf0       ?screenres@@YAXHH@Z        00586bf0 f   main.obj
 0001:00185d50       ?var_fullscreendesktop@@YAXXZ 00586d50 f   main.obj
 0001:00185de0       ?resetfullscreen@@YAXXZ    00586de0 f   main.obj
 0001:00185e60       ?var_fullscreen@@YAXXZ     00586e60 f   main.obj
 0001:00185e70       ?setfullscreen@@YAX_N@Z    00586e70 f   main.obj
 0001:00185ef0       ?inputgrab@@YAX_N@Z        00586ef0 f   main.obj
 0001:00185fb0       ?bgquad@@YAXMMMMMMMM@Z     00586fb0 f   main.obj
 0001:00186180       ?restorebackground@@YAX_N@Z 00587180 f   main.obj
 0001:00186260       ?setbackgroundinfo@@YAXPBDPAUTexture@@00@Z 00587260 f   main.obj
 0001:001863d0       ?writeinitcfg@@YAXXZ       005873d0 f   main.obj
 0001:001864c0       ?var_fsaa@@YAXXZ           005874c0 f   main.obj
 0001:001864e0       ?var_depthbits@@YAXXZ      005874e0 f   main.obj
 0001:00186500       ?var_scr_h@@YAXXZ          00587500 f   main.obj
 0001:00186520       ?var_scr_w@@YAXXZ          00587520 f   main.obj
 0001:00186540       ?quit@@YAXXZ               00587540 f   main.obj
 0001:00186580       ?cleanup@@YAXXZ            00587580 f   main.obj
 0001:001867c0       ?initwarning@@YA_NPBDHH@Z  005877c0 f   main.obj
 0001:00186950       ?getfps@@YAXAAH00@Z        00587950 f   main.obj
 0001:00186aa0       ?textinput@@YAX_NH@Z       00587aa0 f   main.obj
 0001:00186ae0       ?fatal@@YAXPBDZZ           00587ae0 f   main.obj
 0001:00186bb0       _SDL_main                  00587bb0 f   main.obj
 0001:001873c0       ?keyrepeat@@YAX_NH@Z       005883c0 f   main.obj
 0001:001873e0       ?interceptkey@@YA_NH@Z     005883e0 f   main.obj
 0001:001874f0       ?renderprogress@@YAXMPBDI_N@Z 005884f0 f   main.obj
 0001:001881b0       ?renderbackground@@YAXPBDPAUTexture@@00_N2@Z 005891b0 f   main.obj
 0001:001894a0       ?guiprefabpreview@@YAXPADPAH0PAM1@Z 0058a4a0 f   menus.obj
 0001:00189570       ?guimodelpreview@@YAXPAD00PAMPAH@Z 0058a570 f   menus.obj
 0001:001896b0       ?guiplayerpreview@@YAXPAH00PADPAM0@Z 0058a6b0 f   menus.obj
 0001:00189730       ?run@?$_icmd_cleargui@$0CED@@@SAXPAH@Z 0058a730 f   menus.obj
 0001:00189750       ?notifywelcome@@YAXXZ      0058a750 f   menus.obj
 0001:00189790       ?guiservers@@YAXPAIPAH1@Z  0058a790 f   menus.obj
 0001:00189810       ?newgui@@YAXPAD000@Z       0058a810 f   menus.obj
 0001:001899f0       ?guialign@@YAXPAHPAI@Z     0058a9f0 f   menus.obj
 0001:00189a40       ?guilist@@YAXPAI@Z         0058aa40 f   menus.obj
 0001:00189a70       ?guikeyfield@@YAXPADPAH0@Z 0058aa70 f   menus.obj
 0001:00189af0       ?guieditor@@YAXPADPAH11@Z  0058aaf0 f   menus.obj
 0001:00189b60       ?guifield@@YAXPADPAH0@Z    0058ab60 f   menus.obj
 0001:00189be0       ?guibitfield@@YAXPAD0PAH0@Z 0058abe0 f   menus.obj
 0001:00189c90       ?guiradio@@YAXPAD0PAM0@Z   0058ac90 f   menus.obj
 0001:00189d20       ?guicheckbox@@YAXPAD0PAM10@Z 0058ad20 f   menus.obj
 0001:00189df0       ?guinameslider@@YAXPAD000@Z 0058adf0 f   menus.obj
 0001:0018a070       ?guilistslider@@YAXPAD00@Z 0058b070 f   menus.obj
 0001:0018a210       ?guislider@@YAXPADPAH10@Z  0058b210 f   menus.obj
 0001:0018a480       ?guicolumn@@YAXPAH@Z       0058b480 f   menus.obj
 0001:0018a4d0       ?guispring@@YAXPAH@Z       0058b4d0 f   menus.obj
 0001:0018a500       ?guistrut@@YAXPAMPAH@Z     0058b500 f   menus.obj
 0001:0018a530       ?guibar@@YAXXZ             0058b530 f   menus.obj
 0001:0018a580       ?guitab@@YAXPAD@Z          0058b580 f   menus.obj
 0001:0018a5a0       ?guititle@@YAXPAD@Z        0058b5a0 f   menus.obj
 0001:0018a5f0       ?guitext@@YAXPAD0@Z        0058b5f0 f   menus.obj
 0001:0018a670       ?guitextbox@@YAXPADPAH11@Z 0058b670 f   menus.obj
 0001:0018a7e0       ?guicolor@@YAXPAH@Z        0058b7e0 f   menus.obj
 0001:0018a860       ?guiimage@@YAXPAD0PAMPAH0@Z 0058b860 f   menus.obj
 0001:0018aa10       ?guibutton@@YAXPAD00@Z     0058ba10 f   menus.obj
 0001:0018aaf0       ?guimerge@@YAXPAI@Z        0058baf0 f   menus.obj
 0001:0018ab50       ?guinoautotab@@YAXPAI@Z    0058bb50 f   menus.obj
 0001:0018abb0       ?guistayopen@@YAXPAI@Z     0058bbb0 f   menus.obj
 0001:0018abd0       ?guionclear@@YAXPAD@Z      0058bbd0 f   menus.obj
 0001:0018ac10       ?clearguis@@YAXH@Z         0058bc10 f   menus.obj
 0001:0018ac60       ?hidegui@@YAXPBD@Z         0058bc60 f   menus.obj
 0001:0018ac80       ?showgui@@YAXPBD@Z         0058bc80 f   menus.obj
 0001:0018acd0       ?restoregui@@YAXH@Z        0058bcd0 f   menus.obj
 0001:0018ad20       ?pushgui@@YAXPAUmenu@@H@Z  0058bd20 f   menus.obj
 0001:0018ae60       ?removegui@@YAXPAUmenu@@@Z 0058be60 f   menus.obj
 0001:0018aec0       ?popgui@@YAXXZ             0058bec0 f   menus.obj
 0001:0018aee0       ?addchange@@YAXPBDH@Z      0058bee0 f   menus.obj
 0001:0018b070       ?clearchanges@@YAXH@Z      0058c070 f   menus.obj
 0001:0018b140       ?menuprocess@@YAXXZ        0058c140 f   menus.obj
 0001:0018b330       ?cleargui@@YAHH@Z          0058c330 f   menus.obj
 0001:0018b3f0       ?g3d_mainmenu@@YAXXZ       0058c3f0 f   menus.obj
 0001:0018b4b0       ?clearmainmenu@@YAXXZ      0058c4b0 f   menus.obj
 0001:0018b4f0       ?menuinfrontofplayer@@YA?AUvec@@XZ 0058c4f0 f   menus.obj
 0001:0018b5d0       ?run@?$_icmd_movierecording@$0EII@@@SAXXZ 0058c5d0 f   movie.obj
 0001:0018b5f0       ?movie@@YAXPAD@Z           0058c5f0 f   movie.obj
 0001:0018b640       ?drawhud@recorder@@YAXXZ   0058c640 f   movie.obj
 0001:0018b880       ?readbuffer@recorder@@YA_NXZ 0058c880 f   movie.obj
 0001:0018b9b0       ?readbuffer@recorder@@YAXAAUvideobuffer@1@I@Z 0058c9b0 f   movie.obj
 0001:0018c560       ?start@recorder@@YAXPBDHHH_N@Z 0058d560 f   movie.obj
 0001:0018c8c0       ?soundencoder@recorder@@YAXPAXPAEH@Z 0058d8c0 f   movie.obj
 0001:0018c9e0       ?videoencoder@recorder@@YAHPAX@Z 0058d9e0 f   movie.obj
 0001:0018ccc0       ?gettime@recorder@@YAHXZ   0058dcc0 f   movie.obj
 0001:0018cd20       ?calcquality@recorder@@YAMXZ 0058dd20 f   movie.obj
 0001:0018cd80       ?isrecording@recorder@@YA_NXZ 0058dd80 f   movie.obj
 0001:0018cd90       ?stop@recorder@@YAXXZ      0058dd90 f   movie.obj
 0001:0018cf10       ?cleanup@recorder@@YAXXZ   0058df10 f   movie.obj
 0001:0018cfc0       ?capture@recorder@@YAX_N@Z 0058dfc0 f   movie.obj
 0001:0018d1a0       ?updatemumble@@YAXXZ       0058e1a0 f   sound.obj
 0001:0018d320       ?closemumble@@YAXXZ        0058e320 f   sound.obj
 0001:0018d360       ?var_mumble@@YAXXZ         0058e360 f   sound.obj
 0001:0018d3b0       ?resetsound@@YAXXZ         0058e3b0 f   sound.obj
 0001:0018d500       ?sound@@YAXPAH@Z           0058e500 f   sound.obj
 0001:0018d520       ?stopsound@@YA_NHHH@Z      0058e520 f   sound.obj
 0001:0018d5d0       ?playsound@@YAHHPBUvec@@PAUextentity@@HHHHHH@Z 0058e5d0 f   sound.obj
 0001:0018d9c0       ?preloadmapsound@@YAXH@Z   0058e9c0 f   sound.obj
 0001:0018da10       ?preloadsound@@YAXH@Z      0058ea10 f   sound.obj
 0001:0018da60       ?syncchannels@@YAXXZ       0058ea60 f   sound.obj
 0001:0018daf0       ?reclaimchannels@@YAXXZ    0058eaf0 f   sound.obj
 0001:0018db60       ?updatechannel@@YA_NAAUsoundchannel@@@Z 0058eb60 f   sound.obj
 0001:0018dda0       ?checkmapsounds@@YAXXZ     0058eda0 f   sound.obj
 0001:0018dee0       ?stopmapsound@@YAXPAUextentity@@@Z 0058eee0 f   sound.obj
 0001:0018df60       ?stopmapsounds@@YAXXZ      0058ef60 f   sound.obj
 0001:0018dfe0       ?resetchannels@@YAXXZ      0058efe0 f   sound.obj
 0001:0018e040       ?mapsoundreset@@YAXXZ      0058f040 f   sound.obj
 0001:0018e050       ?soundreset@@YAXXZ         0058f050 f   sound.obj
 0001:0018e060       ?run@?$_icmd_nummapsounds@$0BJC@@@SAXXZ 0058f060 f   sound.obj
 0001:0018e080       ?run@?$_icmd_numsounds@$0BJB@@@SAXXZ 0058f080 f   sound.obj
 0001:0018e0a0       ?altmapsound@@YAXPADPAH@Z  0058f0a0 f   sound.obj
 0001:0018e0d0       ?altsound@@YAXPADPAH@Z     0058f0d0 f   sound.obj
 0001:0018e100       ?mapsound@@YAXPADPAH1@Z    0058f100 f   sound.obj
 0001:0018e140       ?registersound@@YAXPADPAH@Z 0058f140 f   sound.obj
 0001:0018e1c0       ?load@soundsample@@QAE_N_N@Z 0058f1c0 f   sound.obj
 0001:0018e2e0       ?var_soundpack@@YAXXZ      0058f2e0 f   sound.obj
 0001:0018e3a0       ?startmusic@@YAXPAD0@Z     0058f3a0 f   sound.obj
 0001:0018e4f0       ?loadmusic@@YAPAU_Mix_Music@@PBD@Z 0058f4f0 f   sound.obj
 0001:0018e5f0       ?musicdone@@YAXXZ          0058f5f0 f   sound.obj
 0001:0018e6a0       ?var_soundbufferlen@@YAXXZ 0058f6a0 f   sound.obj
 0001:0018e6c0       ?var_soundfreq@@YAXXZ      0058f6c0 f   sound.obj
 0001:0018e6e0       ?var_soundchans@@YAXXZ     0058f6e0 f   sound.obj
 0001:0018e700       ?stopmusic@@YAXXZ          0058f700 f   sound.obj
 0001:0018e7b0       ?setmusicvol@@YAXH@Z       0058f7b0 f   sound.obj
 0001:0018e7f0       ?var_musicvol@@YAXXZ       0058f7f0 f   sound.obj
 0001:0018e830       ?var_soundvol@@YAXXZ       0058f830 f   sound.obj
 0001:0018e8c0       ?stopchannels@@YAXXZ       0058f8c0 f   sound.obj
 0001:0018e930       ?syncchannel@@YAXAAUsoundchannel@@@Z 0058f930 f   sound.obj
 0001:0018e980       ?freechannel@@YAXH@Z       0058f980 f   sound.obj
 0001:0018e9b0       ?newchannel@@YAAAUsoundchannel@@HPAUsoundslot@@PBUvec@@PAUextentity@@HH@Z 0058f9b0 f   sound.obj
 0001:0018ebd0       ?stopsounds@@YAXXZ         0058fbd0 f   sound.obj
 0001:0018ec40       ?initsound@@YAXXZ          0058fc40 f   sound.obj
 0001:0018ece0       ?initmumble@@YAXXZ         0058fce0 f   sound.obj
 0001:0018eda0       ?updatesounds@@YAXXZ       0058fda0 f   sound.obj
 0001:0018f1e0       ?clear_sound@@YAXXZ        005901e0 f   sound.obj
 0001:0018f2a0       ?preloadmapsounds@@YAXXZ   005902a0 f   sound.obj
 0001:0018f320       ?clearmapsounds@@YAXXZ     00590320 f   sound.obj
 0001:0018f370       ?checkchallenge@@YA_NPBDPAX@Z 00590370 f   crypto.obj
 0001:0018f3c0       ?freechallenge@@YAXPAX@Z   005903c0 f   crypto.obj
 0001:0018f3d0       ?genchallenge@@YAPAXPAXPBXHAAU?$vector@D@@@Z 005903d0 f   crypto.obj
 0001:0018f590       ?freepubkey@@YAXPAX@Z      00590590 f   crypto.obj
 0001:0018f5a0       ?parsepubkey@@YAPAXPBD@Z   005905a0 f   crypto.obj
 0001:0018f600       ?answerchallenge@@YAXPBD0AAU?$vector@D@@@Z 00590600 f   crypto.obj
 0001:0018f670       ?hashstring@@YA_NPBDPADH@Z 00590670 f   crypto.obj
 0001:0018f780       ?genprivkey@@YAXPBDAAU?$vector@D@@1@Z 00590780 f   crypto.obj
 0001:0018fa40       ?hash@tiger@@YAXPBEHAAThashval@1@@Z 00590a40 f   crypto.obj
 0001:0018fb70       ?gensboxes@tiger@@YAXXZ    00590b70 f   crypto.obj
 0001:0018fd30       ?compress@tiger@@YAXPB_KQA_K@Z 00590d30 f   crypto.obj
 0001:00190780       ?linecylinderintersect@@YA_NABUvec@@000MAAM@Z 00591780 f   geom.obj
 0001:00190c60       ?invert@matrix4@@QAE_NABU1@N@Z 00591c60 f   geom.obj
 0001:00191360       ?rayboxintersect@@YA_NABUvec@@000AAMAAH@Z 00592360 f   geom.obj
 0001:00191760       ?multidraw@gle@@YAXXZ      00592760 f   glemu.obj
 0001:00191800       ?setup@gle@@YAXXZ          00592800 f   glemu.obj
 0001:00191870       ?cleanup@gle@@YAXXZ        00592870 f   glemu.obj
 0001:001918f0       ?enablequads@gle@@YAXXZ    005928f0 f   glemu.obj
 0001:001919b0       ?drawquads@gle@@YAXHH@Z    005929b0 f   glemu.obj
 0001:00191a20       ?disablequads@gle@@YAXXZ   00592a20 f   glemu.obj
 0001:00191a50       ?begin@gle@@YAXIH@Z        00592a50 f   glemu.obj
 0001:00191b20       ?defattrib@gle@@YAXHHH@Z   00592b20 f   glemu.obj
 0001:00191d50       ?begin@gle@@YAXI@Z         00592d50 f   glemu.obj
 0001:00191d60       ?end@gle@@YAHXZ            00592d60 f   glemu.obj
 0001:00192220       ?forcedisable@gle@@YAXXZ   00593220 f   glemu.obj
 0001:00192360       ?opentempfile@@YAPAUstream@@PBD0@Z 00593360 f   stream.obj
 0001:00192420       ?openrawfile@@YAPAUstream@@PBD0@Z 00593420 f   stream.obj
 0001:001924e0       ?printf@stream@@UAAIPBDZZ  005934e0 f   stream.obj
 0001:001925b0       ?getline@stream@@UAE_NPADI@Z 005935b0 f   stream.obj
 0001:00192620       ?size@stream@@UAE_JXZ      00593620 f   stream.obj
 0001:00192770       ?listdir@@YA_NPBD_N0AAU?$vector@PAD@@@Z 00593770 f   stream.obj
 0001:00192980       ?subhomedir@@YA_NPADHPBD@Z 00593980 f   stream.obj
 0001:00192a50       ?fixpackagedir@@YAIPAD@Z   00593a50 f   stream.obj
 0001:00192a80       ?sethomedir@@YAPBDPBD@Z    00593a80 f   stream.obj
 0001:00192b40       ?addpackagedir@@YAPBDPBD@Z 00593b40 f   stream.obj
 0001:00192e90       ?decodeutf8@@YAIPAEIPBEIPAI@Z 00593e90 f   stream.obj
 0001:00193090       ?loadfile@@YAPADPBDPAI_N@Z 00594090 f   stream.obj
 0001:00193190       ?listfiles@@YAHPBD0AAU?$vector@PAD@@@Z 00594190 f   stream.obj
 0001:00193330       ?rwops@stream@@QAEPAUSDL_RWops@@XZ 00594330 f   stream.obj
 0001:00193360       ?fileexists@@YA_NPBD0@Z    00594360 f   stream.obj
 0001:001933a0       ?createdir@@YA_NPBD@Z      005943a0 f   stream.obj
 0001:001933f0       ?parentdir@@YAPBDPBD@Z     005943f0 f   stream.obj
 0001:00193440       ?openutf8file@@YAPAUstream@@PBD0PAU1@@Z 00594440 f   stream.obj
 0001:00193590       ?path@@YAPADPBD_N@Z        00594590 f   stream.obj
 0001:001935d0       ?encodeutf8@@YAIPAEIPBEIPAI@Z 005945d0 f   stream.obj
 0001:00193740       ?findfile@@YAPBDPBD0@Z     00594740 f   stream.obj
 0001:001939a0       ?openfile@@YAPAUstream@@PBD0@Z 005949a0 f   stream.obj
 0001:001939c0       ?makerelpath@@YAPADPBD000@Z 005949c0 f   stream.obj
 0001:00193b20       ?path@@YAPADPAD@Z          00594b20 f   stream.obj
 0001:00193c60       ?opengzfile@@YAPAUstream@@PBD0PAU1@H@Z 00594c60 f   stream.obj
 0001:00194630       ?parse@ipmask@@QAEXPBD@Z   00595630 f   tools.obj
 0001:00194710       ?sendstring@@YAXPBDAAU?$databuf@E@@@Z 00595710 f   tools.obj
 0001:00194740       ?putfloat@@YAXAAU?$databuf@E@@M@Z 00595740 f   tools.obj
 0001:00194790       ?putuint@@YAXAAUpacketbuf@@H@Z 00595790 f   tools.obj
 0001:00194870       ?putuint@@YAXAAU?$databuf@E@@H@Z 00595870 f   tools.obj
 0001:00194880       ?seedMT@@YAXI@Z            00595880 f   tools.obj
 0001:001948c0       ??3@YAXPAX@Z               005958c0 f   tools.obj
 0001:00194900       ?sendstring@@YAXPBDAAU?$vector@E@@@Z 00595900 f   tools.obj
 0001:00194930       ?putfloat@@YAXAAU?$vector@E@@M@Z 00595930 f   tools.obj
 0001:00194980       ?putint@@YAXAAU?$vector@E@@H@Z 00595980 f   tools.obj
 0001:00194990       ?putuint@@YAXAAU?$vector@E@@H@Z 00595990 f   tools.obj
 0001:001949a0       ?getfloat@@YAMAAU?$databuf@E@@@Z 005959a0 f   tools.obj
 0001:001949e0       ?getuint@@YAHAAU?$databuf@E@@@Z 005959e0 f   tools.obj
 0001:00194ab0       ?getint@@YAHAAU?$databuf@E@@@Z 00595ab0 f   tools.obj
 0001:00194bb0       ?putint@@YAXAAU?$databuf@E@@H@Z 00595bb0 f   tools.obj
 0001:00194bc0       ?getstring@@YAXPADAAU?$databuf@E@@I@Z 00595bc0 f   tools.obj
 0001:00194c90       ?filtertext@@YAXPADPBD_N2I@Z 00595c90 f   tools.obj
 0001:00194cf0       ?putint@@YAXAAUpacketbuf@@H@Z 00595cf0 f   tools.obj
 0001:00194db0       ?putfloat@@YAXAAUpacketbuf@@M@Z 00595db0 f   tools.obj
 0001:00194dd0       ?sendstring@@YAXPBDAAUpacketbuf@@@Z 00595dd0 f   tools.obj
 0001:00194e50       ?randomMT@@YAIXZ           00595e50 f   tools.obj
 0001:00194f30       ??_U@YAPAXI_N@Z            00595f30 f   tools.obj
 0001:00194f40       ??2@YAPAXI@Z               00595f40 f   tools.obj
 0001:00194f60       ??_U@YAPAXI@Z              00595f60 f   tools.obj
 0001:00194f80       ??_V@YAXPAX@Z              00595f80 f   tools.obj
 0001:001950c0       ?run@?$_icmd_removezip@$0CEK@@@SAXPBD@Z 005960c0 f   zip.obj
 0001:001950d0       ?run@?$_icmd_addzip@$0CEJ@@@SAXPBD00@Z 005960d0 f   zip.obj
 0001:00195100       ?removezip@@YA_NPBD@Z      00596100 f   zip.obj
 0001:00195300       ?addzip@@YA_NPBD00@Z       00596300 f   zip.obj
 0001:00195ac0       ?findzip@@YAPAUziparchive@@PBD@Z 00596ac0 f   zip.obj
 0001:00196010       ?listzipfiles@@YAHPBD0AAU?$vector@PAD@@@Z 00597010 f   zip.obj
 0001:001962b0       ?findzipfile@@YA_NPBD@Z    005972b0 f   zip.obj
 0001:00196340       ?openzipfile@@YAPAUstream@@PBD0@Z 00597340 f   zip.obj
 0001:00196600       ?render@ai@@YAXXZ          00597600 f   ai.obj
 0001:00196b70       ?drawroute@ai@@YAXPAUfpsent@@M@Z 00597b70 f   ai.obj
 0001:00196ea0       ?think@ai@@YAXPAUfpsent@@_N@Z 00597ea0 f   ai.obj
 0001:00197410       ?avoid@ai@@YAXXZ           00598410 f   ai.obj
 0001:001975b0       ?logic@ai@@YAXPAUfpsent@@AAUaistate@1@_N@Z 005985b0 f   ai.obj
 0001:00197810       ?timeouts@ai@@YAXPAUfpsent@@AAUaistate@1@@Z 00598810 f   ai.obj
 0001:00197a30       ?request@ai@@YA_NPAUfpsent@@AAUaistate@1@@Z 00598a30 f   ai.obj
 0001:00197bb0       ?hasrange@ai@@YA_NPAUfpsent@@0H@Z 00598bb0 f   ai.obj
 0001:00197c80       ?process@ai@@YAHPAUfpsent@@AAUaistate@1@@Z 00598c80 f   ai.obj
 0001:00198940       ?lockon@ai@@YA_NPAUfpsent@@0M@Z 00599940 f   ai.obj
 0001:001989f0       ?scaleyawpitch@ai@@YAXAAM0MMMM@Z 005999f0 f   ai.obj
 0001:00198b90       ?getyawpitch@ai@@YAXABUvec@@0AAM1@Z 00599b90 f   ai.obj
 0001:00198c60       ?fixrange@ai@@YAXAAM0@Z    00599c60 f   ai.obj
 0001:00198ce0       ?fixfullrange@ai@@YAXAAM00_N@Z 00599ce0 f   ai.obj
 0001:00198d80       ?jumpto@ai@@YAXPAUfpsent@@AAUaistate@1@ABUvec@@@Z 00599d80 f   ai.obj
 0001:00198fa0       ?hunt@ai@@YA_NPAUfpsent@@AAUaistate@1@@Z 00599fa0 f   ai.obj
 0001:00199080       ?checkroute@ai@@YA_NPAUfpsent@@H@Z 0059a080 f   ai.obj
 0001:00199310       ?anynode@ai@@YA_NPAUfpsent@@AAUaistate@1@H@Z 0059a310 f   ai.obj
 0001:00199450       ?randomlink@ai@@YAHPAUfpsent@@H@Z 0059a450 f   ai.obj
 0001:001995f0       ?wpspot@ai@@YAHPAUfpsent@@H_N@Z 0059a5f0 f   ai.obj
 0001:00199700       ?closenode@ai@@YAHPAUfpsent@@@Z 0059a700 f   ai.obj
 0001:001998b0       ?dopursue@ai@@YAHPAUfpsent@@AAUaistate@1@@Z 0059a8b0 f   ai.obj
 0001:00199a40       ?dointerest@ai@@YAHPAUfpsent@@AAUaistate@1@@Z 0059aa40 f   ai.obj
 0001:00199bf0       ?dodefend@ai@@YAHPAUfpsent@@AAUaistate@1@@Z 0059abf0 f   ai.obj
 0001:00199d60       ?dowait@ai@@YAHPAUfpsent@@AAUaistate@1@@Z 0059ad60 f   ai.obj
 0001:00199e20       ?check@ai@@YA_NPAUfpsent@@AAUaistate@1@@Z 0059ae20 f   ai.obj
 0001:00199e50       ?itemspawned@ai@@YAXH@Z    0059ae50 f   ai.obj
 0001:0019a060       ?killed@ai@@YAXPAUfpsent@@0@Z 0059b060 f   ai.obj
 0001:0019a0d0       ?spawned@ai@@YAXPAUfpsent@@@Z 0059b0d0 f   ai.obj
 0001:0019a200       ?setup@ai@@YAXPAUfpsent@@@Z 0059b200 f   ai.obj
 0001:0019a330       ?findorientation@ai@@YAXAAUvec@@MM0@Z 0059b330 f   ai.obj
 0001:0019a430       ?damaged@ai@@YAXPAUfpsent@@0@Z 0059b430 f   ai.obj
 0001:0019a570       ?find@ai@@YA_NPAUfpsent@@AAUaistate@1@_N@Z 0059b570 f   ai.obj
 0001:0019a920       ?parseinterests@ai@@YA_NPAUfpsent@@AAUaistate@1@AAU?$vector@Uinterest@ai@@@@_N3@Z 0059b920 f   ai.obj
 0001:0019aad0       ?items@ai@@YAXPAUfpsent@@AAUaistate@1@AAU?$vector@Uinterest@ai@@@@_N@Z 0059bad0 f   ai.obj
 0001:0019ad20       ?assist@ai@@YAXPAUfpsent@@AAUaistate@1@AAU?$vector@Uinterest@ai@@@@_N3@Z 0059bd20 f   ai.obj
 0001:0019ae50       ?hasgoodammo@ai@@YA_NPAUfpsent@@@Z 0059be50 f   ai.obj
 0001:0019ae70       ?isgoodammo@ai@@YAHH@Z     0059be70 f   ai.obj
 0001:0019ae80       ?target@ai@@YA_NPAUfpsent@@AAUaistate@1@H_NM@Z 0059be80 f   ai.obj
 0001:0019b240       ?violence@ai@@YA_NPAUfpsent@@AAUaistate@1@0H@Z 0059c240 f   ai.obj
 0001:0019b340       ?defend@ai@@YA_NPAUfpsent@@AAUaistate@1@ABUvec@@MMH@Z 0059c340 f   ai.obj
 0001:0019b5e0       ?patrol@ai@@YA_NPAUfpsent@@AAUaistate@1@ABUvec@@MMH_N@Z 0059c5e0 f   ai.obj
 0001:0019b760       ?enemy@ai@@YA_NPAUfpsent@@AAUaistate@1@ABUvec@@MH@Z 0059c760 f   ai.obj
 0001:0019b950       ?badhealth@ai@@YA_NPAUfpsent@@@Z 0059c950 f   ai.obj
 0001:0019b980       ?randomnode@ai@@YA_NPAUfpsent@@AAUaistate@1@MM@Z 0059c980 f   ai.obj
 0001:0019b9d0       ?randomnode@ai@@YA_NPAUfpsent@@AAUaistate@1@ABUvec@@MM@Z 0059c9d0 f   ai.obj
 0001:0019bc30       ?makeroute@ai@@YA_NPAUfpsent@@AAUaistate@1@ABUvec@@_NH@Z 0059cc30 f   ai.obj
 0001:0019bc60       ?makeroute@ai@@YA_NPAUfpsent@@AAUaistate@1@H_NH@Z 0059cc60 f   ai.obj
 0001:0019bce0       ?checkothers@ai@@YA_NAAU?$vector@H@@PAUfpsent@@HHH_NPAH@Z 0059cce0 f   ai.obj
 0001:0019be00       ?update@ai@@YAXXZ          0059ce00 f   ai.obj
 0001:0019c0d0       ?init@ai@@YAXPAUfpsent@@HHHHHPBD1@Z 0059d0d0 f   ai.obj
 0001:0019c620       ?destroy@ai@@YAXPAUfpsent@@@Z 0059d620 f   ai.obj
 0001:0019c640       ?create@ai@@YAXPAUfpsent@@@Z 0059d640 f   ai.obj
 0001:0019c760       ?getaimpos@ai@@YA?AUvec@@PAUfpsent@@0@Z 0059d760 f   ai.obj
 0001:0019c930       ?hastarget@ai@@YA_NPAUfpsent@@AAUaistate@1@0MMM@Z 0059d930 f   ai.obj
 0001:0019cb00       ?canshoot@ai@@YA_NPAUfpsent@@0@Z 0059db00 f   ai.obj
 0001:0019cbe0       ?cansee@ai@@YA_NPAUfpsent@@AAUvec@@11@Z 0059dbe0 f   ai.obj
 0001:0019cc60       ?getsight@ai@@YA_NAAUvec@@MM00MMM@Z 0059dc60 f   ai.obj
 0001:0019ce00       ?targetable@ai@@YA_NPAUfpsent@@0@Z 0059de00 f   ai.obj
 0001:0019ce60       ?weaprange@ai@@YA_NPAUfpsent@@HM@Z 0059de60 f   ai.obj
 0001:0019ceb0       ?weapmaxdist@ai@@YAMH@Z    0059deb0 f   ai.obj
 0001:0019ced0       ?weapmindist@ai@@YAMH@Z    0059ded0 f   ai.obj
 0001:0019cef0       ?canmove@ai@@YA_NPAUfpsent@@@Z 0059def0 f   ai.obj
 0001:0019cf00       ?viewfieldy@ai@@YAMH@Z     0059df00 f   ai.obj
 0001:0019cf40       ?viewfieldx@ai@@YAMH@Z     0059df40 f   ai.obj
 0001:0019cf70       ?viewdist@ai@@YAMH@Z       0059df70 f   ai.obj
 0001:0019cfb0       ?run@?$_icmd_botbalance@$0BD@@ai@@SAXPAH@Z 0059dfb0 f   ai.obj
 0001:0019cfd0       ?run@?$_icmd_botlimit@$0BC@@ai@@SAXPAH@Z 0059dfd0 f   ai.obj
 0001:0019cff0       ?run@?$_icmd_delbot@$0BB@@ai@@SAXXZ 0059dff0 f   ai.obj
 0001:0019d000       ?run@?$_icmd_addbot@$0BA@@ai@@SAXPAD@Z 0059e000 f   ai.obj
 0001:0019d060       ?checktriggers@entities@@YAXXZ 0059e060 f   entities.obj
 0001:0019d430       ?doleveltrigger@entities@@YAXHH@Z 0059e430 f   entities.obj
 0001:0019d480       ?run@?$_icmd_trigger@$0BPG@@entities@@SAXPAH0@Z 0059e480 f   entities.obj
 0001:0019d4b0       ?unlocktriggers@entities@@YAXHHH@Z 0059e4b0 f   entities.obj
 0001:0019d570       ?resettriggers@entities@@YAXXZ 0059e570 f   entities.obj
 0001:0019d670       ?setspawn@entities@@YAXH_N@Z 0059e670 f   entities.obj
 0001:0019d690       ?spawnitems@entities@@YAX_N@Z 0059e690 f   entities.obj
 0001:0019d750       ?resetspawns@entities@@YAXXZ 0059e750 f   entities.obj
 0001:0019d780       ?putitems@entities@@YAXAAUpacketbuf@@@Z 0059e780 f   entities.obj
 0001:0019d910       ?trypickup@entities@@YAXHPAUfpsent@@@Z 0059e910 f   entities.obj
 0001:0019db50       ?teleport@entities@@YAXHPAUfpsent@@@Z 0059eb50 f   entities.obj
 0001:0019dcf0       ?jumppadeffects@entities@@YAXPAUfpsent@@H_N@Z 0059ecf0 f   entities.obj
 0001:0019dfb0       ?teleporteffects@entities@@YAXPAUfpsent@@HH_N@Z 0059efb0 f   entities.obj
 0001:0019e360       ?pickupeffects@entities@@YAXHPAUfpsent@@@Z 0059f360 f   entities.obj
 0001:0019e4e0       ?repammo@entities@@YAXPAUfpsent@@H_N@Z 0059f4e0 f   entities.obj
 0001:0019e530       ?addammo@entities@@YAXHAAH_N@Z 0059f530 f   entities.obj
 0001:0019e560       ?renderentities@entities@@YAXXZ 0059f560 f   entities.obj
 0001:0019e700       ?preloadentities@entities@@YAXXZ 0059f700 f   entities.obj
 0001:0019e920       ?entmdlname@entities@@YAPBDH@Z 0059f920 f   entities.obj
 0001:0019e930       ?itemicon@entities@@YAHH@Z 0059f930 f   entities.obj
 0001:0019e960       ?checkquad@entities@@YAXHPAUfpsent@@@Z 0059f960 f   entities.obj
 0001:0019e9d0       ?checkitems@entities@@YAXPAUfpsent@@@Z 0059f9d0 f   entities.obj
 0001:0019ead0       ?animatemapmodel@entities@@YAXABUextentity@@AAH1@Z 0059fad0 f   entities.obj
 0001:0019eb30       ?readent@entities@@YAXAAUentity@@PADH@Z 0059fb30 f   entities.obj
 0001:0019ebd0       ?extraentinfosize@entities@@YAHXZ 0059fbd0 f   entities.obj
 0001:0019ebe0       ?writeent@entities@@YAXAAUentity@@PAD@Z 0059fbe0 f   entities.obj
 0001:0019ebf0       ?entname@entities@@YAPBDH@Z 0059fbf0 f   entities.obj
 0001:0019ec10       ?entnameinfo@entities@@YAPBDAAUentity@@@Z 0059fc10 f   entities.obj
 0001:0019ec20       ?mayattach@entities@@YA_NAAUextentity@@@Z 0059fc20 f   entities.obj
 0001:0019ec30       ?attachent@entities@@YA_NAAUextentity@@0@Z 0059fc30 f   entities.obj
 0001:0019ec40       ?newentity@entities@@YAPAUextentity@@XZ 0059fc40 f   entities.obj
 0001:0019ece0       ?editent@entities@@YAXH_N@Z 0059fce0 f   entities.obj
 0001:0019ed90       ?entmodel@entities@@YAPBDABUentity@@@Z 0059fd90 f   entities.obj
 0001:0019edd0       ?entradius@entities@@YAXAAUextentity@@_N@Z 0059fdd0 f   entities.obj
 0001:0019f090       ?fixentity@entities@@YAXAAUextentity@@@Z 005a0090 f   entities.obj
 0001:0019f100       ?deleteentity@entities@@YAXPAUextentity@@@Z 005a0100 f   entities.obj
 0001:0019f110       ?printent@entities@@YA_NAAUextentity@@PADH@Z 005a0110 f   entities.obj
 0001:0019f120       ?clearents@entities@@YAXXZ 005a0120 f   entities.obj
 0001:0019f160       ?dropheight@entities@@YAMAAUentity@@@Z 005a0160 f   entities.obj
 0001:0019f180       ?getents@entities@@YAAAU?$vector@PAUextentity@@@@XZ 005a0180 f   entities.obj
 0001:0019f2f0       ?run@?$_icmd_isdead@$0EGF@@game@@SAXPAH@Z 005a02f0 f   fps.obj
 0001:0019f340       ?run@?$_icmd_islagged@$0EFP@@game@@SAXPAH@Z 005a0340 f   fps.obj
 0001:0019f390       ?mastermodeicon@game@@YAPBDHPBD@Z 005a0390 f   fps.obj
 0001:0019f3b0       ?mastermodecolor@game@@YAPBDHPBD@Z 005a03b0 f   fps.obj
 0001:0019f3d0       ?drawhudicons@game@@YAXPAUfpsent@@@Z 005a03d0 f   fps.obj
 0001:0019f5c0       ?drawhealth@game@@YAXPAUfpsent@@MMMM@Z 005a05c0 f   fps.obj
 0001:0019f9f0       ?drawicon@game@@YAXHMMM@Z  005a09f0 f   fps.obj
 0001:0019fc50       ?run@?$_icmd_kill@$0DBI@@game@@SAXXZ 005a0c50 f   fps.obj
 0001:0019fc60       ?run@?$_icmd_suicide@$0DBH@@game@@SAXXZ 005a0c60 f   fps.obj
 0001:0019fc70       ?teamcolor@game@@YAPBDPBD00@Z 005a0c70 f   fps.obj
 0001:0019fd50       ?teamcolor@game@@YAPBDPBD_N0@Z 005a0d50 f   fps.obj
 0001:0019fdf0       ?teamcolorname@game@@YAPBDPAUfpsent@@PBD@Z 005a0df0 f   fps.obj
 0001:0019fe70       ?duplicatename@game@@YA_NPAUfpsent@@PBD1@Z 005a0e70 f   fps.obj
 0001:0019fef0       ?startgame@game@@YAXXZ     005a0ef0 f   fps.obj
 0001:001a0230       ?clearclients@game@@YAX_N@Z 005a1230 f   fps.obj
 0001:001a04f0       ?clientdisconnected@game@@YAXH_N@Z 005a14f0 f   fps.obj
 0001:001a0740       ?run@?$_icmd_gettotalshots@$0CAN@@game@@SAXXZ 005a1740 f   fps.obj
 0001:001a0760       ?run@?$_icmd_gettotaldamage@$0CAM@@game@@SAXXZ 005a1760 f   fps.obj
 0001:001a0780       ?run@?$_icmd_getaccuracy@$0CAL@@game@@SAXXZ 005a1780 f   fps.obj
 0001:001a07c0       ?run@?$_icmd_getdeaths@$0CAK@@game@@SAXXZ 005a17c0 f   fps.obj
 0001:001a07e0       ?run@?$_icmd_getflags@$0CAJ@@game@@SAXXZ 005a17e0 f   fps.obj
 0001:001a0800       ?run@?$_icmd_getfrags@$0CAI@@game@@SAXXZ 005a1800 f   fps.obj
 0001:001a0820       ?timeupdate@game@@YAXH@Z   005a1820 f   fps.obj
 0001:001a0a40       ?killed@game@@YAXPAUfpsent@@0H@Z 005a1a40 f   fps.obj
 0001:001a0d90       ?deathstate@game@@YAXPAUfpsent@@_N@Z 005a1d90 f   fps.obj
 0001:001a0ee0       ?damaged@game@@YAXHPAUfpsent@@0H_N@Z 005a1ee0 f   fps.obj
 0001:001a1260       ?respawn@game@@YAXXZ       005a2260 f   fps.obj
 0001:001a1410       ?spawnplayer@game@@YAXPAUfpsent@@@Z 005a2410 f   fps.obj
 0001:001a1490       ?checkslowmo@game@@YAXXZ   005a2490 f   fps.obj
 0001:001a1550       ?var_slowmosp@game@@YAXXZ  005a2550 f   fps.obj
 0001:001a15b0       ?otherplayers@game@@YAXH@Z 005a25b0 f   fps.obj
 0001:001a1970       ?predictplayer@game@@YAXPAUfpsent@@_N@Z 005a2970 f   fps.obj
 0001:001a1af0       ?hudplayer@game@@YAPAUfpsent@@XZ 005a2af0 f   fps.obj
 0001:001a1b50       ?followingplayer@game@@YAPAUfpsent@@XZ 005a2b50 f   fps.obj
 0001:001a1b90       ?stopfollowing@game@@YAXXZ 005a2b90 f   fps.obj
 0001:001a1bc0       ?respawnself@game@@YAXXZ   005a2bc0 f   fps.obj
 0001:001a1c80       ?spawnstate@game@@YAPAUfpsent@@PAU2@@Z 005a2c80 f   fps.obj
 0001:001a1ca0       ?run@?$_icmd_nextfollow@$0EM@@game@@SAXPAH@Z 005a2ca0 f   fps.obj
 0001:001a1cc0       ?nextfollow@game@@YAXH@Z   005a2cc0 f   fps.obj
 0001:001a1d80       ?follow@game@@YAXPAD@Z     005a2d80 f   fps.obj
 0001:001a1e10       ?run@?$_icmd_getfollow@$0CJ@@game@@SAXXZ 005a2e10 f   fps.obj
 0001:001a1e80       ?run@?$_icmd_togglespacepack@$0CD@@game@@SAXXZ 005a2e80 f   fps.obj
 0001:001a1ee0       ?togglespacepack@game@@YAXXZ 005a2ee0 f   fps.obj
 0001:001a1f40       ?taunt@game@@YAXXZ         005a2f40 f   fps.obj
 0001:001a1f90       ?clientoption@game@@YA_NPBD@Z 005a2f90 f   fps.obj
 0001:001a1fa0       ?msgsound@game@@YAXHPAUphysent@@@Z 005a2fa0 f   fps.obj
 0001:001a2010       ?newclient@game@@YAPAUfpsent@@H@Z 005a3010 f   fps.obj
 0001:001a21d0       ?colorname@game@@YAPBDPAUfpsent@@PBD111@Z 005a31d0 f   fps.obj
 0001:001a2310       ?getclient@game@@YAPAUfpsent@@H@Z 005a3310 f   fps.obj
 0001:001a2340       ?initclient@game@@YAXXZ    005a3340 f   fps.obj
 0001:001a23e0       ?restoreconfig@game@@YAPBDXZ 005a33e0 f   fps.obj
 0001:001a23f0       ?loadconfigs@game@@YAXXZ   005a33f0 f   fps.obj
 0001:001a2420       ?updateworld@game@@YAXXZ   005a3420 f   fps.obj
 0001:001a2790       ?clipconsole@game@@YAHHH@Z 005a3790 f   fps.obj
 0001:001a27b0       ?savedconfig@game@@YAPBDXZ 005a37b0 f   fps.obj
 0001:001a27c0       ?autoexec@game@@YAPBDXZ    005a37c0 f   fps.obj
 0001:001a27d0       ?defaultconfig@game@@YAPBDXZ 005a37d0 f   fps.obj
 0001:001a27e0       ?lighteffects@game@@YAXPAUdynent@@AAUvec@@1@Z 005a37e0 f   fps.obj
 0001:001a27f0       ?setupcamera@game@@YAXXZ   005a37f0 f   fps.obj
 0001:001a28b0       ?detachcamera@game@@YA_NXZ 005a38b0 f   fps.obj
 0001:001a28c0       ?collidecamera@game@@YA_NXZ 005a38c0 f   fps.obj
 0001:001a28f0       ?needminimap@game@@YA_NXZ  005a38f0 f   fps.obj
 0001:001a2940       ?defaultcrosshair@game@@YAPBDH@Z 005a3940 f   fps.obj
 0001:001a2960       ?selectcrosshair@game@@YAHAAUvec@@@Z 005a3960 f   fps.obj
 0001:001a2b60       ?gameplayhud@game@@YAXHH@Z 005a3b60 f   fps.obj
 0001:001a2ec0       ?abovegameplayhud@game@@YAMHH@Z 005a3ec0 f   fps.obj
 0001:001a2ef0       ?serverinfostartcolumn@game@@YA_NPAUg3d_gui@@H@Z 005a3ef0 f   fps.obj
 0001:001a2f90       ?serverinfoentry@game@@YA_NPAUg3d_gui@@HPBDH11HABU?$vector@H@@H@Z 005a3f90 f   fps.obj
 0001:001a32c0       ?serverinfoendcolumn@game@@YAXPAUg3d_gui@@H@Z 005a42c0 f   fps.obj
 0001:001a3320       ?savedservers@game@@YAPBDXZ 005a4320 f   fps.obj
 0001:001a3330       ?writegamedata@game@@YAXAAU?$vector@D@@@Z 005a4330 f   fps.obj
 0001:001a3340       ?getmapinfo@game@@YAPBDXZ  005a4340 f   fps.obj
 0001:001a3370       ?loadingmap@game@@YAXPBD@Z 005a4370 f   fps.obj
 0001:001a33a0       ?readgamedata@game@@YAXAAU?$vector@D@@@Z 005a43a0 f   fps.obj
 0001:001a33b0       ?startmap@game@@YAXPBD@Z   005a43b0 f   fps.obj
 0001:001a34c0       ?numdynents@game@@YAHXZ    005a44c0 f   fps.obj
 0001:001a34e0       ?iterdynents@game@@YAPAUdynent@@H@Z 005a44e0 f   fps.obj
 0001:001a3520       ?dynentcollide@game@@YAXPAUphysent@@0ABUvec@@@Z 005a4520 f   fps.obj
 0001:001a3590       ?allowmove@game@@YA_NPAUphysent@@@Z 005a4590 f   fps.obj
 0001:001a35c0       ?physicstrigger@game@@YAXPAUphysent@@_NHHH@Z 005a45c0 f   fps.obj
 0001:001a3680       ?suicide@game@@YAXPAUphysent@@@Z 005a4680 f   fps.obj
 0001:001a37a0       ?canjump@game@@YA_NXZ      005a47a0 f   fps.obj
 0001:001a37d0       ?doattack@game@@YAX_N@Z    005a47d0 f   fps.obj
 0001:001a3800       ?resetgamestate@game@@YAXXZ 005a4800 f   fps.obj
 0001:001a38e0       ?getclientmap@game@@YAPBDXZ 005a48e0 f   fps.obj
 0001:001a3960       ?hitmonster@game@@YAXHPAUmonster@1@PAUfpsent@@ABUvec@@H@Z 005a4960 f   monster.obj
 0001:001a3970       ?rendermonsters@game@@YAXXZ 005a4970 f   monster.obj
 0001:001a3ac0       ?monsterkilled@game@@YAXXZ 005a4ac0 f   monster.obj
 0001:001a3b10       ?run@?$_icmd_endsp@$0BFM@@game@@SAXXZ 005a4b10 f   monster.obj
 0001:001a3b70       ?spawnmonster@game@@YAXXZ  005a4b70 f   monster.obj
 0001:001a3c30       ?preloadmonsters@game@@YAXXZ 005a4c30 f   monster.obj
 0001:001a3e10       ?run@?$_icmd_nummonsters@$0BBK@@game@@SAXPAH0@Z 005a4e10 f   monster.obj
 0001:001a3e80       ?nummonsters@game@@YAHHH@Z 005a4e80 f   monster.obj
 0001:001a3ee0       ?clearmonsters@game@@YAXXZ 005a4ee0 f   monster.obj
 0001:001a4250       ?updatemonsters@game@@YAXH@Z 005a5250 f   monster.obj
 0001:001a4520       ?spsummary@game@@YAXH@Z    005a5520 f   monster.obj
 0001:001a4720       ?stackmonster@game@@YAXPAUmonster@1@PAUphysent@@@Z 005a5720 f   monster.obj
 0001:001a4740       ?suicidemonster@game@@YAXPAUmonster@1@@Z 005a5740 f   monster.obj
 0001:001a4760       ?endsp@game@@YAX_N@Z       005a5760 f   monster.obj
 0001:001a47f0       ?hitmovable@game@@YAXHPAUmovable@1@PAUfpsent@@ABUvec@@H@Z 005a57f0 f   movable.obj
 0001:001a48d0       ?rendermovables@game@@YAXXZ 005a58d0 f   movable.obj
 0001:001a49a0       ?run@?$_icmd_platform@$0HK@@game@@SAXPAH0@Z 005a59a0 f   movable.obj
 0001:001a4b30       ?triggerplatform@game@@YAXHH@Z 005a5b30 f   movable.obj
 0001:001a4ca0       ?clearmovables@game@@YAXXZ 005a5ca0 f   movable.obj
 0001:001a4ed0       ?updatemovables@game@@YAXH@Z 005a5ed0 f   movable.obj
 0001:001a52a0       ?stackmovable@game@@YAXPAUmovable@1@PAUphysent@@@Z 005a62a0 f   movable.obj
 0001:001a52c0       ?suicidemovable@game@@YAXPAUmovable@1@@Z 005a62c0 f   movable.obj
 0001:001a5390       ?preloadsounds@game@@YAXXZ 005a6390 f   render.obj
 0001:001a5500       ?preloadweapons@game@@YAXXZ 005a6500 f   render.obj
 0001:001a56e0       ?hudgunorigin@game@@YA?AUvec@@HABU2@0PAUfpsent@@@Z 005a66e0 f   render.obj
 0001:001a5a00       ?drawhudgun@game@@YAXXZ    005a6a00 f   render.obj
 0001:001a5b00       ?drawhudmodel@game@@YAXPAUfpsent@@HMH@Z 005a6b00 f   render.obj
 0001:001a5eb0       ?renderplayer@game@@YAXPAUfpsent@@ABUplayermodelinfo@1@HM_N@Z 005a6eb0 f   render.obj
 0001:001a6280       ?preloadplayermodel@game@@YAXXZ 005a7280 f   render.obj
 0001:001a6330       ?changedplayermodel@game@@YAXXZ 005a7330 f   render.obj
 0001:001a64b0       ?getplayermodelinfo@game@@YAABUplayermodelinfo@1@PAUfpsent@@@Z 005a74b0 f   render.obj
 0001:001a6500       ?getplayermodelinfo@game@@YAPBUplayermodelinfo@1@H@Z 005a7500 f   render.obj
 0001:001a6520       ?saveragdoll@game@@YAXPAUfpsent@@@Z 005a7520 f   render.obj
 0001:001a6620       ?var_playermodel@game@@YAXXZ 005a7620 f   render.obj
 0001:001a67a0       ?moveragdolls@game@@YAXXZ  005a77a0 f   render.obj
 0001:001a6840       ?swayhudgun@game@@YAXH@Z   005a7840 f   render.obj
 0001:001a6b20       ?clearragdolls@game@@YAXXZ 005a7b20 f   render.obj
 0001:001a6b70       ?chooserandomplayermodel@game@@YAHH@Z 005a7b70 f   render.obj
 0001:001a6b80       ?renderavatar@game@@YAXXZ  005a7b80 f   render.obj
 0001:001a6c80       ?rendergame@game@@YAX_N@Z  005a7c80 f   render.obj
 0001:001a76a0       ?renderplayerpreview@game@@YAXHHH@Z 005a86a0 f   render.obj
 0001:001a78a0       ?preload@game@@YAXXZ       005a88a0 f   render.obj
 0001:001a8430       ?run@?$_icmd_showscores@$0BJI@@game@@SAXPAH@Z 005a9430 f   scoreboard.obj
 0001:001a8460       ?var_scoreboard@game@@YAXXZ 005a9460 f   scoreboard.obj
 0001:001a8480       ?renderscoreboard@game@@YAXAAUg3d_gui@@_N@Z 005a9480 f   scoreboard.obj
 0001:001a9e30       ?setteaminfo@game@@YAXPBDH@Z 005aae30 f   scoreboard.obj
 0001:001a9e90       ?getbestteams@game@@YAXAAU?$vector@PBD@@@Z 005aae90 f   scoreboard.obj
 0001:001aa3a0       ?getbestplayers@game@@YAXAAU?$vector@PAUfpsent@@@@@Z 005ab3a0 f   scoreboard.obj
 0001:001aa500       ?showscores@game@@YAX_N@Z  005ab500 f   scoreboard.obj
 0001:001aa520       ?clearteaminfo@game@@YAXXZ 005ab520 f   scoreboard.obj
 0001:001aa570       ?g3d_gamemenus@game@@YAXXZ 005ab570 f   scoreboard.obj
 0001:001aa660       ?run@?$_icmd_movewaypoints@$0DCG@@ai@@SAXPAH00@Z 005ab660 f   waypoint.obj
 0001:001aa780       ?movewaypoints@ai@@YAXABUvec@@@Z 005ab780 f   waypoint.obj
 0001:001aa8a0       ?delselwaypoints@ai@@YAXXZ 005ab8a0 f   waypoint.obj
 0001:001aa9e0       ?run@?$_icmd_savewaypoints@$0CPF@@ai@@SAXPAD@Z 005ab9e0 f   waypoint.obj
 0001:001aa9f0       ?run@?$_icmd_loadwaypoints@$0CNI@@ai@@SAXPAD@Z 005ab9f0 f   waypoint.obj
 0001:001aaa00       ?getwaypointfile@ai@@YA_NPBDPAD@Z 005aba00 f   waypoint.obj
 0001:001aaa70       ?cleanwaypoints@ai@@YA_NXZ 005aba70 f   waypoint.obj
 0001:001aab40       ?remapwaypoints@ai@@YAXXZ  005abb40 f   waypoint.obj
 0001:001aadb0       ?seedwaypoints@ai@@YAXXZ   005abdb0 f   waypoint.obj
 0001:001aaf20       ?run@?$_icmd_clearwaypoints@$0CGB@@ai@@SAXXZ 005abf20 f   waypoint.obj
 0001:001aaf40       ?navigate@ai@@YAXPAUfpsent@@@Z 005abf40 f   waypoint.obj
 0001:001ab1c0       ?linkwaypoint@ai@@YAXAAUwaypoint@1@H@Z 005ac1c0 f   waypoint.obj
 0001:001ab2f0       ?addwaypoint@ai@@YAHABUvec@@H@Z 005ac2f0 f   waypoint.obj
 0001:001ab3d0       ?var_dropwaypoints@ai@@YAXXZ 005ac3d0 f   waypoint.obj
 0001:001ab400       ?buildwpcache@ai@@YAXXZ    005ac400 f   waypoint.obj
 0001:001ab670       ?run@?$_icmd_clearwpcache@$0LL@@ai@@SAXXZ 005ac670 f   waypoint.obj
 0001:001ab680       ?clearwpcache@ai@@YAX_N@Z  005ac680 f   waypoint.obj
 0001:001ab810       ?getweight@ai@@YAHABUvec@@@Z 005ac810 f   waypoint.obj
 0001:001ab960       ?clipped@ai@@YA_NABUvec@@@Z 005ac960 f   waypoint.obj
 0001:001ab990       ?navigate@ai@@YAXXZ        005ac990 f   waypoint.obj
 0001:001aba00       ?savewaypoints@ai@@YAX_NPBD@Z 005aca00 f   waypoint.obj
 0001:001abb90       ?clearwaypoints@ai@@YAX_N@Z 005acb90 f   waypoint.obj
 0001:001abbc0       ?inferwaypoints@ai@@YAXPAUfpsent@@ABUvec@@1M@Z 005acbc0 f   waypoint.obj
 0001:001abd30       ?loadwaypoints@ai@@YAX_NPBD@Z 005acd30 f   waypoint.obj
 0001:001ac090       ?route@ai@@YA_NPAUfpsent@@HHAAU?$vector@H@@ABUavoidset@1@H@Z 005ad090 f   waypoint.obj
 0001:001ac850       ?closestwaypoint@ai@@YAHABUvec@@M_NPAUfpsent@@@Z 005ad850 f   waypoint.obj
 0001:001accb0       ?findwaypointswithin@ai@@YAXABUvec@@MMAAU?$vector@H@@@Z 005adcb0 f   waypoint.obj
 0001:001ad100       ?remap@avoidset@ai@@QAEHPAUfpsent@@HAAUvec@@_N@Z 005ae100 f   waypoint.obj
 0001:001ad2f0       ?avoidnear@avoidset@ai@@QAEXPAXMABUvec@@M@Z 005ae2f0 f   waypoint.obj
 0001:001ad8c0       ?checkidlesound@game@@YAXPAUfpsent@@_N@Z 005ae8c0 f   weapon.obj
 0001:001ad9d0       ?checkattacksound@game@@YAXPAUfpsent@@_N@Z 005ae9d0 f   weapon.obj
 0001:001ada90       ?raydamage@game@@YAXAAUvec@@0PAUfpsent@@@Z 005aea90 f   weapon.obj
 0001:001adfb0       ?shorten@game@@YAXAAUvec@@0M@Z 005aefb0 f   weapon.obj
 0001:001ae000       ?shoteffects@game@@YAXHABUvec@@0PAUfpsent@@_NHH@Z 005af000 f   weapon.obj
 0001:001aeca0       ?updateprojectiles@game@@YAXH@Z 005afca0 f   weapon.obj
 0001:001af590       ?projdamage@game@@YA_NPAUdynent@@AAUprojectile@1@AAUvec@@H@Z 005b0590 f   weapon.obj
 0001:001af720       ?explodeeffects@game@@YAXHPAUfpsent@@_NH@Z 005b0720 f   weapon.obj
 0001:001afa50       ?projsplash@game@@YAXAAUprojectile@1@AAUvec@@PAUdynent@@H@Z 005b0a50 f   weapon.obj
 0001:001afc00       ?radialeffect@game@@YAXPAUdynent@@ABUvec@@HPAUfpsent@@H@Z 005b0c00 f   weapon.obj
 0001:001afd30       ?projdist@game@@YAMPAUdynent@@AAUvec@@ABU3@@Z 005b0d30 f   weapon.obj
 0001:001afe00       ?hitpush@game@@YAXHPAUdynent@@PAUfpsent@@AAUvec@@2HH@Z 005b0e00 f   weapon.obj
 0001:001aff40       ?hit@game@@YAXHPAUdynent@@PAUfpsent@@ABUvec@@HMH@Z 005b0f40 f   weapon.obj
 0001:001b03c0       ?spawnbouncer@game@@YAXABUvec@@0PAUfpsent@@HPAUentitylight@@@Z 005b13c0 f   weapon.obj
 0001:001b0510       ?removeprojectiles@game@@YAXPAUfpsent@@@Z 005b1510 f   weapon.obj
 0001:001b05c0       ?newprojectile@game@@YAXABUvec@@0M_NHPAUfpsent@@H@Z 005b15c0 f   weapon.obj
 0001:001b0870       ?removebouncers@game@@YAXPAUfpsent@@@Z 005b1870 f   weapon.obj
 0001:001b08e0       ?updatebouncers@game@@YAXH@Z 005b18e0 f   weapon.obj
 0001:001b0f90       ?newbouncer@game@@YAXABUvec@@0_NHPAUfpsent@@HHHPAUentitylight@@@Z 005b1f90 f   weapon.obj
 0001:001b16f0       ?createrays@game@@YAXHABUvec@@0@Z 005b26f0 f   weapon.obj
 0001:001b1a40       ?offsetray@game@@YAXABUvec@@0HMAAU2@@Z 005b2a40 f   weapon.obj
 0001:001b1d40       ?run@?$_icmd_weapon@$0IF@@game@@SAXPAUtagval@@H@Z 005b2d40 f   weapon.obj
 0001:001b1e20       ?weaponswitch@game@@YAXPAUfpsent@@@Z 005b2e20 f   weapon.obj
 0001:001b1f00       ?run@?$_icmd_cycleweapon@$0GH@@game@@SAXPAUtagval@@H@Z 005b2f00 f   weapon.obj
 0001:001b20b0       ?cycleweapon@game@@YAXHPAH_N@Z 005b30b0 f   weapon.obj
 0001:001b21a0       ?run@?$_icmd_dbgreload@$0EP@@game@@SAXPAD@Z 005b31a0 f   weapon.obj
 0001:001b21e0       ?dbgreload@game@@YAXPBD@Z  005b31e0 f   weapon.obj
 0001:001b2210       ?run@?$_icmd_setweapon@$0EH@@game@@SAXPADPAH@Z 005b3210 f   weapon.obj
 0001:001b2270       ?setweapon@game@@YAXPBD_N@Z 005b3270 f   weapon.obj
 0001:001b22c0       ?getweapon@game@@YAHPBD@Z  005b32c0 f   weapon.obj
 0001:001b2350       ?run@?$_icmd_nextweapon@$0DC@@game@@SAXPAH0@Z 005b3350 f   weapon.obj
 0001:001b2490       ?nextweapon@game@@YAXH_N@Z 005b3490 f   weapon.obj
 0001:001b25b0       ?run@?$_icmd_getweapon@$0BE@@game@@SAXXZ 005b35b0 f   weapon.obj
 0001:001b25d0       ?renderbouncers@game@@YAXXZ 005b35d0 f   weapon.obj
 0001:001b2890       ?renderprojectiles@game@@YAXXZ 005b3890 f   weapon.obj
 0001:001b2bc0       ?preloadbouncers@game@@YAXXZ 005b3bc0 f   weapon.obj
 0001:001b2d80       ?explode@game@@YAX_NPAUfpsent@@ABUvec@@PAUdynent@@HH@Z 005b3d80 f   weapon.obj
 0001:001b3360       ?clearprojectiles@game@@YAXXZ 005b4360 f   weapon.obj
 0001:001b3380       ?clearbouncers@game@@YAXXZ 005b4380 f   weapon.obj
 0001:001b33c0       ?intersect@game@@YA_NPAUdynent@@ABUvec@@1AAM@Z 005b43c0 f   weapon.obj
 0001:001b3440       ?updateweapons@game@@YAXH@Z 005b4440 f   weapon.obj
 0001:001b36c0       ?damageeffect@game@@YAXHPAUfpsent@@_N@Z 005b46c0 f   weapon.obj
 0001:001b37f0       ?gibeffect@game@@YAXHABUvec@@PAUfpsent@@@Z 005b47f0 f   weapon.obj
 0001:001b3880       ?getweaponname@game@@YAPBDH@Z 005b4880 f   weapon.obj
 0001:001b38d0       ?removeweapons@game@@YAXPAUfpsent@@@Z 005b48d0 f   weapon.obj
 0001:001b39f0       ?intersectclosest@game@@YAPAUdynent@@ABUvec@@0PAUfpsent@@AAM@Z 005b49f0 f   weapon.obj
 0001:001b3b50       ?gunselect@game@@YAXHPAUfpsent@@@Z 005b4b50 f   weapon.obj
 0001:001b3bb0       ?shoot@game@@YAXPAUfpsent@@ABUvec@@@Z 005b4bb0 f   weapon.obj
 0001:001b4120       ?avoidweapons@game@@YAXAAUavoidset@ai@@M@Z 005b5120 f   weapon.obj
 0001:001b4210       ?particletrack@game@@YAXPAUphysent@@AAUvec@@1@Z 005b5210 f   weapon.obj
 0001:001b4360       ?adddynlights@game@@YAXXZ  005b5360 f   weapon.obj
 0001:001b45e0       ?dynlighttrack@game@@YAXPAUphysent@@AAUvec@@1@Z 005b55e0 f   weapon.obj
 0001:001b4670       ?bounced@game@@YAXPAUphysent@@ABUvec@@@Z 005b5670 f   weapon.obj
 0001:001b4ab0       ?gotosel@game@@YAXXZ       005b5ab0 f   client1.obj
 0001:001b4ce0       ?gotoplayer@game@@YAXPBD@Z 005b5ce0 f   client1.obj
 0001:001b4e00       ?sendmap@game@@YAXXZ       005b5e00 f   client1.obj
 0001:001b4f80       ?listdemos@game@@YAXXZ     005b5f80 f   client1.obj
 0001:001b4fa0       ?run@?$_icmd_getdemo@$0IAF@@game@@SAXPAH@Z 005b5fa0 f   client1.obj
 0001:001b4ff0       ?getdemo@game@@YAXH@Z      005b5ff0 f   client1.obj
 0001:001b5040       ?run@?$_icmd_cleardemos@$0HPN@@game@@SAXPAH@Z 005b6040 f   client1.obj
 0001:001b5070       ?cleardemos@game@@YAXH@Z   005b6070 f   client1.obj
 0001:001b50a0       ?run@?$_icmd_recorddemo@$0HPG@@game@@SAXPAH@Z 005b60a0 f   client1.obj
 0001:001b50d0       ?recorddemo@game@@YAXH@Z   005b60d0 f   client1.obj
 0001:001b5100       ?stopdemo@game@@YAXXZ      005b6100 f   client1.obj
 0001:001b5150       ?getmap@game@@YAXXZ        005b6150 f   client1.obj
 0001:001b51a0       ?receivefile@game@@YAXAAUpacketbuf@@@Z 005b61a0 f   client1.obj
 0001:001b5390       ?parsemessages@game@@YAXHPAUfpsent@@AAU?$databuf@E@@@Z 005b6390 f   client1.obj
 0001:001b8090       ?parsestate@game@@YAXPAUfpsent@@AAU?$databuf@E@@_N@Z 005b9090 f   client1.obj
 0001:001b8230       ?parsepositions@game@@YAXAAU?$databuf@E@@@Z 005b9230 f   client1.obj
 0001:001b8e80       ?updatepos@game@@YAXPAUfpsent@@@Z 005b9e80 f   client1.obj
 0001:001b9000       ?sendintro@game@@YAXXZ     005ba000 f   client1.obj
 0001:001b93f0       ?sendmessages@game@@YAXXZ  005ba3f0 f   client1.obj
 0001:001b97a0       ?sendpositions@game@@YAXXZ 005ba7a0 f   client1.obj
 0001:001ba130       ?run@?$_icmd_servcmd@$0DJN@@game@@SAXPAD@Z 005bb130 f   client1.obj
 0001:001ba150       ?sayteam@game@@YAXPAD@Z    005bb150 f   client1.obj
 0001:001ba1a0       ?run@?$_icmd_gamespeed@$0DCE@@game@@SAXPAH0PAUident@@@Z 005bb1a0 f   client1.obj
 0001:001ba280       ?changegamespeed@game@@YAXH@Z 005bb280 f   client1.obj
 0001:001ba2e0       ?run@?$_icmd_paused@$0DBD@@game@@SAXPAH0PAUident@@@Z 005bb2e0 f   client1.obj
 0001:001ba370       ?run@?$_icmd_pausegame@$0DAN@@game@@SAXPAH@Z 005bb370 f   client1.obj
 0001:001ba3d0       ?pausegame@game@@YAX_N@Z   005bb3d0 f   client1.obj
 0001:001ba420       ?printvar@game@@YAXPAUfpsent@@PAUident@@@Z 005bb420 f   client1.obj
 0001:001ba540       ?sendclipboard@game@@YAXXZ 005bb540 f   client1.obj
 0001:001ba850       ?run@?$_icmd_map@$0CEH@@game@@SAXPAD@Z 005bb850 f   client1.obj
 0001:001ba880       ?run@?$_icmds_@$0CDI@@game@@SAXPAH@Z 005bb880 f   client1.obj
 0001:001ba8c0       ?run@?$_icmds_@$0CDH@@game@@SAXPAH@Z 005bb8c0 f   client1.obj
 0001:001ba900       ?run@?$_icmds_@$0CDG@@game@@SAXPAH@Z 005bb900 f   client1.obj
 0001:001ba940       ?run@?$_icmds_@$0CDF@@game@@SAXPAH@Z 005bb940 f   client1.obj
 0001:001ba980       ?run@?$_icmds_@$0CDE@@game@@SAXPAH@Z 005bb980 f   client1.obj
 0001:001ba9c0       ?run@?$_icmds_@$0CDD@@game@@SAXPAH@Z 005bb9c0 f   client1.obj
 0001:001baa00       ?run@?$_icmds_@$0CDC@@game@@SAXPAH@Z 005bba00 f   client1.obj
 0001:001baa40       ?run@?$_icmds_@$0CDB@@game@@SAXPAH@Z 005bba40 f   client1.obj
 0001:001baa80       ?run@?$_icmds_@$0CDA@@game@@SAXPAH@Z 005bba80 f   client1.obj
 0001:001baac0       ?run@?$_icmds_@$0CCP@@game@@SAXPAH@Z 005bbac0 f   client1.obj
 0001:001bab00       ?run@?$_icmds_@$0CCO@@game@@SAXPAH@Z 005bbb00 f   client1.obj
 0001:001bab40       ?run@?$_icmds_@$0CCN@@game@@SAXPAH@Z 005bbb40 f   client1.obj
 0001:001bab80       ?run@?$_icmds_@$0CCM@@game@@SAXPAH@Z 005bbb80 f   client1.obj
 0001:001babd0       ?run@?$_icmds_@$0CCL@@game@@SAXPAH@Z 005bbbd0 f   client1.obj
 0001:001bac20       ?run@?$_icmds_@$0CCK@@game@@SAXPAH@Z 005bbc20 f   client1.obj
 0001:001bac60       ?run@?$_icmds_@$0CCJ@@game@@SAXPAH@Z 005bbc60 f   client1.obj
 0001:001bacb0       ?run@?$_icmds_@$0CCI@@game@@SAXPAH@Z 005bbcb0 f   client1.obj
 0001:001bacf0       ?run@?$_icmds_@$0CCH@@game@@SAXPAH@Z 005bbcf0 f   client1.obj
 0001:001bad30       ?run@?$_icmds_@$0CCG@@game@@SAXPAH@Z 005bbd30 f   client1.obj
 0001:001bad70       ?run@?$_icmds_@$0CCF@@game@@SAXPAH@Z 005bbd70 f   client1.obj
 0001:001badb0       ?run@?$_icmds_@$0CCE@@game@@SAXPAH@Z 005bbdb0 f   client1.obj
 0001:001badf0       ?run@?$_icmd_timeremaining@$0CCD@@game@@SAXPAH@Z 005bbdf0 f   client1.obj
 0001:001baec0       ?run@?$_icmd_getmode@$0CBJ@@game@@SAXXZ 005bbec0 f   client1.obj
 0001:001baee0       ?run@?$_icmd_mode@$0CBI@@game@@SAXPAH@Z 005bbee0 f   client1.obj
 0001:001baf60       ?setmode@game@@YAXH@Z      005bbf60 f   client1.obj
 0001:001bafe0       ?changemapserv@game@@YAXPBDH@Z 005bbfe0 f   client1.obj
 0001:001bb0f0       ?run@?$_icmd_checkmaps@$0BPE@@game@@SAXXZ 005bc0f0 f   client1.obj
 0001:001bb100       ?run@?$_icmd_spectator@$0BPC@@game@@SAXPAHPAD@Z 005bc100 f   client1.obj
 0001:001bb140       ?togglespectator@game@@YAXHPBD@Z 005bc140 f   client1.obj
 0001:001bb180       ?run@?$_icmd_dauth@$0BOL@@game@@SAXPAD@Z 005bc180 f   client1.obj
 0001:001bb1b0       ?run@?$_icmd_sauth@$0BOK@@game@@SAXXZ 005bc1b0 f   client1.obj
 0001:001bb1f0       ?run@?$_icmd_auth@$0BOJ@@game@@SAXPAD@Z 005bc1f0 f   client1.obj
 0001:001bb220       ?tryauth@game@@YA_NPBD@Z   005bc220 f   client1.obj
 0001:001bb250       ?run@?$_icmd_mastermode@$0BNP@@game@@SAXPAH@Z 005bc250 f   client1.obj
 0001:001bb270       ?setmaster@game@@YAXPBD0@Z 005bc270 f   client1.obj
 0001:001bb330       ?hashpwd@game@@YAXPBD@Z    005bc330 f   client1.obj
 0001:001bb3b0       ?setteam@game@@YAXPBD0@Z   005bc3b0 f   client1.obj
 0001:001bb3e0       ?run@?$_icmd_isignored@$0BLK@@game@@SAXPAD@Z 005bc3e0 f   client1.obj
 0001:001bb430       ?run@?$_icmd_unignore@$0BLJ@@game@@SAXPAD@Z 005bc430 f   client1.obj
 0001:001bb440       ?run@?$_icmd_ignore@$0BLI@@game@@SAXPAD@Z 005bc440 f   client1.obj
 0001:001bb4e0       ?isignored@game@@YA_NH@Z   005bc4e0 f   client1.obj
 0001:001bb510       ?ignore@game@@YAXH@Z       005bc510 f   client1.obj
 0001:001bb5b0       ?run@?$_icmd_dauthkick@$0BKC@@game@@SAXPBD00@Z 005bc5b0 f   client1.obj
 0001:001bb5d0       ?run@?$_icmd_sauthkick@$0BKB@@game@@SAXPBD0@Z 005bc5d0 f   client1.obj
 0001:001bb630       ?run@?$_icmd_authkick@$0BKA@@game@@SAXPBD0@Z 005bc630 f   client1.obj
 0001:001bb690       ?authkick@game@@YAXPBD00@Z 005bc690 f   client1.obj
 0001:001bb6e0       ?kick@game@@YAXPBD0@Z      005bc6e0 f   client1.obj
 0001:001bb710       ?clearbans@game@@YAXXZ     005bc710 f   client1.obj
 0001:001bb720       ?run@?$_icmd_listclients@$0BIH@@game@@SAXPAH0@Z 005bc720 f   client1.obj
 0001:001bb740       ?listclients@game@@YAX_N0@Z 005bc740 f   client1.obj
 0001:001bb950       ?run@?$_icmd_getclientnum@$0BHB@@game@@SAXPAD@Z 005bc950 f   client1.obj
 0001:001bb990       ?run@?$_icmd_isai@$0BFI@@game@@SAXPAH0@Z 005bc990 f   client1.obj
 0001:001bba00       ?isai@game@@YA_NHH@Z       005bca00 f   client1.obj
 0001:001bba50       ?run@?$_icmd_isspectator@$0BFA@@game@@SAXPAH@Z 005bca50 f   client1.obj
 0001:001bbab0       ?isspectator@game@@YA_NH@Z 005bcab0 f   client1.obj
 0001:001bbaf0       ?run@?$_icmd_mastermodename@$0BEJ@@game@@SAXPAH@Z 005bcaf0 f   client1.obj
 0001:001bbb50       ?run@?$_icmd_getmastermode@$0BEI@@game@@SAXXZ 005bcb50 f   client1.obj
 0001:001bbb70       ?run@?$_icmd_isadmin@$0BEG@@game@@SAXPAH@Z 005bcb70 f   client1.obj
 0001:001bbbd0       ?isadmin@game@@YA_NH@Z     005bcbd0 f   client1.obj
 0001:001bbc10       ?run@?$_icmd_isauth@$0BDP@@game@@SAXPAH@Z 005bcc10 f   client1.obj
 0001:001bbc70       ?isauth@game@@YA_NH@Z      005bcc70 f   client1.obj
 0001:001bbcb0       ?run@?$_icmd_ismaster@$0BDI@@game@@SAXPAH@Z 005bccb0 f   client1.obj
 0001:001bbd10       ?ismaster@game@@YA_NH@Z    005bcd10 f   client1.obj
 0001:001bbd50       ?run@?$_icmd_getclienticon@$0BDB@@game@@SAXPAH@Z 005bcd50 f   client1.obj
 0001:001bbe20       ?getclienticon@game@@YAPBDH@Z 005bce20 f   client1.obj
 0001:001bbeb0       ?run@?$_icmd_getclientmodel@$0BCI@@game@@SAXPAH@Z 005bceb0 f   client1.obj
 0001:001bbf10       ?getclientmodel@game@@YAHH@Z 005bcf10 f   client1.obj
 0001:001bbf40       ?run@?$_icmd_getclientteam@$0BCB@@game@@SAXPAH@Z 005bcf40 f   client1.obj
 0001:001bbfc0       ?getclientteam@game@@YAPBDH@Z 005bcfc0 f   client1.obj
 0001:001bc000       ?run@?$_icmd_getclientname@$0BBK@@game@@SAXPAH@Z 005bd000 f   client1.obj
 0001:001bc080       ?getclientname@game@@YAPBDH@Z 005bd080 f   client1.obj
 0001:001bc0c0       ?saveauthkeys@game@@YAXXZ  005bd0c0 f   client1.obj
 0001:001bc170       ?genauthkey@game@@YAXPBD@Z 005bd170 f   client1.obj
 0001:001bc260       ?run@?$_icmd_hasauthkey@$0NJ@@game@@SAXPAD0@Z 005bd260 f   client1.obj
 0001:001bc300       ?hasauthkey@game@@YA_NPBD0@Z 005bd300 f   client1.obj
 0001:001bc370       ?run@?$_icmd_authkey@$0NA@@game@@SAXPAD00@Z 005bd370 f   client1.obj
 0001:001bc390       ?addauthkey@game@@YAXPBD00@Z 005bd390 f   client1.obj
 0001:001bc650       ?findauthkey@game@@YAPAUauthkey@1@PBD@Z 005bd650 f   client1.obj
 0001:001bc6f0       ?run@?$_icmd_getteam@$0KG@@game@@SAXXZ 005bd6f0 f   client1.obj
 0001:001bc740       ?run@?$_icmd_team@$0KF@@game@@SAXPADPAH@Z 005bd740 f   client1.obj
 0001:001bc7e0       ?printteam@game@@YAXXZ     005bd7e0 f   client1.obj
 0001:001bc800       ?switchteam@game@@YAXPBD@Z 005bd800 f   client1.obj
 0001:001bc840       ?run@?$_icmd_getname@$0JA@@game@@SAXXZ 005bd840 f   client1.obj
 0001:001bc890       ?run@?$_icmd_name@$0IP@@game@@SAXPADPAH@Z 005bd890 f   client1.obj
 0001:001bc950       ?printname@game@@YAXXZ     005bd950 f   client1.obj
 0001:001bc980       ?switchname@game@@YAXPBD@Z 005bd980 f   client1.obj
 0001:001bca00       ?run@?$_icmd_dropflag@$0ELA@@game@@SAXXZ 005bda00 f   client1.obj
 0001:001bca70       ?run@?$_icmd_insidebases@$0DAM@@game@@SAXXZ 005bda70 f   client1.obj
 0001:001bcc40       ?run@?$_icmd_repammo@$0CPM@@game@@SAXXZ 005bdc40 f   client1.obj
 0001:001bcd80       ?drawteammates@game@@YAXPAUfpsent@@MMM@Z 005bdd80 f   client1.obj
 0001:001bd040       ?drawteammate@game@@YAXPAUfpsent@@MMM0M@Z 005be040 f   client1.obj
 0001:001bd400       ?drawradar@game@@YAXMMM@Z  005be400 f   client1.obj
 0001:001bd5f0       ?drawminimap@game@@YAXPAUfpsent@@MMM@Z 005be5f0 f   client1.obj
 0001:001bd890       ?calcradarscale@game@@YAMXZ 005be890 f   client1.obj
 0001:001bd8d0       ?forceintermission@game@@YAXXZ 005be8d0 f   client1.obj
 0001:001bd910       ?parseplayer@game@@YAHPBD@Z 005be910 f   client1.obj
 0001:001bd9d0       ?c2sinfo@game@@YAX_N@Z     005be9d0 f   client1.obj
 0001:001bdb70       ?changemap@game@@YAXPBDH@Z 005beb70 f   client1.obj
 0001:001bdc90       ?unignore@game@@YAXH@Z     005bec90 f   client1.obj
 0001:001bdd10       ?setclientmode@game@@YAXXZ 005bed10 f   client1.obj
 0001:001bdd70       ?switchplayermodel@game@@YAXH@Z 005bed70 f   client1.obj
 0001:001bdda0       ?sendmapinfo@game@@YAXXZ   005beda0 f   client1.obj
 0001:001bdde0       ?sendposition@game@@YAXPAUfpsent@@_N@Z 005bede0 f   client1.obj
 0001:001bded0       ?addmsg@game@@YA_NHPBDZZ   005beed0 f   client1.obj
 0001:001be2b0       ?changemap@game@@YAXPBD@Z  005bf2b0 f   client1.obj
 0001:001be2d0       ?toserver@game@@YAXPAD@Z   005bf2d0 f   client1.obj
 0001:001be320       ?vartrigger@game@@YAXPAUident@@@Z 005bf320 f   client1.obj
 0001:001be3e0       ?writeclientinfo@game@@YAXPAUstream@@@Z 005bf3e0 f   client1.obj
 0001:001be410       ?allowmouselook@game@@YA_NXZ 005bf410 f   client1.obj
 0001:001be450       ?ispaused@game@@YA_NXZ     005bf450 f   client1.obj
 0001:001be460       ?connectfail@game@@YAXXZ   005bf460 f   client1.obj
 0001:001be480       ?connectattempt@game@@YAXPBD0ABU_ENetAddress@@@Z 005bf480 f   client1.obj
 0001:001be4b0       ?gamedisconnect@game@@YAX_N@Z 005bf4b0 f   client1.obj
 0001:001be5d0       ?parsepacketclient@game@@YAXHAAUpacketbuf@@@Z 005bf5d0 f   client1.obj
 0001:001be610       ?gameconnect@game@@YAX_N@Z 005bf610 f   client1.obj
 0001:001be620       ?forceedit@game@@YAXPBD@Z  005bf620 f   client1.obj
 0001:001be630       ?newmap@game@@YAXH@Z       005bf630 f   client1.obj
 0001:001be650       ?scaletime@game@@YAHH@Z    005bf650 f   client1.obj
 0001:001be660       ?allowedittoggle@game@@YA_NXZ 005bf660 f   client1.obj
 0001:001be6f0       ?edittoggled@game@@YAX_N@Z 005bf6f0 f   client1.obj
 0001:001be780       ?edittrigger@game@@YAXABUselinfo@@HHHHPBUVSlot@@@Z 005bf780 f   client1.obj
 0001:001bf010       ?changeteam@aiman@server@@YAXPAUclientinfo@2@@Z 005c0010 f   server1.obj
 0001:001bf030       ?addclient@aiman@server@@YAXPAUclientinfo@2@@Z 005c0030 f   server1.obj
 0001:001bf050       ?changemap@aiman@server@@YAXXZ 005c0050 f   server1.obj
 0001:001bf100       ?setbotbalance@aiman@server@@YAXPAUclientinfo@2@_N@Z 005c0100 f   server1.obj
 0001:001bf170       ?setbotlimit@aiman@server@@YAXPAUclientinfo@2@H@Z 005c0170 f   server1.obj
 0001:001bf1e0       ?reqdel@aiman@server@@YAXPAUclientinfo@2@@Z 005c01e0 f   server1.obj
 0001:001bf240       ?reqadd@aiman@server@@YAXPAUclientinfo@2@H@Z 005c0240 f   server1.obj
 0001:001bf2a0       ?checkai@aiman@server@@YAXXZ 005c02a0 f   server1.obj
 0001:001bf520       ?clearai@aiman@server@@YAXXZ 005c0520 f   server1.obj
 0001:001bf620       ?checksetup@aiman@server@@YAXXZ 005c0620 f   server1.obj
 0001:001bf770       ?reassignai@aiman@server@@YA_NXZ 005c0770 f   server1.obj
 0001:001bf840       ?removeai@aiman@server@@YAXPAUclientinfo@2@@Z 005c0840 f   server1.obj
 0001:001bf870       ?shiftai@aiman@server@@YAXPAUclientinfo@2@0@Z 005c0870 f   server1.obj
 0001:001bf930       ?reinitai@aiman@server@@YAXPAUclientinfo@2@@Z 005c0930 f   server1.obj
 0001:001bfa30       ?deleteai@aiman@server@@YA_NXZ 005c0a30 f   server1.obj
 0001:001bfb20       ?deleteai@aiman@server@@YAXPAUclientinfo@2@@Z 005c0b20 f   server1.obj
 0001:001bfbf0       ?addai@aiman@server@@YA_NHH@Z 005c0bf0 f   server1.obj
 0001:001bfee0       ?findaiclient@aiman@server@@YAPAUclientinfo@2@PAU32@@Z 005c0ee0 f   server1.obj
 0001:001bffa0       ?chooseteam@aiman@server@@YAPBDXZ 005c0fa0 f   server1.obj
 0001:001c0030       ?balanceteams@aiman@server@@YAXXZ 005c1030 f   server1.obj
 0001:001c0330       ?calcteams@aiman@server@@YAXAAU?$vector@Uteamscore@@@@@Z 005c1330 f   server1.obj
 0001:001c0570       ?extserverinforeply@server@@YAXAAU?$databuf@E@@0@Z 005c1570 f   server1.obj
 0001:001c0700       ?extinfoteams@server@@YAXAAU?$databuf@E@@@Z 005c1700 f   server1.obj
 0001:001c09a0       ?extinfoplayer@server@@YAXAAU?$databuf@E@@PAUclientinfo@1@@Z 005c19a0 f   server1.obj
 0001:001c0b70       ?connected@server@@YAXPAUclientinfo@1@@Z 005c1b70 f   server1.obj
 0001:001c0fc0       ?sendclipboard@server@@YAXPAUclientinfo@1@@Z 005c1fc0 f   server1.obj
 0001:001c10d0       ?receivefile@server@@YAXHPAEH@Z 005c20d0 f   server1.obj
 0001:001c11a0       ?answerchallenge@server@@YA_NPAUclientinfo@1@IPADPBD@Z 005c21a0 f   server1.obj
 0001:001c1440       ?tryauth@server@@YA_NPAUclientinfo@1@PBD1@Z 005c2440 f   server1.obj
 0001:001c18b0       ?authchallenged@server@@YAXIPBD0@Z 005c28b0 f   server1.obj
 0001:001c1910       ?authsucceeded@server@@YAXI@Z 005c2910 f   server1.obj
 0001:001c1a00       ?authfailed@server@@YAXI@Z 005c2a00 f   server1.obj
 0001:001c1a40       ?authfailed@server@@YAXPAUclientinfo@1@@Z 005c2a40 f   server1.obj
 0001:001c1ab0       ?findauth@server@@YAPAUclientinfo@1@I@Z 005c2ab0 f   server1.obj
 0001:001c1af0       ?allowconnect@server@@YAHPAUclientinfo@1@PBD@Z 005c2af0 f   server1.obj
 0001:001c1c10       ?run@?$_icmd_ipban@$0KDJ@@server@@SAXPBD@Z 005c2c10 f   server1.obj
 0001:001c1c20       ?run@?$_icmd_clearipbans@$0KDI@@server@@SAXXZ 005c2c20 f   server1.obj
 0001:001c1c40       ?verifybans@server@@YAXXZ  005c2c40 f   server1.obj
 0001:001c1cc0       ?checkbans@server@@YA_NI@Z 005c2cc0 f   server1.obj
 0001:001c1d40       ?noclients@server@@YAXXZ   005c2d40 f   server1.obj
 0001:001c1d60       ?sendservinfo@server@@YAXPAUclientinfo@1@@Z 005c2d60 f   server1.obj
 0001:001c1da0       ?unspectate@server@@YAXPAUclientinfo@1@@Z 005c2da0 f   server1.obj
 0001:001c1e50       ?shouldspectate@server@@YA_NPAUclientinfo@1@@Z 005c2e50 f   server1.obj
 0001:001c1e80       ?checkmaps@server@@YAXH@Z  005c2e80 f   server1.obj
 0001:001c22b0       ?forcespectator@server@@YAXPAUclientinfo@1@@Z 005c32b0 f   server1.obj
 0001:001c2330       ?cleartimedevents@server@@YAXPAUclientinfo@1@@Z 005c3330 f   server1.obj
 0001:001c2430       ?processevents@server@@YAXXZ 005c3430 f   server1.obj
 0001:001c2500       ?flushevents@server@@YAXPAUclientinfo@1@H@Z 005c3500 f   server1.obj
 0001:001c2580       ?clearevent@server@@YAXPAUclientinfo@1@@Z 005c3580 f   server1.obj
 0001:001c25e0       ?flush@timedevent@server@@UAE_NPAUclientinfo@2@H@Z 005c35e0 f   server1.obj
 0001:001c2610       ?flush@gameevent@server@@UAE_NPAUclientinfo@2@H@Z 005c3610 f   server1.obj
 0001:001c2620       ?process@pickupevent@server@@UAEXPAUclientinfo@2@@Z 005c3620 f   server1.obj
 0001:001c2730       ?process@shotevent@server@@UAEXPAUclientinfo@2@@Z 005c3730 f   server1.obj
 0001:001c2a50       ?process@explodeevent@server@@UAEXPAUclientinfo@2@@Z 005c3a50 f   server1.obj
 0001:001c2ce0       ?process@suicideevent@server@@UAEXPAUclientinfo@2@@Z 005c3ce0 f   server1.obj
 0001:001c2cf0       ?suicide@server@@YAXPAUclientinfo@1@@Z 005c3cf0 f   server1.obj
 0001:001c2dd0       ?dodamage@server@@YAXPAUclientinfo@1@0HHABUvec@@@Z 005c3dd0 f   server1.obj
 0001:001c3340       ?checkintermission@server@@YAXXZ 005c4340 f   server1.obj
 0001:001c33b0       ?vote@server@@YAXPBDHH@Z   005c43b0 f   server1.obj
 0001:001c3620       ?checkvotes@server@@YAX_N@Z 005c4620 f   server1.obj
 0001:001c3900       ?rotatemap@server@@YAX_N@Z 005c4900 f   server1.obj
 0001:001c3a60       ?changemap@server@@YAXPBDH@Z 005c4a60 f   server1.obj
 0001:001c41c0       ?loaditems@server@@YAXXZ   005c51c0 f   server1.obj
 0001:001c4440       ?sendinitclient@server@@YAXPAUclientinfo@1@@Z 005c5440 f   server1.obj
 0001:001c4520       ?sendresume@server@@YAXPAUclientinfo@1@@Z 005c5520 f   server1.obj
 0001:001c4580       ?restorescore@server@@YA_NPAUclientinfo@1@@Z 005c5580 f   server1.obj
 0001:001c4630       ?welcomepacket@server@@YAHAAUpacketbuf@@PAUclientinfo@1@@Z 005c5630 f   server1.obj
 0001:001c5970       ?hasmap@server@@YA_NPAUclientinfo@1@@Z 005c6970 f   server1.obj
 0001:001c5a50       ?welcomeinitclient@server@@YAXAAUpacketbuf@@H@Z 005c6a50 f   server1.obj
 0001:001c5aa0       ?putinitclient@server@@YAXPAUclientinfo@1@AAUpacketbuf@@@Z 005c6aa0 f   server1.obj
 0001:001c6150       ?sendwelcome@server@@YAXPAUclientinfo@1@@Z 005c7150 f   server1.obj
 0001:001c6240       ?sendspawn@server@@YAXPAUclientinfo@1@@Z 005c7240 f   server1.obj
 0001:001c62a0       ?spawnstate@server@@YAXPAUclientinfo@1@@Z 005c72a0 f   server1.obj
 0001:001c62c0       ?buildworldstate@server@@YA_NXZ 005c72c0 f   server1.obj
 0001:001c6d20       ?flushclientposition@server@@YAXAAUclientinfo@1@@Z 005c7d20 f   server1.obj
 0001:001c6e30       ?cleanworldstate@server@@YAXPAU_ENetPacket@@@Z 005c7e30 f   server1.obj
 0001:001c6ed0       ?checktype@server@@YAHHPAUclientinfo@1@@Z 005c7ed0 f   server1.obj
 0001:001c6fd0       ?savescore@server@@YAXPAUclientinfo@1@@Z 005c7fd0 f   server1.obj
 0001:001c6ff0       ?findscore@server@@YAPAUsavedscore@1@PAUclientinfo@1@_N@Z 005c7ff0 f   server1.obj
 0001:001c7270       ?trykick@server@@YA_NPAUclientinfo@1@HPBD11H_N@Z 005c8270 f   server1.obj
 0001:001c7460       ?setmaster@server@@YA_NPAUclientinfo@1@_NPBD22H11@Z 005c8460 f   server1.obj
 0001:001c7a90       ?revokemaster@server@@YAXPAUclientinfo@1@@Z 005c8a90 f   server1.obj
 0001:001c7ac0       ?checkpassword@server@@YA_NPAUclientinfo@1@PBD1@Z 005c8ac0 f   server1.obj
 0001:001c7b00       ?clearusers@server@@YAXXZ  005c8b00 f   server1.obj
 0001:001c7b40       ?adduser@server@@YAXPAD000@Z 005c8b40 f   server1.obj
 0001:001c7db0       ?changegamespeed@server@@YAXHPAUclientinfo@1@@Z 005c8db0 f   server1.obj
 0001:001c7e00       ?checkpausegame@server@@YAXXZ 005c8e00 f   server1.obj
 0001:001c7e80       ?pausegame@server@@YAX_NPAUclientinfo@1@@Z 005c8e80 f   server1.obj
 0001:001c7ec0       ?readdemo@server@@YAXXZ    005c8ec0 f   server1.obj
 0001:001c7fc0       ?setupdemoplayback@server@@YAXXZ 005c8fc0 f   server1.obj
 0001:001c8140       ?enddemoplayback@server@@YAXXZ 005c9140 f   server1.obj
 0001:001c81e0       ?senddemo@server@@YAXPAUclientinfo@1@H@Z 005c91e0 f   server1.obj
 0001:001c82c0       ?cleardemos@server@@YAXH@Z 005c92c0 f   server1.obj
 0001:001c83b0       ?listdemos@server@@YAXH@Z  005c93b0 f   server1.obj
 0001:001c85d0       ?setupdemorecord@server@@YAXXZ 005c95d0 f   server1.obj
 0001:001c8730       ?writedemo@server@@YAXHPAXH@Z 005c9730 f   server1.obj
 0001:001c87a0       ?enddemorecord@server@@YAXXZ 005c97a0 f   server1.obj
 0001:001c88b0       ?adddemo@server@@YAXXZ     005c98b0 f   server1.obj
 0001:001c8af0       ?prunedemos@server@@YAXH@Z 005c9af0 f   server1.obj
 0001:001c8ba0       ?chooseworstteam@server@@YAPBDPBDPAUclientinfo@1@@Z 005c9ba0 f   server1.obj
 0001:001c8d30       ?autoteam@server@@YAXXZ    005c9d30 f   server1.obj
 0001:001c9090       ?choosebestclient@server@@YAPAUclientinfo@1@AAM@Z 005ca090 f   server1.obj
 0001:001c9120       ?addteaminfo@server@@YAPAUteaminfo@@PBD@Z 005ca120 f   server1.obj
 0001:001c92b0       ?pruneteaminfo@server@@YA_NXZ 005ca2b0 f   server1.obj
 0001:001c93d0       ?teamhasplayers@server@@YA_NPBD@Z 005ca3d0 f   server1.obj
 0001:001c9410       ?clearteaminfo@server@@YAXXZ 005ca410 f   server1.obj
 0001:001c9460       ?pickup@server@@YA_NHH@Z   005ca460 f   server1.obj
 0001:001c9530       ?spawntime@server@@YAHH@Z  005ca530 f   server1.obj
 0001:001c9630       ?canspawnitem@server@@YA_NH@Z 005ca630 f   server1.obj
 0001:001c9680       ?colorname@server@@YAPBDPAUclientinfo@1@PBD@Z 005ca680 f   server1.obj
 0001:001c9730       ?duplicatename@server@@YA_NPAUclientinfo@1@PBD@Z 005ca730 f   server1.obj
 0001:001c9790       ?numclients@server@@YAHH_N00@Z 005ca790 f   server1.obj
 0001:001c9800       ?serveroption@server@@YA_NPBD@Z 005ca800 f   server1.obj
 0001:001c98a0       ?resetitems@server@@YAXXZ  005ca8a0 f   server1.obj
 0001:001c98c0       ?sendservmsgf@server@@YAXPBDZZ 005ca8c0 f   server1.obj
 0001:001c9920       ?privname@server@@YAPBDH@Z 005ca920 f   server1.obj
 0001:001c9950       ?getinfo@server@@YAPAUclientinfo@1@H@Z 005ca950 f   server1.obj
 0001:001c99a0       ?checkteamkills@server@@YAXXZ 005ca9a0 f   server1.obj
 0001:001c9a90       ?addteamkill@server@@YAXPAUclientinfo@1@0H@Z 005caa90 f   server1.obj
 0001:001c9bf0       ?addteamkillkick@server@@YAXPADPAH1@Z 005cabf0 f   server1.obj
 0001:001c9d90       ?teamkillkickreset@server@@YAXXZ 005cad90 f   server1.obj
 0001:001c9da0       ?var_publicserver@server@@YAXXZ 005cada0 f   server1.obj
 0001:001c9dd0       ?addmaprotations@server@@YAXPAUtagval@@H@Z 005cadd0 f   server1.obj
 0001:001ca0b0       ?addmaprotation@server@@YA_NHPBD@Z 005cb0b0 f   server1.obj
 0001:001ca140       ?genmodemask@server@@YAHAAU?$vector@PAD@@@Z 005cb140 f   server1.obj
 0001:001ca290       ?searchmodename@server@@YA_NPBD0@Z 005cb290 f   server1.obj
 0001:001ca310       ?findmaprotation@server@@YAHHPBD@Z 005cb310 f   server1.obj
 0001:001ca570       ?nextmaprotation@server@@YAXXZ 005cb570 f   server1.obj
 0001:001ca5c0       ?maprotationreset@server@@YAXXZ 005cb5c0 f   server1.obj
 0001:001ca5e0       ?kickclients@server@@YAXIPAUclientinfo@1@H@Z 005cb5e0 f   server1.obj
 0001:001ca680       ?addban@server@@YAXIH@Z    005cb680 f   server1.obj
 0001:001ca790       ?hashpassword@server@@YAXHHPBDPADH@Z 005cb790 f   server1.obj
 0001:001ca820       ?forcemap@server@@YAXPBDH@Z 005cb820 f   server1.obj
 0001:001ca900       ?startintermission@server@@YAXXZ 005cb900 f   server1.obj
 0001:001ca920       ?forcepaused@server@@YAX_N@Z 005cb920 f   server1.obj
 0001:001ca950       ?msgsizelookup@server@@YAHH@Z 005cb950 f   server1.obj
 0001:001ca9b0       ?stopdemo@server@@YAXXZ    005cb9b0 f   server1.obj
 0001:001ca9e0       ?forcegamespeed@server@@YAXH@Z 005cb9e0 f   server1.obj
 0001:001caa20       ?modename@server@@YAPBDHPBD@Z 005cba20 f   server1.obj
 0001:001caa40       ?mastermodename@server@@YAPBDHPBD@Z 005cba40 f   server1.obj
 0001:001caa60       ?delayspawn@server@@YA_NH@Z 005cba60 f   server1.obj
 0001:001caab0       ?parseoptions@game@@YAXAAU?$vector@PBD@@@Z 005cbab0 f   server1.obj
 0001:001cab80       ?servercompatible@server@@YA_NPAD00HABU?$vector@H@@H@Z 005cbb80 f   server1.obj
 0001:001cab90       ?newclientinfo@server@@YAPAXXZ 005cbb90 f   server1.obj
 0001:001cabf0       ?deleteclientinfo@server@@YAXPAX@Z 005cbbf0 f   server1.obj
 0001:001cac00       ?recordpacket@server@@YAXHPAXH@Z 005cbc00 f   server1.obj
 0001:001cac10       ?allowbroadcast@server@@YA_NH@Z 005cbc10 f   server1.obj
 0001:001cac70       ?clientdisconnect@server@@YAXH@Z 005cbc70 f   server1.obj
 0001:001cae70       ?sendservmsg@server@@YAXPBD@Z 005cbe70 f   server1.obj
 0001:001cae90       ?parsepacket@server@@YAXHHAAUpacketbuf@@@Z 005cbe90 f   server1.obj
 0001:001cd980       ?masterdisconnected@server@@YAXXZ 005ce980 f   server1.obj
 0001:001cda10       ?defaultmaster@server@@YAPBDXZ 005cea10 f   server1.obj
 0001:001cda20       ?masterport@server@@YAHXZ  005cea20 f   server1.obj
 0001:001cda30       ?processmasterinput@server@@YAXPBDH0@Z 005cea30 f   server1.obj
 0001:001cdca0       ?serverinforeply@server@@YAXAAU?$databuf@E@@0@Z 005ceca0 f   server1.obj
 0001:001cde90       ?masterconnected@server@@YAXXZ 005cee90 f   server1.obj
 0001:001cdea0       ?serverupdate@server@@YAXXZ 005ceea0 f   server1.obj
 0001:001ce470       ?sendpackets@server@@YA_N_N@Z 005cf470 f   server1.obj
 0001:001ce4e0       ?scaletime@server@@YAHH@Z  005cf4e0 f   server1.obj
 0001:001ce4f0       ?ispaused@server@@YA_NXZ   005cf4f0 f   server1.obj
 0001:001ce500       ?clientconnect@server@@YAHHI@Z 005cf500 f   server1.obj
 0001:001ce5e0       ?localdisconnect@server@@YAXH@Z 005cf5e0 f   server1.obj
 0001:001ce610       ?localconnect@server@@YAXH@Z 005cf610 f   server1.obj
 0001:001ce700       ?reserveclients@server@@YAHXZ 005cf700 f   server1.obj
 0001:001ce710       ?serverinfoport@server@@YAHH@Z 005cf710 f   server1.obj
 0001:001ce720       ?laninfoport@server@@YAHXZ 005cf720 f   server1.obj
 0001:001ce730       ?serverinit@server@@YAXXZ  005cf730 f   server1.obj
 0001:001ce760       ?serverport@server@@YAHH@Z 005cf760 f   server1.obj
 0001:001ce770       ?numchannels@server@@YAHXZ 005cf770 f   server1.obj
 0001:001ce780       ?gameident@game@@YAPBDXZ   005cf780 f   server1.obj
 0001:001ce790       __allshr                   005cf790 f   LIBCMT:llshr.obj
 0001:001ce7c0       __aulldiv                  005cf7c0 f   LIBCMT:ulldiv.obj
 0001:001ce830       __ftoui3                   005cf830 f   LIBCMT:_ftol3_.obj
 0001:001ce83f       __ftoul3                   005cf83f f   LIBCMT:_ftol3_.obj
 0001:001ce84e       __ftol3                    005cf84e f   LIBCMT:_ftol3_.obj
 0001:001ce85b       __ftol3_NaN                005cf85b f   LIBCMT:_ftol3_.obj
 0001:001ce873       __ftol3_work               005cf873 f   LIBCMT:_ftol3_.obj
 0001:001ce8f9       __ftol3_common             005cf8f9 f   LIBCMT:_ftol3_.obj
 0001:001ce9bb       __ftol3_arg_error          005cf9bb f   LIBCMT:_ftol3_.obj
 0001:001ce9cd       __ftol3_except             005cf9cd f   LIBCMT:_ftol3_.obj
 0001:001cea11       __dtoui3                   005cfa11 f   LIBCMT:_ftol3_.obj
 0001:001cea20       __dtoul3                   005cfa20 f   LIBCMT:_ftol3_.obj
 0001:001cea2f       __dtol3                    005cfa2f f   LIBCMT:_ftol3_.obj
 0001:001cea3c       __dtol3_NaN                005cfa3c f   LIBCMT:_ftol3_.obj
 0001:001cea59       __dtol3_work               005cfa59 f   LIBCMT:_ftol3_.obj
 0001:001ceb40       __ultod3                   005cfb40 f   LIBCMT:_ftol3_.obj
 0001:001ceb80       __ltod3                    005cfb80 f   LIBCMT:_ftol3_.obj
 0001:001cebb8       __except_handler3          005cfbb8 f   libvcruntime:_exsup3_.obj
 0001:001cecc4       __seh_longjmp_unwind@4     005cfcc4 f   libvcruntime:_exsup3_.obj
 0001:001ceceb       _CallDestructExceptionObject 005cfceb f   libvcruntime:_calldtor_.obj
 0001:001cedf0       __ValidateEH3RN            005cfdf0 f   libvcruntime:_eh3valid_.obj
 0001:001d4fe0       ??__Fmeshgroups@?1??sharemeshes@animmodel@@QAAPAUmeshgroup@1@PBDZZ@YAXXZ 005d5fe0 f i rendermodel.obj
 0001:001d5060       ??__Fskeletons@?1??shareskeleton@skelmeshgroup@skelmodel@@QAEXPAD@Z@YAXXZ 005d6060 f i rendermodel.obj
 0001:001d6210       ??__Ftargets@?O@??aidefend@captureclientmode@game@@UAE_NPAUfpsent@@AAUaistate@ai@@@Z@YAXXZ 005d7210 f i client1.obj
 0001:001d6230       ??__Ftargets@?3??aifind@captureclientmode@game@@UAEXPAUfpsent@@AAUaistate@ai@@AAU?$vector@Uinterest@ai@@@@@Z@YAXXZ 005d7230 f i client1.obj
 0001:001d6250       ??__Ftargets@?BA@??aidefend@ctfclientmode@game@@UAE_NPAUfpsent@@AAUaistate@ai@@@Z@YAXXZ 005d7250 f i client1.obj
 0001:001d6270       ??__Ftargets@?6??aifind@ctfclientmode@game@@UAEXPAUfpsent@@AAUaistate@ai@@AAU?$vector@Uinterest@ai@@@@@Z@YAXXZ 005d7270 f i client1.obj
 0001:001d6290       ??__Ftakenflags@?1??aicheck@ctfclientmode@game@@UAE_NPAUfpsent@@AAUaistate@ai@@@Z@YAXXZ 005d7290 f i client1.obj
 0001:001d62b0       ??__Finterests@?4??aihomerun@ctfclientmode@game@@QAE_NPAUfpsent@@AAUaistate@ai@@@Z@YAXXZ 005d72b0 f i client1.obj
 0002:00000000       __imp__VirtualQuery@12     005d8000     kernel32:KERNEL32.dll
 0002:00000004       __imp__SetEndOfFile@4      005d8004     kernel32:KERNEL32.dll
 0002:00000008       __imp__HeapReAlloc@16      005d8008     kernel32:KERNEL32.dll
 0002:0000000c       __imp__HeapSize@12         005d800c     kernel32:KERNEL32.dll
 0002:00000010       __imp__WriteConsoleW@20    005d8010     kernel32:KERNEL32.dll
 0002:00000014       __imp__CreateFileW@28      005d8014     kernel32:KERNEL32.dll
 0002:00000018       __imp__SetStdHandle@8      005d8018     kernel32:KERNEL32.dll
 0002:0000001c       __imp__GetProcessHeap@0    005d801c     kernel32:KERNEL32.dll
 0002:00000020       __imp__SetEnvironmentVariableA@8 005d8020     kernel32:KERNEL32.dll
 0002:00000024       __imp__FreeEnvironmentStringsW@4 005d8024     kernel32:KERNEL32.dll
 0002:00000028       __imp__GetEnvironmentStringsW@0 005d8028     kernel32:KERNEL32.dll
 0002:0000002c       __imp__IsDebuggerPresent@0 005d802c     kernel32:KERNEL32.dll
 0002:00000030       __imp__IsProcessorFeaturePresent@4 005d8030     kernel32:KERNEL32.dll
 0002:00000034       __imp__GetProcAddress@8    005d8034     kernel32:KERNEL32.dll
 0002:00000038       __imp__GetModuleHandleW@4  005d8038     kernel32:KERNEL32.dll
 0002:0000003c       __imp__CreateEventW@16     005d803c     kernel32:KERNEL32.dll
 0002:00000040       __imp__WaitForSingleObjectEx@12 005d8040     kernel32:KERNEL32.dll
 0002:00000044       __imp__ResetEvent@4        005d8044     kernel32:KERNEL32.dll
 0002:00000048       __imp__SetEvent@4          005d8048     kernel32:KERNEL32.dll
 0002:0000004c       __imp__DeleteCriticalSection@4 005d804c     kernel32:KERNEL32.dll
 0002:00000050       __imp__InitializeCriticalSectionAndSpinCount@8 005d8050     kernel32:KERNEL32.dll
 0002:00000054       __imp__LeaveCriticalSection@4 005d8054     kernel32:KERNEL32.dll
 0002:00000058       __imp__EnterCriticalSection@4 005d8058     kernel32:KERNEL32.dll
 0002:0000005c       __imp__SetUnhandledExceptionFilter@4 005d805c     kernel32:KERNEL32.dll
 0002:00000060       __imp__GetStartupInfoW@4   005d8060     kernel32:KERNEL32.dll
 0002:00000064       __imp__QueryPerformanceCounter@4 005d8064     kernel32:KERNEL32.dll
 0002:00000068       __imp__GetCurrentProcessId@0 005d8068     kernel32:KERNEL32.dll
 0002:0000006c       __imp__GetCurrentThreadId@0 005d806c     kernel32:KERNEL32.dll
 0002:00000070       __imp__GetSystemTimeAsFileTime@4 005d8070     kernel32:KERNEL32.dll
 0002:00000074       __imp__InitializeSListHead@4 005d8074     kernel32:KERNEL32.dll
 0002:00000078       __imp__TerminateProcess@8  005d8078     kernel32:KERNEL32.dll
 0002:0000007c       __imp__RtlUnwind@16        005d807c     kernel32:KERNEL32.dll
 0002:00000080       __imp__GetLastError@0      005d8080     kernel32:KERNEL32.dll
 0002:00000084       __imp__SetLastError@4      005d8084     kernel32:KERNEL32.dll
 0002:00000088       __imp__EncodePointer@4     005d8088     kernel32:KERNEL32.dll
 0002:0000008c       __imp__TlsAlloc@0          005d808c     kernel32:KERNEL32.dll
 0002:00000090       __imp__TlsGetValue@4       005d8090     kernel32:KERNEL32.dll
 0002:00000094       __imp__TlsSetValue@8       005d8094     kernel32:KERNEL32.dll
 0002:00000098       __imp__TlsFree@4           005d8098     kernel32:KERNEL32.dll
 0002:0000009c       __imp__FreeLibrary@4       005d809c     kernel32:KERNEL32.dll
 0002:000000a0       __imp__LoadLibraryExW@12   005d80a0     kernel32:KERNEL32.dll
 0002:000000a4       __imp__RaiseException@16   005d80a4     kernel32:KERNEL32.dll
 0002:000000a8       __imp__CreateThread@24     005d80a8     kernel32:KERNEL32.dll
 0002:000000ac       __imp__ExitThread@4        005d80ac     kernel32:KERNEL32.dll
 0002:000000b0       __imp__FindClose@4         005d80b0     kernel32:KERNEL32.dll
 0002:000000b4       __imp__FindNextFileA@8     005d80b4     kernel32:KERNEL32.dll
 0002:000000b8       __imp__FindFirstFileA@8    005d80b8     kernel32:KERNEL32.dll
 0002:000000bc       __imp__CreateDirectoryA@8  005d80bc     kernel32:KERNEL32.dll
 0002:000000c0       __imp__GetFileAttributesA@4 005d80c0     kernel32:KERNEL32.dll
 0002:000000c4       __imp__CloseHandle@4       005d80c4     kernel32:KERNEL32.dll
 0002:000000c8       __imp__UnmapViewOfFile@4   005d80c8     kernel32:KERNEL32.dll
 0002:000000cc       __imp__MapViewOfFile@20    005d80cc     kernel32:KERNEL32.dll
 0002:000000d0       __imp__OpenFileMappingA@12 005d80d0     kernel32:KERNEL32.dll
 0002:000000d4       __imp__GetCurrentThread@0  005d80d4     kernel32:KERNEL32.dll
 0002:000000d8       __imp__GetCurrentProcess@0 005d80d8     kernel32:KERNEL32.dll
 0002:000000dc       __imp__SetPriorityClass@8  005d80dc     kernel32:KERNEL32.dll
 0002:000000e0       __imp__GetCommandLineA@0   005d80e0     kernel32:KERNEL32.dll
 0002:000000e4       __imp__SetConsoleOutputCP@4 005d80e4     kernel32:KERNEL32.dll
 0002:000000e8       __imp__SetConsoleCP@4      005d80e8     kernel32:KERNEL32.dll
 0002:000000ec       __imp__SetConsoleScreenBufferSize@8 005d80ec     kernel32:KERNEL32.dll
 0002:000000f0       __imp__GetConsoleScreenBufferInfo@8 005d80f0     kernel32:KERNEL32.dll
 0002:000000f4       __imp__GetStdHandle@4      005d80f4     kernel32:KERNEL32.dll
 0002:000000f8       __imp__SetConsoleTitleA@4  005d80f8     kernel32:KERNEL32.dll
 0002:000000fc       __imp__GetConsoleWindow@0  005d80fc     kernel32:KERNEL32.dll
 0002:00000100       __imp__SetConsoleCtrlHandler@8 005d8100     kernel32:KERNEL32.dll
 0002:00000104       __imp__AllocConsole@0      005d8104     kernel32:KERNEL32.dll
 0002:00000108       __imp__WriteConsoleA@20    005d8108     kernel32:KERNEL32.dll
 0002:0000010c       __imp__FreeLibraryAndExitThread@8 005d810c     kernel32:KERNEL32.dll
 0002:00000110       __imp__GetModuleHandleExW@12 005d8110     kernel32:KERNEL32.dll
 0002:00000114       __imp__MultiByteToWideChar@24 005d8114     kernel32:KERNEL32.dll
 0002:00000118       __imp__ExitProcess@4       005d8118     kernel32:KERNEL32.dll
 0002:0000011c       __imp__WideCharToMultiByte@32 005d811c     kernel32:KERNEL32.dll
 0002:00000120       __imp__ReadFile@20         005d8120     kernel32:KERNEL32.dll
 0002:00000124       __imp__GetModuleFileNameA@12 005d8124     kernel32:KERNEL32.dll
 0002:00000128       __imp__WriteFile@20        005d8128     kernel32:KERNEL32.dll
 0002:0000012c       __imp__GetACP@0            005d812c     kernel32:KERNEL32.dll
 0002:00000130       __imp__DecodePointer@4     005d8130     kernel32:KERNEL32.dll
 0002:00000134       __imp__HeapAlloc@12        005d8134     kernel32:KERNEL32.dll
 0002:00000138       __imp__HeapFree@12         005d8138     kernel32:KERNEL32.dll
 0002:0000013c       __imp__GetDateFormatW@24   005d813c     kernel32:KERNEL32.dll
 0002:00000140       __imp__GetTimeFormatW@24   005d8140     kernel32:KERNEL32.dll
 0002:00000144       __imp__CompareStringW@24   005d8144     kernel32:KERNEL32.dll
 0002:00000148       __imp__LCMapStringW@24     005d8148     kernel32:KERNEL32.dll
 0002:0000014c       __imp__GetFileType@4       005d814c     kernel32:KERNEL32.dll
 0002:00000150       __imp__DeleteFileW@4       005d8150     kernel32:KERNEL32.dll
 0002:00000154       __imp__MoveFileExW@12      005d8154     kernel32:KERNEL32.dll
 0002:00000158       __imp__GetConsoleCP@0      005d8158     kernel32:KERNEL32.dll
 0002:0000015c       __imp__GetConsoleMode@8    005d815c     kernel32:KERNEL32.dll
 0002:00000160       __imp__GetStringTypeW@16   005d8160     kernel32:KERNEL32.dll
 0002:00000164       __imp__GetTimeZoneInformation@4 005d8164     kernel32:KERNEL32.dll
 0002:00000168       __imp__SetFilePointerEx@20 005d8168     kernel32:KERNEL32.dll
 0002:0000016c       __imp__ReadConsoleW@20     005d816c     kernel32:KERNEL32.dll
 0002:00000170       __imp__FlushFileBuffers@4  005d8170     kernel32:KERNEL32.dll
 0002:00000174       __imp__FindFirstFileExA@24 005d8174     kernel32:KERNEL32.dll
 0002:00000178       __imp__IsValidCodePage@4   005d8178     kernel32:KERNEL32.dll
 0002:0000017c       __imp__GetOEMCP@0          005d817c     kernel32:KERNEL32.dll
 0002:00000180       __imp__GetCPInfo@8         005d8180     kernel32:KERNEL32.dll
 0002:00000184       __imp__GetCommandLineW@0   005d8184     kernel32:KERNEL32.dll
 0002:00000188       __imp__UnhandledExceptionFilter@4 005d8188     kernel32:KERNEL32.dll
 0002:0000018c       \177KERNEL32_NULL_THUNK_DATA 005d818c     kernel32:KERNEL32.dll
 0002:00000190       __imp__glColorMask@16      005d8190     opengl32:OPENGL32.dll
 0002:00000194       __imp__glCopyTexImage2D@32 005d8194     opengl32:OPENGL32.dll
 0002:00000198       __imp__glCopyTexSubImage2D@32 005d8198     opengl32:OPENGL32.dll
 0002:0000019c       __imp__glDepthRange@16     005d819c     opengl32:OPENGL32.dll
 0002:000001a0       __imp__glHint@8            005d81a0     opengl32:OPENGL32.dll
 0002:000001a4       __imp__glTexImage1D@32     005d81a4     opengl32:OPENGL32.dll
 0002:000001a8       __imp__glTexImage2D@36     005d81a8     opengl32:OPENGL32.dll
 0002:000001ac       __imp__glTexParameteriv@12 005d81ac     opengl32:OPENGL32.dll
 0002:000001b0       __imp__glDeleteTextures@8  005d81b0     opengl32:OPENGL32.dll
 0002:000001b4       __imp__glGenTextures@8     005d81b4     opengl32:OPENGL32.dll
 0002:000001b8       __imp__glReadPixels@28     005d81b8     opengl32:OPENGL32.dll
 0002:000001bc       __imp__glTexParameteri@12  005d81bc     opengl32:OPENGL32.dll
 0002:000001c0       __imp__glGetTexLevelParameteriv@16 005d81c0     opengl32:OPENGL32.dll
 0002:000001c4       __imp__glIsEnabled@4       005d81c4     opengl32:OPENGL32.dll
 0002:000001c8       __imp__glPolygonOffset@8   005d81c8     opengl32:OPENGL32.dll
 0002:000001cc       __imp__glCullFace@4        005d81cc     opengl32:OPENGL32.dll
 0002:000001d0       __imp__glFrontFace@4       005d81d0     opengl32:OPENGL32.dll
 0002:000001d4       __imp__glClearDepth@8      005d81d4     opengl32:OPENGL32.dll
 0002:000001d8       __imp__glClearColor@16     005d81d8     opengl32:OPENGL32.dll
 0002:000001dc       __imp__glGetString@4       005d81dc     opengl32:OPENGL32.dll
 0002:000001e0       __imp__glGetIntegerv@8     005d81e0     opengl32:OPENGL32.dll
 0002:000001e4       __imp__glViewport@16       005d81e4     opengl32:OPENGL32.dll
 0002:000001e8       __imp__glScissor@16        005d81e8     opengl32:OPENGL32.dll
 0002:000001ec       __imp__glClear@4           005d81ec     opengl32:OPENGL32.dll
 0002:000001f0       __imp__glFlush@0           005d81f0     opengl32:OPENGL32.dll
 0002:000001f4       __imp__glDrawArrays@12     005d81f4     opengl32:OPENGL32.dll
 0002:000001f8       __imp__glDepthMask@4       005d81f8     opengl32:OPENGL32.dll
 0002:000001fc       __imp__glDepthFunc@4       005d81fc     opengl32:OPENGL32.dll
 0002:00000200       __imp__glPolygonMode@8     005d8200     opengl32:OPENGL32.dll
 0002:00000204       __imp__glDisable@4         005d8204     opengl32:OPENGL32.dll
 0002:00000208       __imp__glBlendFunc@8       005d8208     opengl32:OPENGL32.dll
 0002:0000020c       __imp__glEnable@4          005d820c     opengl32:OPENGL32.dll
 0002:00000210       __imp__glTexSubImage2D@36  005d8210     opengl32:OPENGL32.dll
 0002:00000214       __imp__glPixelStorei@8     005d8214     opengl32:OPENGL32.dll
 0002:00000218       __imp__glBindTexture@8     005d8218     opengl32:OPENGL32.dll
 0002:0000021c       __imp__glTexParameterfv@12 005d821c     opengl32:OPENGL32.dll
 0002:00000220       \177OPENGL32_NULL_THUNK_DATA 005d8220     opengl32:OPENGL32.dll
 0002:00000224       __imp__SDL_free            005d8224     SDL2:SDL2.dll
 0002:00000228       __imp__SDL_ShowCursor      005d8228     SDL2:SDL2.dll
 0002:0000022c       __imp__SDL_SetRelativeMouseMode 005d822c     SDL2:SDL2.dll
 0002:00000230       __imp__SDL_SetWindowGrab   005d8230     SDL2:SDL2.dll
 0002:00000234       __imp__SDL_Quit            005d8234     SDL2:SDL2.dll
 0002:00000238       __imp__SDL_WasInit         005d8238     SDL2:SDL2.dll
 0002:0000023c       __imp__SDL_ShowSimpleMessageBox 005d823c     SDL2:SDL2.dll
 0002:00000240       __imp__SDL_StartTextInput  005d8240     SDL2:SDL2.dll
 0002:00000244       __imp__SDL_StopTextInput   005d8244     SDL2:SDL2.dll
 0002:00000248       __imp__SDL_SetWindowFullscreen 005d8248     SDL2:SDL2.dll
 0002:0000024c       __imp__SDL_SetWindowSize   005d824c     SDL2:SDL2.dll
 0002:00000250       __imp__SDL_SetWindowPosition 005d8250     SDL2:SDL2.dll
 0002:00000254       __imp__SDL_GetWindowFlags  005d8254     SDL2:SDL2.dll
 0002:00000258       __imp__SDL_SetWindowBrightness 005d8258     SDL2:SDL2.dll
 0002:0000025c       __imp__SDL_GetError        005d825c     SDL2:SDL2.dll
 0002:00000260       __imp__SDL_GL_SetSwapInterval 005d8260     SDL2:SDL2.dll
 0002:00000264       __imp__SDL_GL_DeleteContext 005d8264     SDL2:SDL2.dll
 0002:00000268       __imp__SDL_DestroyWindow   005d8268     SDL2:SDL2.dll
 0002:0000026c       __imp__SDL_GetDisplayBounds 005d826c     SDL2:SDL2.dll
 0002:00000270       __imp__SDL_GL_ResetAttributes 005d8270     SDL2:SDL2.dll
 0002:00000274       __imp__SDL_GL_SetAttribute 005d8274     SDL2:SDL2.dll
 0002:00000278       __imp__SDL_CreateWindow    005d8278     SDL2:SDL2.dll
 0002:0000027c       __imp__SDL_GL_CreateContext 005d827c     SDL2:SDL2.dll
 0002:00000280       __imp__SDL_SetWindowMinimumSize 005d8280     SDL2:SDL2.dll
 0002:00000284       __imp__SDL_SetWindowMaximumSize 005d8284     SDL2:SDL2.dll
 0002:00000288       __imp__SDL_GetClipboardText 005d8288     SDL2:SDL2.dll
 0002:0000028c       __imp__SDL_HasClipboardText 005d828c     SDL2:SDL2.dll
 0002:00000290       __imp__SDL_SaveBMP_RW      005d8290     SDL2:SDL2.dll
 0002:00000294       __imp__SDL_FreeRW          005d8294     SDL2:SDL2.dll
 0002:00000298       __imp__SDL_GetColorKey     005d8298     SDL2:SDL2.dll
 0002:0000029c       __imp__SDL_SetSurfaceBlendMode 005d829c     SDL2:SDL2.dll
 0002:000002a0       __imp__SDL_FreeSurface     005d82a0     SDL2:SDL2.dll
 0002:000002a4       __imp__SDL_UpperBlit       005d82a4     SDL2:SDL2.dll
 0002:000002a8       __imp__SDL_CreateRGBSurface 005d82a8     SDL2:SDL2.dll
 0002:000002ac       __imp__SDL_CreateRGBSurfaceFrom 005d82ac     SDL2:SDL2.dll
 0002:000002b0       __imp__SDL_GL_GetProcAddress 005d82b0     SDL2:SDL2.dll
 0002:000002b4       __imp__SDL_DetachThread    005d82b4     SDL2:SDL2.dll
 0002:000002b8       __imp__SDL_ThreadID        005d82b8     SDL2:SDL2.dll
 0002:000002bc       __imp__SDL_GetThreadID     005d82bc     SDL2:SDL2.dll
 0002:000002c0       __imp__SDL_SetMainReady    005d82c0     SDL2:SDL2.dll
 0002:000002c4       __imp__SDL_Delay           005d82c4     SDL2:SDL2.dll
 0002:000002c8       __imp__SDL_RemoveTimer     005d82c8     SDL2:SDL2.dll
 0002:000002cc       __imp__SDL_GetTicks        005d82cc     SDL2:SDL2.dll
 0002:000002d0       __imp__SDL_AddTimer        005d82d0     SDL2:SDL2.dll
 0002:000002d4       __imp__SDL_WaitThread      005d82d4     SDL2:SDL2.dll
 0002:000002d8       __imp__SDL_CreateMutex     005d82d8     SDL2:SDL2.dll
 0002:000002dc       __imp__SDL_DestroyMutex    005d82dc     SDL2:SDL2.dll
 0002:000002e0       __imp__SDL_CreateThread    005d82e0     SDL2:SDL2.dll
 0002:000002e4       __imp__SDL_CreateCond      005d82e4     SDL2:SDL2.dll
 0002:000002e8       __imp__SDL_DestroyCond     005d82e8     SDL2:SDL2.dll
 0002:000002ec       __imp__SDL_CondWaitTimeout 005d82ec     SDL2:SDL2.dll
 0002:000002f0       __imp__SDL_CondBroadcast   005d82f0     SDL2:SDL2.dll
 0002:000002f4       __imp__SDL_CondWait        005d82f4     SDL2:SDL2.dll
 0002:000002f8       __imp__SDL_CondSignal      005d82f8     SDL2:SDL2.dll
 0002:000002fc       __imp__SDL_UnlockMutex     005d82fc     SDL2:SDL2.dll
 0002:00000300       __imp__SDL_LockMutex       005d8300     SDL2:SDL2.dll
 0002:00000304       __imp__SDL_GetModState     005d8304     SDL2:SDL2.dll
 0002:00000308       __imp__SDL_GetWindowSize   005d8308     SDL2:SDL2.dll
 0002:0000030c       __imp__SDL_PollEvent       005d830c     SDL2:SDL2.dll
 0002:00000310       __imp__SDL_AllocRW         005d8310     SDL2:SDL2.dll
 0002:00000314       __imp__SDL_RWFromFile      005d8314     SDL2:SDL2.dll
 0002:00000318       __imp__SDL_GetVersion      005d8318     SDL2:SDL2.dll
 0002:0000031c       __imp__SDL_SetHint         005d831c     SDL2:SDL2.dll
 0002:00000320       __imp__SDL_Init            005d8320     SDL2:SDL2.dll
 0002:00000324       __imp__SDL_GetCPUCount     005d8324     SDL2:SDL2.dll
 0002:00000328       __imp__SDL_GL_SwapWindow   005d8328     SDL2:SDL2.dll
 0002:0000032c       __imp__SDL_WarpMouseInWindow 005d832c     SDL2:SDL2.dll
 0002:00000330       __imp__SDL_PeepEvents      005d8330     SDL2:SDL2.dll
 0002:00000334       __imp__SDL_PumpEvents      005d8334     SDL2:SDL2.dll
 0002:00000338       \177SDL2_NULL_THUNK_DATA   005d8338     SDL2:SDL2.dll
 0002:0000033c       __imp__IMG_LoadTyped_RW    005d833c     SDL2_image:SDL2_image.dll
 0002:00000340       __imp__IMG_Load            005d8340     SDL2_image:SDL2_image.dll
 0002:00000344       \177SDL2_image_NULL_THUNK_DATA 005d8344     SDL2_image:SDL2_image.dll
 0002:00000348       __imp__Mix_PausedMusic     005d8348     SDL2_mixer:SDL2_mixer.dll
 0002:0000034c       __imp__Mix_PlayingMusic    005d834c     SDL2_mixer:SDL2_mixer.dll
 0002:00000350       __imp__Mix_Playing         005d8350     SDL2_mixer:SDL2_mixer.dll
 0002:00000354       __imp__Mix_CloseAudio      005d8354     SDL2_mixer:SDL2_mixer.dll
 0002:00000358       __imp__Mix_LoadWAV_RW      005d8358     SDL2_mixer:SDL2_mixer.dll
 0002:0000035c       __imp__Mix_PlayMusic       005d835c     SDL2_mixer:SDL2_mixer.dll
 0002:00000360       __imp__Mix_LoadMUS         005d8360     SDL2_mixer:SDL2_mixer.dll
 0002:00000364       __imp__Mix_LoadMUSType_RW  005d8364     SDL2_mixer:SDL2_mixer.dll
 0002:00000368       __imp__Mix_AllocateChannels 005d8368     SDL2_mixer:SDL2_mixer.dll
 0002:0000036c       __imp__Mix_FadeInChannelTimed 005d836c     SDL2_mixer:SDL2_mixer.dll
 0002:00000370       __imp__Mix_FreeMusic       005d8370     SDL2_mixer:SDL2_mixer.dll
 0002:00000374       __imp__Mix_HaltMusic       005d8374     SDL2_mixer:SDL2_mixer.dll
 0002:00000378       __imp__Mix_VolumeMusic     005d8378     SDL2_mixer:SDL2_mixer.dll
 0002:0000037c       __imp__Mix_HaltChannel     005d837c     SDL2_mixer:SDL2_mixer.dll
 0002:00000380       __imp__Mix_SetPanning      005d8380     SDL2_mixer:SDL2_mixer.dll
 0002:00000384       __imp__Mix_Volume          005d8384     SDL2_mixer:SDL2_mixer.dll
 0002:00000388       __imp__Mix_FadingChannel   005d8388     SDL2_mixer:SDL2_mixer.dll
 0002:0000038c       __imp__Mix_FreeChunk       005d838c     SDL2_mixer:SDL2_mixer.dll
 0002:00000390       __imp__Mix_SetPostMix      005d8390     SDL2_mixer:SDL2_mixer.dll
 0002:00000394       __imp__Mix_QuerySpec       005d8394     SDL2_mixer:SDL2_mixer.dll
 0002:00000398       __imp__Mix_ResumeMusic     005d8398     SDL2_mixer:SDL2_mixer.dll
 0002:0000039c       __imp__Mix_PlayChannelTimed 005d839c     SDL2_mixer:SDL2_mixer.dll
 0002:000003a0       __imp__Mix_OpenAudio       005d83a0     SDL2_mixer:SDL2_mixer.dll
 0002:000003a4       __imp__Mix_FadeOutChannel  005d83a4     SDL2_mixer:SDL2_mixer.dll
 0002:000003a8       \177SDL2_mixer_NULL_THUNK_DATA 005d83a8     SDL2_mixer:SDL2_mixer.dll
 0002:000003ac       __imp__Shell_NotifyIconA@8 005d83ac     shell32:SHELL32.dll
 0002:000003b0       __imp__SHGetFolderPathA@20 005d83b0     shell32:SHELL32.dll
 0002:000003b4       \177SHELL32_NULL_THUNK_DATA 005d83b4     shell32:SHELL32.dll
 0002:000003b8       __imp__DispatchMessageA@4  005d83b8     user32:USER32.dll
 0002:000003bc       __imp__TranslateMessage@4  005d83bc     user32:USER32.dll
 0002:000003c0       __imp__PeekMessageA@20     005d83c0     user32:USER32.dll
 0002:000003c4       __imp__CreateWindowExA@48  005d83c4     user32:USER32.dll
 0002:000003c8       __imp__RegisterClassA@4    005d83c8     user32:USER32.dll
 0002:000003cc       __imp__AppendMenuA@16      005d83cc     user32:USER32.dll
 0002:000003d0       __imp__CreatePopupMenu@0   005d83d0     user32:USER32.dll
 0002:000003d4       __imp__LoadIconA@8         005d83d4     user32:USER32.dll
 0002:000003d8       __imp__DefWindowProcA@16   005d83d8     user32:USER32.dll
 0002:000003dc       __imp__PostQuitMessage@4   005d83dc     user32:USER32.dll
 0002:000003e0       __imp__ShowWindow@8        005d83e0     user32:USER32.dll
 0002:000003e4       __imp__ModifyMenuA@20      005d83e4     user32:USER32.dll
 0002:000003e8       __imp__PostMessageA@16     005d83e8     user32:USER32.dll
 0002:000003ec       __imp__DestroyMenu@4       005d83ec     user32:USER32.dll
 0002:000003f0       __imp__GetCursorPos@4      005d83f0     user32:USER32.dll
 0002:000003f4       __imp__SetForegroundWindow@4 005d83f4     user32:USER32.dll
 0002:000003f8       __imp__SendMessageA@16     005d83f8     user32:USER32.dll
 0002:000003fc       __imp__UnregisterClassA@8  005d83fc     user32:USER32.dll
 0002:00000400       __imp__TrackPopupMenu@28   005d8400     user32:USER32.dll
 0002:00000404       \177USER32_NULL_THUNK_DATA 005d8404     user32:USER32.dll
 0002:00000408       __imp__timeBeginPeriod@4   005d8408     winmm:WINMM.dll
 0002:0000040c       __imp__timeGetTime@0       005d840c     winmm:WINMM.dll
 0002:00000410       __imp__timeEndPeriod@4     005d8410     winmm:WINMM.dll
 0002:00000414       \177WINMM_NULL_THUNK_DATA  005d8414     winmm:WINMM.dll
 0002:00000418       __imp__WSACleanup@0        005d8418     ws2_32:WS2_32.dll
 0002:0000041c       __imp__htons@4             005d841c     ws2_32:WS2_32.dll
 0002:00000420       __imp__ntohl@4             005d8420     ws2_32:WS2_32.dll
 0002:00000424       __imp____WSAFDIsSet@8      005d8424     ws2_32:WS2_32.dll
 0002:00000428       __imp__ntohs@4             005d8428     ws2_32:WS2_32.dll
 0002:0000042c       __imp__htonl@4             005d842c     ws2_32:WS2_32.dll
 0002:00000430       __imp__WSAStartup@8        005d8430     ws2_32:WS2_32.dll
 0002:00000434       __imp__gethostbyname@4     005d8434     ws2_32:WS2_32.dll
 0002:00000438       __imp__select@20           005d8438     ws2_32:WS2_32.dll
 0002:0000043c       __imp__WSARecvFrom@36      005d843c     ws2_32:WS2_32.dll
 0002:00000440       __imp__WSASendTo@36        005d8440     ws2_32:WS2_32.dll
 0002:00000444       __imp__closesocket@4       005d8444     ws2_32:WS2_32.dll
 0002:00000448       __imp__shutdown@8          005d8448     ws2_32:WS2_32.dll
 0002:0000044c       __imp__accept@12           005d844c     ws2_32:WS2_32.dll
 0002:00000450       __imp__WSAGetLastError@0   005d8450     ws2_32:WS2_32.dll
 0002:00000454       __imp__connect@12          005d8454     ws2_32:WS2_32.dll
 0002:00000458       __imp__getsockopt@20       005d8458     ws2_32:WS2_32.dll
 0002:0000045c       __imp__ioctlsocket@12      005d845c     ws2_32:WS2_32.dll
 0002:00000460       __imp__setsockopt@20       005d8460     ws2_32:WS2_32.dll
 0002:00000464       __imp__socket@12           005d8464     ws2_32:WS2_32.dll
 0002:00000468       __imp__listen@8            005d8468     ws2_32:WS2_32.dll
 0002:0000046c       __imp__getsockname@12      005d846c     ws2_32:WS2_32.dll
 0002:00000470       __imp__bind@12             005d8470     ws2_32:WS2_32.dll
 0002:00000474       __imp__gethostbyaddr@12    005d8474     ws2_32:WS2_32.dll
 0002:00000478       __imp__inet_ntoa@4         005d8478     ws2_32:WS2_32.dll
 0002:0000047c       __imp__inet_addr@4         005d847c     ws2_32:WS2_32.dll
 0002:00000480       \177WS2_32_NULL_THUNK_DATA 005d8480     ws2_32:WS2_32.dll
 0002:00000484       __imp__StackWalk@36        005d8484     dbghelp:dbghelp.dll
 0002:00000488       __imp__SymGetModuleBase@8  005d8488     dbghelp:dbghelp.dll
 0002:0000048c       __imp__SymFunctionTableAccess@8 005d848c     dbghelp:dbghelp.dll
 0002:00000490       __imp__SymGetSymFromAddr@16 005d8490     dbghelp:dbghelp.dll
 0002:00000494       __imp__SymGetLineFromAddr@16 005d8494     dbghelp:dbghelp.dll
 0002:00000498       __imp__SymInitialize@12    005d8498     dbghelp:dbghelp.dll
 0002:0000049c       \177dbghelp_NULL_THUNK_DATA 005d849c     dbghelp:dbghelp.dll
 0002:000004a0       __imp__compress2           005d84a0     zdll:zlib1.dll
 0002:000004a4       __imp__zError              005d84a4     zdll:zlib1.dll
 0002:000004a8       __imp__inflate             005d84a8     zdll:zlib1.dll
 0002:000004ac       __imp__inflateReset        005d84ac     zdll:zlib1.dll
 0002:000004b0       __imp__inflateEnd          005d84b0     zdll:zlib1.dll
 0002:000004b4       __imp__deflateInit2_       005d84b4     zdll:zlib1.dll
 0002:000004b8       __imp__inflateInit2_       005d84b8     zdll:zlib1.dll
 0002:000004bc       __imp__deflateEnd          005d84bc     zdll:zlib1.dll
 0002:000004c0       __imp__deflate             005d84c0     zdll:zlib1.dll
 0002:000004c4       __imp__deflateInit_        005d84c4     zdll:zlib1.dll
 0002:000004c8       __imp__crc32               005d84c8     zdll:zlib1.dll
 0002:000004cc       __imp__uncompress          005d84cc     zdll:zlib1.dll
 0002:000004d0       __imp__compressBound       005d84d0     zdll:zlib1.dll
 0002:000004d4       \177zlib1_NULL_THUNK_DATA  005d84d4     zdll:zlib1.dll
 0002:000004d8       ___guard_check_icall_fptr  005d84d8     LIBCMT:guard_support.obj
 0002:000004dc       ___xc_a                    005d84dc     LIBCMT:initializers.obj
 0002:00001a04       ___xc_z                    005d9a04     LIBCMT:initializers.obj
 0002:00001a08       ___xi_a                    005d9a08     LIBCMT:initializers.obj
 0002:00001a18       ___acrt_stdio_initializer  005d9a18     libucrt:stdio_initializer.obj
 0002:00001a1c       ___acrt_tran_sse2_initializer 005d9a1c     libucrt:sse2_initializer.obj
 0002:00001a20       ___acrt_timeset_initializer 005d9a20     libucrt:timeset_initializer.obj
 0002:00001a24       ___acrt_multibyte_initializer 005d9a24     libucrt:multibyte_initializer.obj
 0002:00001a28       ___xi_z                    005d9a28     LIBCMT:initializers.obj
 0002:00001a2c       ___xl_a                    005d9a2c     LIBCMT:tlssup.obj
 0002:00001a30       ___xl_z                    005d9a30     LIBCMT:tlssup.obj
 0002:00001a34       ___xp_a                    005d9a34     LIBCMT:initializers.obj
 0002:00001a38       ___acrt_locale_terminator  005d9a38     libucrt:locale_initializer.obj
 0002:00001a3c       ___dcrt_console_output_terminator 005d9a3c     libucrt:console_output_initializer.obj
 0002:00001a40       ___acrt_stdio_terminator   005d9a40     libucrt:stdio_initializer.obj
 0002:00001a44       ___xp_z                    005d9a44     LIBCMT:initializers.obj
 0002:00001a48       ___xt_a                    005d9a48     LIBCMT:initializers.obj
 0002:00001a4c       ___xt_z                    005d9a4c     LIBCMT:initializers.obj
 0002:00001b40       ??_C@_1EC@JIJBPKFM@?$AAa?$AAp?$AAi?$AA?9?$AAm?$AAs?$AA?9?$AAw?$AAi?$AAn?$AA?9?$AAc?$AAo?$AAr?$AAe@ 005d9b40     LIBCMT:thread_safe_statics.obj
 0002:00001b84       ??_C@_1BK@MGMFAEKH@?$AAk?$AAe?$AAr?$AAn?$AAe?$AAl?$AA3?$AA2?$AA?4?$AAd?$AAl?$AAl@ 005d9b84     LIBCMT:thread_safe_statics.obj
 0002:00001ba0       ??_C@_0BM@HLJJNPAH@InitializeConditionVariable@ 005d9ba0     LIBCMT:thread_safe_statics.obj
 0002:00001bbc       ??_C@_0BJ@JEBJOJFJ@SleepConditionVariableCS@ 005d9bbc     LIBCMT:thread_safe_statics.obj
 0002:00001bd8       ??_C@_0BJ@PGPPEPCC@WakeAllConditionVariable@ 005d9bd8     LIBCMT:thread_safe_statics.obj
 0002:00001bf8       ??_7type_info@@6B@         005d9bf8     LIBCMT:std_type_info_static.obj
 0002:00001c08       ??_7exception@std@@6B@     005d9c08     libvcruntime:frame.obj
 0002:00001c10       ??_C@_0BC@EOODALEL@Unknown?5exception@ 005d9c10     libvcruntime:frame.obj
 0002:00001c28       ??_7bad_exception@std@@6B@ 005d9c28     libvcruntime:frame.obj
 0002:00001c30       ??_C@_0O@DPKOEFFH@bad?5exception@ 005d9c30     libvcruntime:frame.obj
 0002:00001c4c       ??_C@_1DM@KHCHBNEB@?$AAa?$AAp?$AAi?$AA?9?$AAm?$AAs?$AA?9?$AAw?$AAi?$AAn?$AA?9?$AAc?$AAo?$AAr?$AAe@ 005d9c4c     libvcruntime:winapi_downlevel.obj
 0002:00001c88       ??_C@_1DK@LPPGFMPP@?$AAa?$AAp?$AAi?$AA?9?$AAm?$AAs?$AA?9?$AAw?$AAi?$AAn?$AA?9?$AAc?$AAo?$AAr?$AAe@ 005d9c88     libvcruntime:winapi_downlevel.obj
 0002:00001cc4       ??_C@_1BC@GDMECMAK@?$AAk?$AAe?$AAr?$AAn?$AAe?$AAl?$AA3?$AA2@ 005d9cc4     libvcruntime:winapi_downlevel.obj
 0002:00001cd8       ??_C@_1BA@PFFKHIOG@?$AAa?$AAp?$AAi?$AA?9?$AAm?$AAs?$AA?9@ 005d9cd8     libvcruntime:winapi_downlevel.obj
 0002:00001ce8       ??_C@_1BA@IAIFMGEF@?$AAe?$AAx?$AAt?$AA?9?$AAm?$AAs?$AA?9@ 005d9ce8     libvcruntime:winapi_downlevel.obj
 0002:00001d00       ??_C@_08KNHFBNJ@FlsAlloc@  005d9d00     libvcruntime:winapi_downlevel.obj
 0002:00001d14       ??_C@_07PEJMOBNF@FlsFree@  005d9d14     libvcruntime:winapi_downlevel.obj
 0002:00001d24       ??_C@_0M@GDNOONDI@FlsGetValue@ 005d9d24     libvcruntime:winapi_downlevel.obj
 0002:00001d38       ??_C@_0M@JCPCPOEF@FlsSetValue@ 005d9d38     libvcruntime:winapi_downlevel.obj
 0002:00001d4c       ??_C@_0BM@HCFOFFN@InitializeCriticalSectionEx@ 005d9d4c     libvcruntime:winapi_downlevel.obj
 0002:00001f04       ??_C@_08EHJDFFNH@__based?$CI@ 005d9f04     libvcruntime:undname.obj
 0002:00001f10       ??_C@_07KOLFKCDI@__cdecl@  005d9f10     libvcruntime:undname.obj
 0002:00001f18       ??_C@_08GHMPAG@__pascal@   005d9f18     libvcruntime:undname.obj
 0002:00001f24       ??_C@_09IFJBGAPI@__stdcall@ 005d9f24     libvcruntime:undname.obj
 0002:00001f30       ??_C@_0L@NPHFGOKO@__thiscall@ 005d9f30     libvcruntime:undname.obj
 0002:00001f3c       ??_C@_0L@JMKHOMEK@__fastcall@ 005d9f3c     libvcruntime:undname.obj
 0002:00001f48       ??_C@_0N@BCKKPABJ@__vectorcall@ 005d9f48     libvcruntime:undname.obj
 0002:00001f58       ??_C@_09HIJEGCPM@__clrcall@ 005d9f58     libvcruntime:undname.obj
 0002:00001f64       ??_C@_06GHPCKEAG@__eabi@   005d9f64     libvcruntime:undname.obj
 0002:00001f6c       ??_C@_09IOPIDJLG@__swift_1@ 005d9f6c     libvcruntime:undname.obj
 0002:00001f78       ??_C@_09KFNFGKHF@__swift_2@ 005d9f78     libvcruntime:undname.obj
 0002:00001f84       ??_C@_07JOMMBBKO@__ptr64@  005d9f84     libvcruntime:undname.obj
 0002:00001f8c       ??_C@_0L@PILCLIHE@__restrict@ 005d9f8c     libvcruntime:undname.obj
 0002:00001f98       ??_C@_0M@GFIIJFMG@__unaligned@ 005d9f98     libvcruntime:undname.obj
 0002:00001fa4       ??_C@_09DHDLOLLB@restrict?$CI@ 005d9fa4     libvcruntime:undname.obj
 0002:00001fb0       ??_C@_04NIHEBCM@?5new@     005d9fb0     libvcruntime:undname.obj
 0002:00001fb8       ??_C@_07FPCDHGMM@?5delete@ 005d9fb8     libvcruntime:undname.obj
 0002:00001fc0       ??_C@_02EGOFBIJA@?$DN?$DN@ 005d9fc0     libvcruntime:undname.obj
 0002:00001fc4       ??_C@_02GPECMEKF@?$FL?$FN@ 005d9fc4     libvcruntime:undname.obj
 0002:00001fc8       ??_C@_08LHJFAFGD@operator@ 005d9fc8     libvcruntime:undname.obj
 0002:00001fd4       ??_C@_02HBOOOICD@?9?$DO@   005d9fd4     libvcruntime:undname.obj
 0002:00001fd8       ??_C@_02ECNGHCIF@?$CL?$CL@ 005d9fd8     libvcruntime:undname.obj
 0002:00001fdc       ??_C@_02BAABKJLB@?9?9@     005d9fdc     libvcruntime:undname.obj
 0002:00001fe0       ??_C@_03MNHNFDLC@?9?$DO?$CK@ 005d9fe0     libvcruntime:undname.obj
 0002:00001fe4       ??_C@_01FGNFDNOH@?$CF@     005d9fe4     libvcruntime:undname.obj
 0002:00001fe8       ??_C@_02HCKGKOFO@?$CI?$CJ@ 005d9fe8     libvcruntime:undname.obj
 0002:00001fec       ??_C@_02FPIMKNGF@?$CK?$DN@ 005d9fec     libvcruntime:undname.obj
 0002:00001ff0       ??_C@_02FOEOMHFC@?$CL?$DN@ 005d9ff0     libvcruntime:undname.obj
 0002:00001ff4       ??_C@_02FKMDLLOA@?9?$DN@   005d9ff4     libvcruntime:undname.obj
 0002:00001ff8       ??_C@_02FJEHGPIO@?1?$DN@   005d9ff8     libvcruntime:undname.obj
 0002:00001ffc       ??_C@_02FENAOKFI@?$CF?$DN@ 005d9ffc     libvcruntime:undname.obj
 0002:00002000       ??_C@_03IKFCCPFF@?$DO?$DO?$DN@ 005da000     libvcruntime:undname.obj
 0002:00002004       ??_C@_03CDNPDDLA@?$DM?$DM?$DN@ 005da004     libvcruntime:undname.obj
 0002:00002008       ??_C@_02FGJGFEAB@?$CG?$DN@ 005da008     libvcruntime:undname.obj
 0002:0000200c       ??_C@_02DHLNPPGH@?$HM?$DN@ 005da00c     libvcruntime:undname.obj
 0002:00002010       ??_C@_02MHEGNOJ@?$FO?$DN@  005da010     libvcruntime:undname.obj
 0002:00002014       ??_C@_09IFPLHPGF@?$GAvftable?8@ 005da014     libvcruntime:undname.obj
 0002:00002020       ??_C@_09BLBHBJP@?$GAvbtable?8@ 005da020     libvcruntime:undname.obj
 0002:0000202c       ??_C@_07FEEIOKP@?$GAvcall?8@ 005da02c     libvcruntime:undname.obj
 0002:00002034       ??_C@_08LLFFHHDJ@?$GAtypeof?8@ 005da034     libvcruntime:undname.obj
 0002:00002040       ??_C@_0BF@KDPPACIK@?$GAlocal?5static?5guard?8@ 005da040     libvcruntime:undname.obj
 0002:00002058       ??_C@_08OBABFOLI@?$GAstring?8@ 005da058     libvcruntime:undname.obj
 0002:00002064       ??_C@_0BD@JDLKDPAB@?$GAvbase?5destructor?8@ 005da064     libvcruntime:undname.obj
 0002:00002078       ??_C@_0BN@DEGPLNFK@?$GAvector?5deleting?5destructor?8@ 005da078     libvcruntime:undname.obj
 0002:00002098       ??_C@_0BO@OBMKPJIG@?$GAdefault?5constructor?5closure?8@ 005da098     libvcruntime:undname.obj
 0002:000020b8       ??_C@_0BN@IMDCHIKM@?$GAscalar?5deleting?5destructor?8@ 005da0b8     libvcruntime:undname.obj
 0002:000020d8       ??_C@_0BO@PFGOCPJJ@?$GAvector?5constructor?5iterator?8@ 005da0d8     libvcruntime:undname.obj
 0002:000020f8       ??_C@_0BN@LFPFMEDL@?$GAvector?5destructor?5iterator?8@ 005da0f8     libvcruntime:undname.obj
 0002:00002118       ??_C@_0CE@IKBNEHA@?$GAvector?5vbase?5constructor?5itera@ 005da118     libvcruntime:undname.obj
 0002:0000213c       ??_C@_0BL@NILFHHPC@?$GAvirtual?5displacement?5map?8@ 005da13c     libvcruntime:undname.obj
 0002:00002158       ??_C@_0CB@JONCMFFK@?$GAeh?5vector?5constructor?5iterator@ 005da158     libvcruntime:undname.obj
 0002:0000217c       ??_C@_0CA@GCEOPDGL@?$GAeh?5vector?5destructor?5iterator?8@ 005da17c     libvcruntime:undname.obj
 0002:0000219c       ??_C@_0CH@OOJPLCPH@?$GAeh?5vector?5vbase?5constructor?5it@ 005da19c     libvcruntime:undname.obj
 0002:000021c4       ??_C@_0BL@LLKPOHJI@?$GAcopy?5constructor?5closure?8@ 005da1c4     libvcruntime:undname.obj
 0002:000021e0       ??_C@_0BA@KBCDOMBN@?$GAudt?5returning?8@ 005da1e0     libvcruntime:undname.obj
 0002:000021f0       ??_C@_03KLGMFNMG@?$GAEH@   005da1f0     libvcruntime:undname.obj
 0002:000021f4       ??_C@_05KHLCHHI@?$GARTTI@  005da1f4     libvcruntime:undname.obj
 0002:000021fc       ??_C@_0BA@KKLDJDLB@?$GAlocal?5vftable?8@ 005da1fc     libvcruntime:undname.obj
 0002:0000220c       ??_C@_0CE@IIHCMGGL@?$GAlocal?5vftable?5constructor?5clos@ 005da20c     libvcruntime:undname.obj
 0002:00002230       ??_C@_06FHBGPFGH@?5new?$FL?$FN@ 005da230     libvcruntime:undname.obj
 0002:00002238       ??_C@_09LBNFPBCA@?5delete?$FL?$FN@ 005da238     libvcruntime:undname.obj
 0002:00002244       ??_C@_0P@HJKNJFNN@?$GAomni?5callsig?8@ 005da244     libvcruntime:undname.obj
 0002:00002254       ??_C@_0BL@CNOONJFP@?$GAplacement?5delete?5closure?8@ 005da254     libvcruntime:undname.obj
 0002:00002270       ??_C@_0BN@CKNJLHMB@?$GAplacement?5delete?$FL?$FN?5closure?8@ 005da270     libvcruntime:undname.obj
 0002:00002290       ??_C@_0CG@CFDHKGGD@?$GAmanaged?5vector?5constructor?5ite@ 005da290     libvcruntime:undname.obj
 0002:000022b8       ??_C@_0CF@IMGKMJNO@?$GAmanaged?5vector?5destructor?5iter@ 005da2b8     libvcruntime:undname.obj
 0002:000022e0       ??_C@_0CG@HLDDJMAG@?$GAeh?5vector?5copy?5constructor?5ite@ 005da2e0     libvcruntime:undname.obj
 0002:00002308       ??_C@_0CM@FCBBDIGB@?$GAeh?5vector?5vbase?5copy?5construct@ 005da308     libvcruntime:undname.obj
 0002:00002334       ??_C@_0BL@CLIPGLGB@?$GAdynamic?5initializer?5for?5?8@ 005da334     libvcruntime:undname.obj
 0002:00002350       ??_C@_0CB@PDBIFEP@?$GAdynamic?5atexit?5destructor?5for?5@ 005da350     libvcruntime:undname.obj
 0002:00002374       ??_C@_0CD@CGAJBKEJ@?$GAvector?5copy?5constructor?5iterat@ 005da374     libvcruntime:undname.obj
 0002:00002398       ??_C@_0CJ@GJELGAMM@?$GAvector?5vbase?5copy?5constructor?5@ 005da398     libvcruntime:undname.obj
 0002:000023c4       ??_C@_0CL@FGIJHLCE@?$GAmanaged?5vector?5copy?5constructo@ 005da3c4     libvcruntime:undname.obj
 0002:000023f0       ??_C@_0BM@PMGGMLDN@?$GAlocal?5static?5thread?5guard?8@ 005da3f0     libvcruntime:undname.obj
 0002:0000240c       ??_C@_0N@BDNMDMOL@operator?5?$CC?$CC?5@ 005da40c     libvcruntime:undname.obj
 0002:0000241c       ??_C@_0BC@GGEBGALA@operator?5co_await@ 005da41c     libvcruntime:undname.obj
 0002:00002430       ??_C@_0BC@DAFEJGAK@?5Type?5Descriptor?8@ 005da430     libvcruntime:undname.obj
 0002:00002444       ??_C@_0BM@LDKODKLH@?5Base?5Class?5Descriptor?5at?5?$CI@ 005da444     libvcruntime:undname.obj
 0002:00002460       ??_C@_0BD@LGICGFMM@?5Base?5Class?5Array?8@ 005da460     libvcruntime:undname.obj
 0002:00002474       ??_C@_0BN@MECKDCOJ@?5Class?5Hierarchy?5Descriptor?8@ 005da474     libvcruntime:undname.obj
 0002:00002494       ??_C@_0BK@CFCOFLF@?5Complete?5Object?5Locator?8@ 005da494     libvcruntime:undname.obj
 0002:000024b0       __pDestructExceptionObject 005da4b0     libvcruntime:ehhelpers.obj
 0002:000025a8       _standard_lookup_table     005da5a8     libucrt:output.obj
 0002:00002604       ??_C@_06OJHGLDPL@?$CInull?$CJ?$AA@ 005da604     libucrt:output.obj
 0002:0000260c       ??_C@_1O@CEDCILHN@?$AA?$CI?$AAn?$AAu?$AAl?$AAl?$AA?$CJ?$AA?$AA@ 005da60c     libucrt:output.obj
 0002:00002634       __half                     005da634     libucrt:pow.obj
 0002:00002640       __OP_FMODjmptab            005da640     libucrt:87fmod.obj
 0002:00002698       ??_C@_13CGOKJPIL@?$AA?1?$AA?$AA@ 005da698     libucrt:exit.obj
 0002:0000269c       ??_C@_1BI@BGOHAHKC@?$AAm?$AAs?$AAc?$AAo?$AAr?$AAe?$AAe?$AA?4?$AAd?$AAl?$AAl?$AA?$AA@ 005da69c     libucrt:exit.obj
 0002:000026b4       ??_C@_0P@MIGLKIOC@CorExitProcess?$AA@ 005da6b4     libucrt:exit.obj
 0002:000026c8       ?large_power_data@?1??multiply_by_power_of_ten@__crt_strtox@@YA_NAAUbig_integer@2@I@Z@4QBIB 005da6c8     libucrt:input.obj
 0002:00002fd0       ?large_power_indices@?1??multiply_by_power_of_ten@__crt_strtox@@YA_NAAUbig_integer@2@I@Z@4QBUunpack_index@?1??12@YA_N0I@Z@B 005dafd0     libucrt:input.obj
 0002:00003068       ?small_powers_of_ten@?6??multiply_by_power_of_ten@__crt_strtox@@YA_NAAUbig_integer@2@I@Z@4QBIB 005db068     libucrt:input.obj
 0002:00003090       ??_C@_1GE@DPGDJKLM@?$AAm?$AAi?$AAn?$AAk?$AAe?$AAr?$AAn?$AAe?$AAl?$AA?2?$AAc?$AAr?$AAt?$AAs?$AA?2?$AAu?$AAc?$AAr?$AAt?$AA?2?$AAi?$AAn?$AAc?$AA?2?$AAc?$AAo?$AAr?$AAe?$AAc?$AAr?$AAt?$AA_@ 005db090     libucrt:input.obj
 0002:000030f8       ??_C@_1FM@FELNCOBF@?$AA_?$AA_?$AAc?$AAr?$AAt?$AA_?$AAs?$AAt?$AAr?$AAt?$AAo?$AAx?$AA?3?$AA?3?$AAf?$AAl?$AAo?$AAa?$AAt?$AAi?$AAn?$AAg?$AA_?$AAp?$AAo?$AAi?$AAn?$AAt?$AA_?$AAv?$AAa?$AAl@ 005db0f8     libucrt:input.obj
 0002:00003154       ??_C@_1BG@GEMHBGAF@?$AA_?$AAi?$AAs?$AA_?$AAd?$AAo?$AAu?$AAb?$AAl?$AAe?$AA?$AA@ 005db154     libucrt:input.obj
 0002:00003170       ??_C@_1FK@JOJELFFO@?$AA_?$AA_?$AAc?$AAr?$AAt?$AA_?$AAs?$AAt?$AAr?$AAt?$AAo?$AAx?$AA?3?$AA?3?$AAf?$AAl?$AAo?$AAa?$AAt?$AAi?$AAn?$AAg?$AA_?$AAp?$AAo?$AAi?$AAn?$AAt?$AA_?$AAv?$AAa?$AAl@ 005db170     libucrt:input.obj
 0002:000031cc       ??_C@_1BI@BANMPGJI@?$AA?$CB?$AA_?$AAi?$AAs?$AA_?$AAd?$AAo?$AAu?$AAb?$AAl?$AAe?$AA?$AA@ 005db1cc     libucrt:input.obj
 0002:000031e8       ?constraints@?1??is_length_valid@__crt_stdio_input@@YA_NW4conversion_mode@2@W4length_modifier@2@@Z@4QAY0M@$$CBEA 005db1e8     libucrt:input.obj
 0002:00003260       ?inf_uppercase@?2???$parse_floating_point_possible_infinity@DV?$input_adapter_character_source@V?$string_input_adapter@D@__crt_stdio_input@@@__crt_strtox@@_K@__crt_strtox@@YA?AW4floating_point_parse_result@1@AADAAV?$input_adapter_character_source@V?$string_input_adapter@D@__crt_stdio_input@@@1@_K@Z@4QBDB 005db260     libucrt:input.obj
 0002:00003264       ?inf_lowercase@?2???$parse_floating_point_possible_infinity@DV?$input_adapter_character_source@V?$string_input_adapter@D@__crt_stdio_input@@@__crt_strtox@@_K@__crt_strtox@@YA?AW4floating_point_parse_result@1@AADAAV?$input_adapter_character_source@V?$string_input_adapter@D@__crt_stdio_input@@@1@_K@Z@4QBDB 005db264     libucrt:input.obj
 0002:00003268       ?inity_uppercase@?5???$parse_floating_point_possible_infinity@DV?$input_adapter_character_source@V?$string_input_adapter@D@__crt_stdio_input@@@__crt_strtox@@_K@__crt_strtox@@YA?AW4floating_point_parse_result@1@AADAAV?$input_adapter_character_source@V?$string_input_adapter@D@__crt_stdio_input@@@1@_K@Z@4QBDB 005db268     libucrt:input.obj
 0002:00003270       ?inity_lowercase@?5???$parse_floating_point_possible_infinity@DV?$input_adapter_character_source@V?$string_input_adapter@D@__crt_stdio_input@@@__crt_strtox@@_K@__crt_strtox@@YA?AW4floating_point_parse_result@1@AADAAV?$input_adapter_character_source@V?$string_input_adapter@D@__crt_stdio_input@@@1@_K@Z@4QBDB 005db270     libucrt:input.obj
 0002:00003278       ?uppercase@?2???$parse_floating_point_possible_nan@DV?$input_adapter_character_source@V?$string_input_adapter@D@__crt_stdio_input@@@__crt_strtox@@_K@__crt_strtox@@YA?AW4floating_point_parse_result@1@AADAAV?$input_adapter_character_source@V?$string_input_adapter@D@__crt_stdio_input@@@1@_K@Z@4QBDB 005db278     libucrt:input.obj
 0002:0000327c       ?lowercase@?2???$parse_floating_point_possible_nan@DV?$input_adapter_character_source@V?$string_input_adapter@D@__crt_stdio_input@@@__crt_strtox@@_K@__crt_strtox@@YA?AW4floating_point_parse_result@1@AADAAV?$input_adapter_character_source@V?$string_input_adapter@D@__crt_stdio_input@@@1@_K@Z@4QBDB 005db27c     libucrt:input.obj
 0002:00003280       ?uppercase@?1???$parse_floating_point_possible_nan_is_snan@DV?$input_adapter_character_source@V?$string_input_adapter@D@__crt_stdio_input@@@__crt_strtox@@@__crt_strtox@@YA_NAADAAV?$input_adapter_character_source@V?$string_input_adapter@D@__crt_stdio_input@@@1@@Z@4QBDB 005db280     libucrt:input.obj
