 cardboard_msvc

 Timestamp is 5bdc6a4c (Fri Nov  2 09:16:28 2018)

 Preferred load address is 0000000140000000

 Start         Length     Name                   Class
 0001:00000000 00006810H .text                   CODE
 0001:00006810 000181f0H .text$di                CODE
 0001:0001ea00 001f0b90H .text$mn                CODE
 0001:0020f590 00000020H .text$mn$00             CODE
 0001:0020f5b0 00005800H .text$x                 CODE
 0001:00214db0 00002426H .text$yd                CODE
 0002:00000000 000009c8H .idata$5                DATA
 0002:000009c8 00000010H .00cfg                  DATA
 0002:000009d8 00000008H .CRT$XCA                DATA
 0002:000009e0 00000008H .CRT$XCAA               DATA
 0002:000009e8 00002a40H .CRT$XCU                DATA
 0002:00003428 00000008H .CRT$XCZ                DATA
 0002:00003430 00000008H .CRT$XIA                DATA
 0002:00003438 00000008H .CRT$XIAA               DATA
 0002:00003440 00000008H .CRT$XIAC               DATA
 0002:00003448 00000028H .CRT$XIC                DATA
 0002:00003470 00000008H .CRT$XIZ                DATA
 0002:00003478 00000008H .CRT$XLA                DATA
 0002:00003480 00000008H .CRT$XLZ                DATA
 0002:00003488 00000008H .CRT$XPA                DATA
 0002:00003490 00000010H .CRT$XPX                DATA
 0002:000034a0 00000008H .CRT$XPXA               DATA
 0002:000034a8 00000008H .CRT$XPZ                DATA
 0002:000034b0 00000008H .CRT$XTA                DATA
 0002:000034b8 00000008H .CRT$XTZ                DATA
 0002:000034c0 00000000H .gfids$x                DATA
 0002:000034c0 00000000H .gfids$y                DATA
 0002:000034c0 0002a120H .rdata                  DATA
 0002:0002d5e0 00000028H .rdata$T                DATA
 0002:0002d608 00002ac8H .rdata$r                DATA
 0002:000300d0 000000e0H .rdata$zzz              DATA
 0002:000301b0 00000448H .rdata$zzzdbg           DATA
 0002:000305f8 00000008H .rtc$IAA                DATA
 0002:00030600 00000008H .rtc$IZZ                DATA
 0002:00030608 00000008H .rtc$TAA                DATA
 0002:00030610 00000008H .rtc$TZZ                DATA
 0002:00030618 00000004H .tls                    DATA
 0002:0003061c 00000004H .tls$                   DATA
 0002:00030620 00000010H .tls$ZZZ                DATA
 0002:00030630 000280a8H .xdata                  DATA
 0002:000586d8 00000084H .xdata$x                DATA
 0002:0005875c 00000000H .edata                  DATA
 0002:0005875c 000000dcH .idata$2                DATA
 0002:00058838 00000018H .idata$3                DATA
 0002:00058850 000009c8H .idata$4                DATA
 0002:00059218 00001448H .idata$6                DATA
 0003:00000000 00007b40H .data                   DATA
 0003:00007b40 00000d80H .data$r                 DATA
 0003:000088c0 000db474H .bss                    DATA
 0004:00000000 0001911cH .pdata                  DATA
 0005:00000000 00001a20H _RDATA                  DATA
 0006:00000000 000000f0H .rsrc$01                DATA
 0006:000000f0 00004bc8H .rsrc$02                DATA

  Address         Publics by Value              Rva+Base               Lib:Object

 0000:00000000       __guard_fids_count         0000000000000000     <absolute>
 0000:00000000       __enclave_config           0000000000000000     <absolute>
 0000:00000000       __guard_longjmp_table      0000000000000000     <absolute>
 0000:00000000       __hybrid_code_map          0000000000000000     <absolute>
 0000:00000000       __guard_iat_count          0000000000000000     <absolute>
 0000:00000000       __hybrid_code_map_count    0000000000000000     <absolute>
 0000:00000000       __guard_iat_table          0000000000000000     <absolute>
 0000:00000000       __volatile_metadata        0000000000000000     <absolute>
 0000:00000000       __guard_fids_table         0000000000000000     <absolute>
 0000:00000000       __guard_longjmp_count      0000000000000000     <absolute>
 0000:00000000       __hybrid_auxiliary_iat     0000000000000000     <absolute>
 0000:00000000       __dynamic_value_reloc_table 0000000000000000     <absolute>
 0000:00000100       __guard_flags              0000000000000100     <absolute>
 0000:00000000       __ImageBase                0000000140000000     <linker-defined>
 0001:00000000       enet_host_create           0000000140001000 f   enet:host.o
 0001:000003d0       enet_host_destroy          00000001400013d0 f   enet:host.o
 0001:00000470       enet_host_connect          0000000140001470 f   enet:host.o
 0001:000006b0       enet_host_broadcast        00000001400016b0 f   enet:host.o
 0001:00000740       enet_host_compress         0000000140001740 f   enet:host.o
 0001:000007c0       enet_host_channel_limit    00000001400017c0 f   enet:host.o
 0001:000007e0       enet_host_bandwidth_limit  00000001400017e0 f   enet:host.o
 0001:000007f0       enet_host_bandwidth_throttle 00000001400017f0 f   enet:host.o
 0001:00000b60       enet_peer_throttle_configure 0000000140001b60 f   enet:peer.o
 0001:00000d40       enet_peer_throttle         0000000140001d40 f   enet:peer.o
 0001:00000dd0       enet_peer_receive          0000000140001dd0 f   enet:peer.o
 0001:00000e50       enet_peer_reset_queues     0000000140001e50 f   enet:peer.o
 0001:00001190       enet_peer_on_connect       0000000140002190 f   enet:peer.o
 0001:000011c0       enet_peer_on_disconnect    00000001400021c0 f   enet:peer.o
 0001:000011f0       enet_peer_reset            00000001400021f0 f   enet:peer.o
 0001:00001400       enet_peer_ping_interval    0000000140002400 f   enet:peer.o
 0001:00001420       enet_peer_timeout          0000000140002420 f   enet:peer.o
 0001:00001460       enet_peer_queue_acknowledgement 0000000140002460 f   enet:peer.o
 0001:00001530       enet_peer_setup_outgoing_command 0000000140002530 f   enet:peer.o
 0001:000016a0       enet_peer_disconnect_later 00000001400026a0 f   enet:peer.o
 0001:000017d0       enet_peer_ping             00000001400027d0 f   enet:peer.o
 0001:00001820       enet_peer_disconnect       0000000140002820 f   enet:peer.o
 0001:000018f0       enet_peer_disconnect_now   00000001400028f0 f   enet:peer.o
 0001:00001b80       enet_peer_send             0000000140002b80 f   enet:peer.o
 0001:00001e80       enet_peer_queue_outgoing_command 0000000140002e80 f   enet:peer.o
 0001:00002090       enet_peer_dispatch_incoming_unreliable_commands 0000000140003090 f   enet:peer.o
 0001:000022e0       enet_peer_dispatch_incoming_reliable_commands 00000001400032e0 f   enet:peer.o
 0001:000023d0       enet_peer_queue_incoming_command 00000001400033d0 f   enet:peer.o
 0001:00002850       enet_initialize            0000000140003850 f   enet:win32.o
 0001:000028d0       enet_deinitialize          00000001400038d0 f   enet:win32.o
 0001:000028f0       enet_host_random_seed      00000001400038f0 f   enet:win32.o
 0001:00002900       enet_time_get              0000000140003900 f   enet:win32.o
 0001:00002920       enet_time_set              0000000140003920 f   enet:win32.o
 0001:00002940       enet_address_set_host      0000000140003940 f   enet:win32.o
 0001:00002990       enet_address_get_host_ip   0000000140003990 f   enet:win32.o
 0001:000029f0       enet_address_get_host      00000001400039f0 f   enet:win32.o
 0001:00002a70       enet_socket_bind           0000000140003a70 f   enet:win32.o
 0001:00002ae0       enet_socket_get_address    0000000140003ae0 f   enet:win32.o
 0001:00002b30       enet_socket_listen         0000000140003b30 f   enet:win32.o
 0001:00002b60       enet_socket_create         0000000140003b60 f   enet:win32.o
 0001:00002b80       enet_socket_set_option     0000000140003b80 f   enet:win32.o
 0001:00002ce0       enet_socket_get_option     0000000140003ce0 f   enet:win32.o
 0001:00002d30       enet_socket_connect        0000000140003d30 f   enet:win32.o
 0001:00002dc0       enet_socket_accept         0000000140003dc0 f   enet:win32.o
 0001:00002e30       enet_socket_shutdown       0000000140003e30 f   enet:win32.o
 0001:00002e50       enet_socket_destroy        0000000140003e50 f   enet:win32.o
 0001:00002e70       enet_socket_send           0000000140003e70 f   enet:win32.o
 0001:00002f50       enet_socket_receive        0000000140003f50 f   enet:win32.o
 0001:00003020       enet_socketset_select      0000000140004020 f   enet:win32.o
 0001:00003070       enet_socket_wait           0000000140004070 f   enet:win32.o
 0001:000041e0       enet_protocol_command_size 00000001400051e0 f   enet:protocol.o
 0001:000041f0       enet_host_flush            00000001400051f0 f   enet:protocol.o
 0001:00004670       enet_host_check_events     0000000140005670 f   enet:protocol.o
 0001:000047e0       enet_host_service          00000001400057e0 f   enet:protocol.o
 0001:00006320       enet_packet_create         0000000140007320 f   enet:packet.o
 0001:000063d0       enet_packet_destroy        00000001400073d0 f   enet:packet.o
 0001:00006420       enet_packet_resize         0000000140007420 f   enet:packet.o
 0001:00006490       enet_crc32                 0000000140007490 f   enet:packet.o
 0001:000066d0       enet_initialize_with_callbacks 00000001400076d0 f   enet:callbacks.o
 0001:00006720       enet_linked_version        0000000140007720 f   enet:callbacks.o
 0001:00006730       enet_malloc                0000000140007730 f   enet:callbacks.o
 0001:00006760       enet_free                  0000000140007760 f   enet:callbacks.o
 0001:00006770       enet_list_clear            0000000140007770 f   enet:list.o
 0001:00006780       enet_list_insert           0000000140007780 f   enet:list.o
 0001:000067a0       enet_list_remove           00000001400077a0 f   enet:list.o
 0001:000067c0       enet_list_move             00000001400077c0 f   enet:list.o
 0001:000067f0       enet_list_size             00000001400077f0 f   enet:list.o
 0001:0001ea00       ?gentex@BlendBrush@@QEAAXXZ 000000014001fa00 f i blend.obj
 0001:0001eb70       ?cleanup@ImageData@@QEAAXXZ 000000014001fb70 f i blend.obj
 0001:0001ebc0       ??1ImageData@@QEAA@XZ      000000014001fbc0 f i blend.obj
 0001:0001ec10       ??0ImageData@@QEAA@XZ      000000014001fc10 f i blend.obj
 0001:0001ec30       ?newstring@@YAPEADPEBD@Z   000000014001fc30 f i blend.obj
 0001:0001eca0       ??0lightcacheentry@@QEAA@XZ 000000014001fca0 f i lightmap.obj
 0001:0001eca0       ??0<unnamed-type-waterplanes>@@QEAA@XZ 000000014001fca0 f i pvs.obj
 0001:0001ecd0       ??1<unnamed-type-waterplanes>@@QEAA@XZ 000000014001fcd0 f i pvs.obj
 0001:0001ecd0       ??1lightcacheentry@@QEAA@XZ 000000014001fcd0 f i lightmap.obj
 0001:0001ed00       ?clear@?$hashbase@U?$hashset@Ulayoutinfo@@@@Ulayoutinfo@@U2@U2@@@QEAAXXZ 000000014001fd00 f i lightmap.obj
 0001:0001ed70       ??1?$hashbase@U?$hashset@Ulayoutinfo@@@@Ulayoutinfo@@U2@U2@@@QEAA@XZ 000000014001fd70 f i lightmap.obj
 0001:0001ede0       ??1?$vector@Umd5joint@@@@QEAA@XZ 000000014001fde0 f i rendermodel.obj
 0001:0001ede0       ??1?$vector@Umesh@BIH@@@@QEAA@XZ 000000014001fde0 f i rendermodel.obj
 0001:0001ede0       ??1?$vector@Uskelcacheentry@skelmodel@@@@QEAA@XZ 000000014001fde0 f i rendermodel.obj
 0001:0001ede0       ??1?$vector@UUniformLoc@@@@QEAA@XZ 000000014001fde0 f i shader.obj
 0001:0001ede0       ??1?$vector@Uvotecount@server@@@@QEAA@XZ 000000014001fde0 f i server1.obj
 0001:0001ede0       ??1?$vector@UTex@Slot@@@@QEAA@XZ 000000014001fde0 f i texture.obj
 0001:0001ede0       ??1?$vector@Uvert@vertmodel@@@@QEAA@XZ 000000014001fde0 f i rendermodel.obj
 0001:0001ede0       ??1?$vector@Upitchtarget@skelmodel@@@@QEAA@XZ 000000014001fde0 f i rendermodel.obj
 0001:0001ede0       ??1?$vector@Ublendcombo@skelmodel@@@@QEAA@XZ 000000014001fde0 f i rendermodel.obj
 0001:0001ede0       ??1?$vector@Utcvert@vertmodel@@@@QEAA@XZ 000000014001fde0 f i rendermodel.obj
 0001:0001ede0       ??1?$vector@Uvertex@@@@QEAA@XZ 000000014001fde0 f i octarender.obj
 0001:0001ede0       ??1?$vector@Ueditline@@@@QEAA@XZ 000000014001fde0 f i 3dgui.obj
 0001:0001ede0       ??1?$vector@Uvert@ragdollskel@@@@QEAA@XZ 000000014001fde0 f i rendermodel.obj
 0001:0001ede0       ??1?$vector@Ubase@collectclientmode@game@@@@QEAA@XZ 000000014001fde0 f i client1.obj
 0001:0001ede0       ??1?$vector@Uvvertbump@skelmodel@@@@QEAA@XZ 000000014001fde0 f i rendermodel.obj
 0001:0001ede0       ??1?$vector@Uscore@captureclientmode@game@@@@QEAA@XZ 000000014001fde0 f i client1.obj
 0001:0001ede0       ??1?$vector@Uvvertn@skelmodel@@@@QEAA@XZ 000000014001fde0 f i rendermodel.obj
 0001:0001ede0       ??1?$vector@Uwaterinfo@@@@QEAA@XZ 000000014001fde0 f i material.obj
 0001:0001ede0       ??1?$vector@Usortitem@@@@QEAA@XZ 000000014001fde0 f i command.obj
 0001:0001ede0       ??1?$vector@Usortkey@@@@QEAA@XZ 000000014001fde0 f i octarender.obj
 0001:0001ede0       ??1?$vector@Uvvertnw@skelmodel@@@@QEAA@XZ 000000014001fde0 f i rendermodel.obj
 0001:0001ede0       ??1?$vector@Upitchdep@skelmodel@@@@QEAA@XZ 000000014001fde0 f i rendermodel.obj
 0001:0001ede0       ??1?$vector@UGlobalShaderParamUse@@@@QEAA@XZ 000000014001fde0 f i shader.obj
 0001:0001ede0       ??1?$vector@Usoundslot@@@@QEAA@XZ 000000014001fde0 f i sound.obj
 0001:0001ede0       ??1?$vector@Uvert@skelmodel@@@@QEAA@XZ 000000014001fde0 f i rendermodel.obj
 0001:0001ede0       ??1?$vector@Uaistate@ai@@@@QEAA@XZ 000000014001fde0 f i ai.obj
 0001:0001ede0       ??1?$vector@Ufacebounds@@@@QEAA@XZ 000000014001fde0 f i octarender.obj
 0001:0001ede0       ??1?$vector@Udistlimit@ragdollskel@@@@QEAA@XZ 000000014001fde0 f i rendermodel.obj
 0001:0001ede0       ??1?$vector@Utri@vertmodel@@@@QEAA@XZ 000000014001fde0 f i rendermodel.obj
 0001:0001ede0       ??1?$vector@Ulightmaptask@@@@QEAA@XZ 000000014001fde0 f i lightmap.obj
 0001:0001ede0       ??1?$vector@Upoly@@@@QEAA@XZ 000000014001fde0 f i octa.obj
 0001:0001ede0       ??1?$vector@Uvec@@@@QEAA@XZ 000000014001fde0 f i worldio.obj
 0001:0001ede0       ??1?$vector@Usmdbone@@@@QEAA@XZ 000000014001fde0 f i rendermodel.obj
 0001:0001ede0       ??1?$vector@Usoundconfig@@@@QEAA@XZ 000000014001fde0 f i sound.obj
 0001:0001ede0       ??1?$vector@Uskin@animmodel@@@@QEAA@XZ 000000014001fde0 f i rendermodel.obj
 0001:0001ede0       ??1?$vector@Uantipode@skelmodel@@@@QEAA@XZ 000000014001fde0 f i rendermodel.obj
 0001:0001ede0       ??1?$vector@Uholdspawn@ctfservmode@server@@@@QEAA@XZ 000000014001fde0 f i server1.obj
 0001:0001ede0       ??1?$vector@Uvvertbumpw@skelmodel@@@@QEAA@XZ 000000014001fde0 f i rendermodel.obj
 0001:0001ede0       ??1?$vector@Ulinkedpart@animmodel@@@@QEAA@XZ 000000014001fde0 f i rendermodel.obj
 0001:0001ede0       ??1?$vector@Urotfriction@ragdollskel@@@@QEAA@XZ 000000014001fde0 f i rendermodel.obj
 0001:0001ede0       ??1?$vector@Uufval@unionfind@@@@QEAA@XZ 000000014001fde0 f i material.obj
 0001:0001ede0       ??1?$vector@Urotlimit@ragdollskel@@@@QEAA@XZ 000000014001fde0 f i rendermodel.obj
 0001:0001ede0       ??1?$vector@Utri@skelmodel@@@@QEAA@XZ 000000014001fde0 f i rendermodel.obj
 0001:0001ede0       ??1?$vector@Uscore@captureservmode@server@@@@QEAA@XZ 000000014001fde0 f i server1.obj
 0001:0001ede0       ??1?$vector@ULocalShaderParamState@@@@QEAA@XZ 000000014001fde0 f i shader.obj
 0001:0001ede0       ??1?$vector@Uteamscore@@@@QEAA@XZ 000000014001fde0 f i scoreboard.obj
 0001:0001ede0       ??1?$vector@Ubaseinfo@captureclientmode@game@@@@QEAA@XZ 000000014001fde0 f i client1.obj
 0001:0001ede0       ??1?$vector@Uvertex@prefabmesh@@@@QEAA@XZ 000000014001fde0 f i octaedit.obj
 0001:0001ede0       ??1?$vector@Umergedface@@@@QEAA@XZ 000000014001fde0 f i octarender.obj
 0001:0001ede0       ??1?$vector@Upitchcorrect@skelmodel@@@@QEAA@XZ 000000014001fde0 f i rendermodel.obj
 0001:0001ede0       ??1?$vector@Umd5hierarchy@@@@QEAA@XZ 000000014001fde0 f i rendermodel.obj
 0001:0001ede0       ??1?$vector@Ubatchedmodel@@@@QEAA@XZ 000000014001fde0 f i rendermodel.obj
 0001:0001ede0       ??1?$vector@UAttribLoc@@@@QEAA@XZ 000000014001fde0 f i shader.obj
 0001:0001ede0       ??1?$vector@Uanimspec@animmodel@@@@QEAA@XZ 000000014001fde0 f i rendermodel.obj
 0001:0001ede0       ??1?$vector@Uipmask@@@@QEAA@XZ 000000014001fde0 f i server1.obj
 0001:0001ede0       ??1?$vector@Umaterialsurface@@@@QEAA@XZ 000000014001fde0 f i octarender.obj
 0001:0001ede0       ??1?$vector@USlotShaderParamState@@@@QEAA@XZ 000000014001fde0 f i shader.obj
 0001:0001ede0       ??1?$vector@Ucrcinfo@server@@@@QEAA@XZ 000000014001fde0 f i server1.obj
 0001:0001ede0       ??1?$vector@Uvec2@@@@QEAA@XZ 000000014001fde0 f i worldio.obj
 0001:0001ede0       ??1?$vector@Uflag@ctfservmode@server@@@@QEAA@XZ 000000014001fde0 f i server1.obj
 0001:0001ede0       ??1?$vector@Udualquat@@@@QEAA@XZ 000000014001fde0 f i rendermodel.obj
 0001:0001ede0       ??1?$vector@Uflag@ctfclientmode@game@@@@QEAA@XZ 000000014001fde0 f i client1.obj
 0001:0001ede0       ??1?$vector@Unode@wpcache@ai@@@@QEAA@XZ 000000014001fde0 f i waypoint.obj
 0001:0001ede0       ??1?$vector@Uaviindexentry@@@@QEAA@XZ 000000014001fde0 f i movie.obj
 0001:0001ede0       ??1?$vector@Uavisegmentinfo@@@@QEAA@XZ 000000014001fde0 f i movie.obj
 0001:0001ede0       ??1?$vector@Utri@ragdollskel@@@@QEAA@XZ 000000014001fde0 f i rendermodel.obj
 0001:0001ede0       ??1?$vector@Uvvertbump@vertmodel@@@@QEAA@XZ 000000014001fde0 f i rendermodel.obj
 0001:0001ede0       ??1?$vector@Ubase@collectservmode@server@@@@QEAA@XZ 000000014001fde0 f i server1.obj
 0001:0001ede0       ??1?$vector@Ugrasstri@@@@QEAA@XZ 000000014001fde0 f i octarender.obj
 0001:0001ede0       ??1?$vector@Ubaseinfo@captureservmode@server@@@@QEAA@XZ 000000014001fde0 f i server1.obj
 0001:0001ede0       ??1?$vector@Uobstacle@avoidset@ai@@@@QEAA@XZ 000000014001fde0 f i ai.obj
 0001:0001ede0       ??1?$vector@Ucharinfo@font@@@@QEAA@XZ 000000014001fde0 f i rendertext.obj
 0001:0001ede0       ??1?$vector@Uholdspawn@ctfclientmode@game@@@@QEAA@XZ 000000014001fde0 f i client1.obj
 0001:0001ede0       ??1?$vector@Uvvertn@vertmodel@@@@QEAA@XZ 000000014001fde0 f i rendermodel.obj
 0001:0001ede0       ??1?$vector@Utoken@collectclientmode@game@@@@QEAA@XZ 000000014001fde0 f i client1.obj
 0001:0001ede0       ??1?$vector@Utoken@collectservmode@server@@@@QEAA@XZ 000000014001fde0 f i server1.obj
 0001:0001ede0       ??1?$vector@Utransparentmodel@@@@QEAA@XZ 000000014001fde0 f i rendermodel.obj
 0001:0001ede0       ??1?$vector@Ujoint@ragdollskel@@@@QEAA@XZ 000000014001fde0 f i rendermodel.obj
 0001:0001ede0       ??1?$vector@Uhitinfo@server@@@@QEAA@XZ 000000014001fde0 f i server1.obj
 0001:0001ede0       ??1?$vector@Ureljoint@ragdollskel@@@@QEAA@XZ 000000014001fde0 f i rendermodel.obj
 0001:0001ede0       ??1?$vector@USlotShaderParam@@@@QEAA@XZ 000000014001fde0 f i octaedit.obj
 0001:0001ede0       ??1?$vector@Uivec2@@@@QEAA@XZ 000000014001fde0 f i worldio.obj
 0001:0001ee10       ??0?$vector@D@@QEAA@XZ     000000014001fe10 f i worldio.obj
 0001:0001ee10       ??0?$vector@Ulightmaptask@@@@QEAA@XZ 000000014001fe10 f i lightmap.obj
 0001:0001ee10       ??0?$vector@PEAD@@QEAA@XZ  000000014001fe10 f i server.obj
 0001:0001ee10       ??0?$vector@Uanimspec@animmodel@@@@QEAA@XZ 000000014001fe10 f i rendermodel.obj
 0001:0001ee10       ??0?$vector@PEAUclientinfo@server@@@@QEAA@XZ 000000014001fe10 f i server1.obj
 0001:0001ee10       ??0?$vector@G@@QEAA@XZ     000000014001fe10 f i octaedit.obj
 0001:0001ee10       ??0?$vector@Umergedface@@@@QEAA@XZ 000000014001fe10 f i octarender.obj
 0001:0001ee10       ??0?$vector@Uvec@@@@QEAA@XZ 000000014001fe10 f i worldio.obj
 0001:0001ee10       ??0?$vector@Ufacebounds@@@@QEAA@XZ 000000014001fe10 f i octarender.obj
 0001:0001ee10       ??0?$vector@E@@QEAA@XZ     000000014001fe10 f i octaedit.obj
 0001:0001ee10       ??0?$vector@PEAUvtxarray@@@@QEAA@XZ 000000014001fe10 f i octarender.obj
 0001:0001ee20       ?add@?$vector@PEAUlightmapworker@@@@QEAAAEAPEAUlightmapworker@@AEBQEAU2@@Z 000000014001fe20 f i lightmap.obj
 0001:0001ef40       ??1?$vector@PEAUmaterialsurface@@@@QEAA@XZ 000000014001ff40 f i pvs.obj
 0001:0001ef40       ??1?$vector@PEAUident@@@@QEAA@XZ 000000014001ff40 f i command.obj
 0001:0001ef40       ??1?$vector@PEAUvtxarray@@@@QEAA@XZ 000000014001ff40 f i octarender.obj
 0001:0001ef40       ??1?$vector@PEAUextentity@@@@QEAA@XZ 000000014001ff40 f i entities.obj
 0001:0001ef40       ??1?$vector@E@@QEAA@XZ     000000014001ff40 f i octaedit.obj
 0001:0001ef40       ??1?$vector@G@@QEAA@XZ     000000014001ff40 f i octaedit.obj
 0001:0001ef40       ??1?$vector@I@@QEAA@XZ     000000014001ff40 f i command.obj
 0001:0001ef40       ??1?$vector@PEAUgameevent@server@@@@QEAA@XZ 000000014001ff40 f i server1.obj
 0001:0001ef40       ??1?$vector@PEAUShader@@@@QEAA@XZ 000000014001ff40 f i shader.obj
 0001:0001ef40       ??1?$vector@D@@QEAA@XZ     000000014001ff40 f i worldio.obj
 0001:0001ef40       ??1?$vector@PEAUkeym@@@@QEAA@XZ 000000014001ff40 f i console.obj
 0001:0001ef40       ??1?$vector@PEAUfpsent@@@@QEAA@XZ 000000014001ff40 f i ai.obj
 0001:0001ef40       ??1?$vector@PEAUoctaentities@@@@QEAA@XZ 000000014001ff40 f i octarender.obj
 0001:0001ef40       ??1?$vector@PEAUphysent@@@@QEAA@XZ 000000014001ff40 f i physics.obj
 0001:0001ef40       ??1?$vector@PEAUclientinfo@server@@@@QEAA@XZ 000000014001ff40 f i server1.obj
 0001:0001ef40       ??1?$vector@PEAUTexture@@@@QEAA@XZ 000000014001ff40 f i rendertext.obj
 0001:0001ef40       ??1?$vector@PEBUextentity@@@@QEAA@XZ 000000014001ff40 f i lightmap.obj
 0001:0001ef40       ??1?$vector@PEAUskelmeshgroup@skelmodel@@@@QEAA@XZ 000000014001ff40 f i rendermodel.obj
 0001:0001ef40       ??1?$vector@PEAUpart@animmodel@@@@QEAA@XZ 000000014001ff40 f i rendermodel.obj
 0001:0001ef40       ??1?$vector@H@@QEAA@XZ     000000014001ff40 f i lightmap.obj
 0001:0001ef40       ??1?$vector@PEAUplink@@@@QEAA@XZ 000000014001ff40 f i octa.obj
 0001:0001ef40       ??1?$vector@PEAD@@QEAA@XZ  000000014001ff40 f i server.obj
 0001:0001ef40       ??1?$vector@PEAUmesh@animmodel@@@@QEAA@XZ 000000014001ff40 f i rendermodel.obj
 0001:0001ef70       ?add@?$vector@ULightMapTexture@@@@QEAAAEAULightMapTexture@@XZ 000000014001ff70 f i lightmap.obj
 0001:0001f080       ?shrink@?$vector@ULightMap@@@@QEAAXH@Z 0000000140020080 f i lightmap.obj
 0001:0001f0f0       ?add@?$vector@ULightMap@@@@QEAAAEAULightMap@@XZ 00000001400200f0 f i lightmap.obj
 0001:0001f250       ??A?$vector@PEAUclientinfo@server@@@@QEAAAEAPEAUclientinfo@server@@H@Z 0000000140020250 f i server1.obj
 0001:0001f250       ??A?$vector@PEAUextentity@@@@QEAAAEAPEAUextentity@@H@Z 0000000140020250 f i lightmap.obj
 0001:0001f250       ??A?$vector@PEAUident@@@@QEAAAEAPEAUident@@H@Z 0000000140020250 f i command.obj
 0001:0001f250       ??A?$vector@PEAUfpsent@@@@QEAAAEAPEAUfpsent@@H@Z 0000000140020250 f i ai.obj
 0001:0001f260       ?add@?$vector@H@@QEAAAEAHAEBH@Z 0000000140020260 f i lightmap.obj
 0001:0001f260       ?add@?$vector@I@@QEAAAEAIAEBI@Z 0000000140020260 f i command.obj
 0001:0001f2b0       ?growbuf@?$vector@Ulightmaptask@@@@QEAAXH@Z 00000001400202b0 f i lightmap.obj
 0001:0001f360       ?growbuf@?$vector@H@@QEAAXH@Z 0000000140020360 f i lightmap.obj
 0001:0001f360       ?growbuf@?$vector@I@@QEAAXH@Z 0000000140020360 f i command.obj
 0001:0001f410       ??$formatstring@$0BAE@@@YAXAEAY0BAE@DPEBDZZ 0000000140020410 f i lightmap.obj
 0001:0001f470       ??$access@Ulightmapinfo@@@?$hashbase@U?$hashset@Ulayoutinfo@@@@Ulayoutinfo@@U2@U2@@@QEAAPEAUlayoutinfo@@AEBUlightmapinfo@@@Z 0000000140020470 f i lightmap.obj
 0001:0001f6a0       ??$?AUlightmapinfo@@@?$hashbase@U?$hashset@Ulayoutinfo@@@@Ulayoutinfo@@U2@U2@@@QEAAAEAUlayoutinfo@@AEBUlightmapinfo@@@Z 00000001400206a0 f i lightmap.obj
 0001:0001f8f0       ?insert@?$hashbase@U?$hashset@Ulayoutinfo@@@@Ulayoutinfo@@U2@U2@@@QEAAPEAUchain@1@I@Z 00000001400208f0 f i lightmap.obj
 0001:0001fa80       __local_stdio_printf_options 0000000140020a80 f i lightmap.obj
 0001:0001fa90       _vsnprintf                 0000000140020a90 f i lightmap.obj
 0001:0001fb00       ?vformatstring@@YAXPEADPEBD0H@Z 0000000140020b00 f i lightmap.obj
 0001:0001fb70       ?calcsize@ImageData@@QEBAHXZ 0000000140020b70 f i lightmap.obj
 0001:0001fc20       ?boundbox@model@@QEAAXAEAUvec@@0@Z 0000000140020c20 f i lightmap.obj
 0001:0001fde0       ?toplane@plane@@QEAA_NAEBUvec@@00@Z 0000000140020de0 f i lightmap.obj
 0001:0001ff40       ?iszero@vec@@QEBA_NXZ      0000000140020f40 f i lightmap.obj
 0001:0001ff60       ??1PackNode@@QEAA@XZ       0000000140020f60 f i lightmap.obj
 0001:0001ff80       ?clear@PackNode@@QEAAXXZ   0000000140020f80 f i lightmap.obj
 0001:0001fff0       ?add@vec@@QEAAAEAU1@AEBU1@@Z 0000000140020ff0 f i lightmap.obj
 0001:00020020       ??Avec@@QEAAAEAMH@Z        0000000140021020 f i lightmap.obj
 0001:00020030       ??0vec@@QEAA@MM@Z          0000000140021030 f i lightmap.obj
 0001:000200b0       ??0vec@@QEAA@MMM@Z         00000001400210b0 f i lightmap.obj
 0001:000200d0       ??1?$hashbase@U?$hashset@Unormalgroup@@@@Unormalgroup@@U2@U2@@@QEAA@XZ 00000001400210d0 f i normal.obj
 0001:00020140       ??$access@Uvec@@U1@@?$hashbase@U?$hashset@Unormalgroup@@@@Unormalgroup@@U2@U2@@@QEAAAEAUnormalgroup@@AEBUvec@@0@Z 0000000140021140 f i normal.obj
 0001:00020200       ??$access@Uvec@@@?$hashbase@U?$hashset@Unormalgroup@@@@Unormalgroup@@U2@U2@@@QEAAPEAUnormalgroup@@AEBUvec@@@Z 0000000140021200 f i normal.obj
 0001:00020270       ?insert@?$hashbase@U?$hashset@Unormalgroup@@@@Unormalgroup@@U2@U2@@@QEAAPEAUchain@1@I@Z 0000000140021270 f i normal.obj
 0001:00020430       ??0chainchunk@?$hashbase@U?$hashset@Unormalgroup@@@@Unormalgroup@@U2@U2@@@QEAA@XZ 0000000140021430 f i normal.obj
 0001:00020860       ?cross@vec@@QEAAAEAU1@AEBU1@00@Z 0000000140021860 f i normal.obj
 0001:00020920       ??1?$hashtable@Uvec@@H@@QEAA@XZ 0000000140021920 f i worldio.obj
 0001:00020920       ??1?$hashtable@Uivec@@H@@QEAA@XZ 0000000140021920 f i rendermodel.obj
 0001:00020920       ??1?$hashtable@Uvec2@@H@@QEAA@XZ 0000000140021920 f i worldio.obj
 0001:00020920       ??1?$hashset@Uplink@@@@QEAA@XZ 0000000140021920 f i octa.obj
 0001:00020940       ??1?$hashbase@U?$hashtable@Ucfkey@@Ucfpolys@@@@U?$hashtableentry@Ucfkey@@Ucfpolys@@@@Ucfkey@@Ucfpolys@@@@QEAA@XZ 0000000140021940 f i octa.obj
 0001:00020980       ??1?$hashbase@U?$hashset@Uteaminfo@@@@Uteaminfo@@U2@U2@@@QEAA@XZ 0000000140021980 f i scoreboard.obj
 0001:00020980       ??1?$hashbase@U?$hashset@Uplink@@@@Uplink@@U2@U2@@@QEAA@XZ 0000000140021980 f i octa.obj
 0001:00020980       ??1?$hashbase@U?$hashtable@Uivec@@H@@U?$hashtableentry@Uivec@@H@@Uivec@@H@@QEAA@XZ 0000000140021980 f i rendermodel.obj
 0001:00020980       ??1?$hashbase@U?$hashtable@Uvec@@H@@U?$hashtableentry@Uvec@@H@@Uvec@@H@@QEAA@XZ 0000000140021980 f i worldio.obj
 0001:00020980       ??1?$hashbase@U?$hashtable@Uvec2@@H@@U?$hashtableentry@Uvec2@@H@@Uvec2@@H@@QEAA@XZ 0000000140021980 f i worldio.obj
 0001:000209f0       ?deletechunks@?$hashbase@U?$hashtable@Ucfkey@@Ucfpolys@@@@U?$hashtableentry@Ucfkey@@Ucfpolys@@@@Ucfkey@@Ucfpolys@@@@QEAAXXZ 00000001400219f0 f i octa.obj
 0001:00020a70       ?growbuf@?$vector@PEAUplink@@@@QEAAXH@Z 0000000140021a70 f i octa.obj
 0001:00020a70       ?growbuf@?$vector@PEAUTexture@@@@QEAAXH@Z 0000000140021a70 f i rendertext.obj
 0001:00020a70       ?growbuf@?$vector@PEAUoctaentities@@@@QEAAXH@Z 0000000140021a70 f i octarender.obj
 0001:00020b20       ??1chain@?$hashbase@U?$hashtable@Ucfkey@@Ucfpolys@@@@U?$hashtableentry@Ucfkey@@Ucfpolys@@@@Ucfkey@@Ucfpolys@@@@QEAA@XZ 0000000140021b20 f i octa.obj
 0001:00020b70       ??1?$hashtableentry@Ucfkey@@Ucfpolys@@@@QEAA@XZ 0000000140021b70 f i octa.obj
 0001:00020bb0       ??1wpcache@ai@@QEAA@XZ     0000000140021bb0 f i waypoint.obj
 0001:00020bb0       ??1unionfind@@QEAA@XZ      0000000140021bb0 f i material.obj
 0001:00020bb0       ??1cfpolys@@QEAA@XZ        0000000140021bb0 f i octa.obj
 0001:00020bf0       ?insert@?$hashbase@U?$hashtable@Ucfkey@@Ucfpolys@@@@U?$hashtableentry@Ucfkey@@Ucfpolys@@@@Ucfkey@@Ucfpolys@@@@QEAAPEAUchain@1@I@Z 0000000140021bf0 f i octa.obj
 0001:00020f70       ?insert@?$hashbase@U?$hashset@Uplink@@@@Uplink@@U2@U2@@@QEAAPEAUchain@1@I@Z 0000000140021f70 f i octa.obj
 0001:000212c0       ??0chainchunk@?$hashbase@U?$hashset@Uplink@@@@Uplink@@U2@U2@@@QEAA@XZ 00000001400222c0 f i octa.obj
 0001:00021580       ??0chain@?$hashbase@U?$hashtable@Ucfkey@@Ucfpolys@@@@U?$hashtableentry@Ucfkey@@Ucfpolys@@@@Ucfkey@@Ucfpolys@@@@QEAA@XZ 0000000140022580 f i octa.obj
 0001:000215b0       ??1prefab@@QEAA@XZ         00000001400225b0 f i octaedit.obj
 0001:000215f0       ?cleanup@prefab@@QEAAXXZ   00000001400225f0 f i octaedit.obj
 0001:00021660       ?addvert@prefabmesh@@QEAAHAEBUvertex@1@@Z 0000000140022660 f i octaedit.obj
 0001:00021840       ??1prefabmesh@@QEAA@XZ     0000000140022840 f i octaedit.obj
 0001:000218c0       ??0vslotref@@QEAA@AEAH@Z   00000001400228c0 f i octaedit.obj
 0001:000219d0       ??1vslotref@@QEAA@XZ       00000001400229d0 f i octaedit.obj
 0001:000219e0       ?gui@texturegui@@UEAAXAEAUg3d_gui@@_N@Z 00000001400229e0 f i octaedit.obj
 0001:00021e80       ??_Gtexturegui@@UEAAPEAXI@Z 0000000140022e80 f i octaedit.obj
 0001:00021e80       ??_Escoreboardgui@game@@UEAAPEAXI@Z 0000000140022e80 f i * CIL library *:* CIL module *
 0001:00021e80       ??_Gscoreboardgui@game@@UEAAPEAXI@Z 0000000140022e80 f i scoreboard.obj
 0001:00021e80       ??_Etexturegui@@UEAAPEAXI@Z 0000000140022e80 f i * CIL library *:* CIL module *
 0001:00021ec0       ??1?$hashbase@U?$hashnameset@Uprefab@@@@Uprefab@@PEBDU2@@@QEAA@XZ 0000000140022ec0 f i octaedit.obj
 0001:00021f70       ?add@?$vector@Uteamscore@@@@QEAAAEAUteamscore@@AEBU2@@Z 0000000140022f70 f i client1.obj
 0001:00021f70       ?add@?$vector@Uvslotmap@@@@QEAAAEAUvslotmap@@AEBU2@@Z 0000000140022f70 f i octaedit.obj
 0001:00022060       ?add@?$vector@PEAUeditinfo@@@@QEAAAEAPEAUeditinfo@@AEBQEAU2@@Z 0000000140023060 f i octaedit.obj
 0001:00022170       ?add@?$vector@G@@QEAAAEAGAEBG@Z 0000000140023170 f i octaedit.obj
 0001:00022260       ?put@?$vector@D@@QEAAXPEBDH@Z 0000000140023260 f i server.obj
 0001:00022260       ?put@?$vector@E@@QEAAXPEBEH@Z 0000000140023260 f i octaedit.obj
 0001:000222c0       ?growbuf@?$vector@USlotShaderParam@@@@QEAAXH@Z 00000001400232c0 f i octaedit.obj
 0001:000222c0       ?growbuf@?$vector@Umergedface@@@@QEAAXH@Z 00000001400232c0 f i octarender.obj
 0001:00022370       ?growbuf@?$vector@D@@QEAAXH@Z 0000000140023370 f i worldio.obj
 0001:00022370       ?growbuf@?$vector@E@@QEAAXH@Z 0000000140023370 f i octaedit.obj
 0001:00022410       ??1chain@?$hashbase@U?$hashnameset@Uprefab@@@@Uprefab@@PEBDU2@@@QEAA@XZ 0000000140023410 f i octaedit.obj
 0001:00022460       ?length@?$databuf@E@@QEBAHXZ 0000000140023460 f i octaedit.obj
 0001:00022470       ??$access@PEAD@?$hashbase@U?$hashnameset@Uprefab@@@@Uprefab@@PEBDU2@@@QEAAPEAUprefab@@AEBQEAD@Z 0000000140023470 f i octaedit.obj
 0001:00022500       ?get@?$databuf@E@@QEAAHPEAEH@Z 0000000140023500 f i octaedit.obj
 0001:00022550       ?insert@?$hashbase@U?$hashnameset@Uprefab@@@@Uprefab@@PEBDU2@@@QEAAPEAUchain@1@I@Z 0000000140023550 f i octaedit.obj
 0001:000228e0       ?get@?$databuf@E@@QEAAAEBEXZ 00000001400238e0 f i octaedit.obj
 0001:00022910       ??0chain@?$hashbase@U?$hashnameset@Uprefab@@@@Uprefab@@PEBDU2@@@QEAA@XZ 0000000140023910 f i octaedit.obj
 0001:00022940       ?add@?$vector@E@@QEAAAEAEAEBE@Z 0000000140023940 f i octaedit.obj
 0001:00022990       ??_Eg3d_callback@@UEAAPEAXI@Z 0000000140023990 f i * CIL library *:* CIL module *
 0001:00022990       ??_Gg3d_callback@@UEAAPEAXI@Z 0000000140023990 f i octaedit.obj
 0001:000229c0       ??1g3d_callback@@UEAA@XZ   00000001400239c0 f i octaedit.obj
 0001:000229d0       ?resolve@GlobalShaderParam@@QEAAPEAUGlobalShaderParamState@@XZ 00000001400239d0 f i octaedit.obj
 0001:00022c90       ??$mult@Uvec4@@@matrix4@@QEAAXAEBU0@0@Z 0000000140023c90 f i octaedit.obj
 0001:000231b0       ?translate@matrix4@@QEAAXAEBUvec@@@Z 00000001400241b0 f i octaedit.obj
 0001:000232d0       ?rotate_around_y@matrix4@@QEAAXM@Z 00000001400242d0 f i octaedit.obj
 0001:00023440       ?rotate_around_x@matrix4@@QEAAXM@Z 0000000140024440 f i octaedit.obj
 0001:000235b0       ?rotate_around_z@matrix4@@QEAAXM@Z 00000001400245b0 f i octaedit.obj
 0001:00023720       ??1VSlot@@QEAA@XZ          0000000140024720 f i octaedit.obj
 0001:00023760       ?reset@VSlot@@QEAAXXZ      0000000140024760 f i octaedit.obj
 0001:000237f0       ??0VSlot@@QEAA@PEAUSlot@@H@Z 00000001400247f0 f i octaedit.obj
 0001:00023860       ?flushparams@Shader@@QEAAXPEAUSlot@@@Z 0000000140024860 f i octaedit.obj
 0001:00023a70       ?set@Shader@@QEAAXXZ       0000000140024a70 f i octaedit.obj
 0001:00023ad0       ??0selinfo@@QEAA@XZ        0000000140024ad0 f i octaedit.obj
 0001:00023b00       ?remaining@?$databuf@E@@QEBAHXZ 0000000140024b00 f i octaedit.obj
 0001:00023b10       ?pad@?$databuf@E@@QEAAPEAEH@Z 0000000140024b10 f i octaedit.obj
 0001:00023b30       ?addvert@verthash@@QEAAHAEBUvertex@@@Z 0000000140024b30 f i octarender.obj
 0001:00023d60       ?remapunlit@vacollect@@QEAAXAEAU?$vector@Usortkey@@@@@Z 0000000140024d60 f i octarender.obj
 0001:000248e0       ?optimize@vacollect@@QEAAXXZ 00000001400258e0 f i octarender.obj
 0001:00024e20       ?texsort@vacollect@@SA_NAEBUsortkey@@0@Z 0000000140025e20 f i octarender.obj
 0001:00024f60       ?setupdata@vacollect@@QEAAXPEAUvtxarray@@@Z 0000000140025f60 f i octarender.obj
 0001:00025720       ??1vacollect@@QEAA@XZ      0000000140026720 f i octarender.obj
 0001:00025870       ??1verthash@@QEAA@XZ       0000000140026870 f i octarender.obj
 0001:000258e0       ??1?$hashtable@Usortkey@@Usortval@@@@QEAA@XZ 00000001400268e0 f i octarender.obj
 0001:00025920       ??1?$hashbase@U?$hashtable@Uedgegroup@@H@@U?$hashtableentry@Uedgegroup@@H@@Uedgegroup@@H@@QEAA@XZ 0000000140026920 f i octarender.obj
 0001:00025990       ?add@?$vector@Usortkey@@@@QEAAAEAUsortkey@@AEBU2@@Z 0000000140026990 f i octarender.obj
 0001:00025a90       ??1?$hashbase@U?$hashtable@Usortkey@@Usortval@@@@U?$hashtableentry@Usortkey@@Usortval@@@@Usortkey@@Usortval@@@@QEAA@XZ 0000000140026a90 f i octarender.obj
 0001:00025ad0       ??1?$hashbase@U?$hashtable@IUvboinfo@@@@U?$hashtableentry@IUvboinfo@@@@IUvboinfo@@@@QEAA@XZ 0000000140026ad0 f i octarender.obj
 0001:00025b40       ?removeobj@?$vector@PEAUclientinfo@server@@@@QEAAXAEBQEAUclientinfo@server@@@Z 0000000140026b40 f i server1.obj
 0001:00025b40       ?removeobj@?$vector@PEAUvtxarray@@@@QEAAXAEBQEAUvtxarray@@@Z 0000000140026b40 f i octarender.obj
 0001:00025b40       ?removeobj@?$vector@PEAUmesh@animmodel@@@@QEAAXAEBQEAUmesh@animmodel@@@Z 0000000140026b40 f i rendermodel.obj
 0001:00025bd0       ?add@?$vector@PEAUextentity@@@@QEAAAEAPEAUextentity@@AEBQEAU2@@Z 0000000140026bd0 f i world.obj
 0001:00025bd0       ?add@?$vector@PEAUpart@animmodel@@@@QEAAAEAPEAUpart@animmodel@@AEBQEAU23@@Z 0000000140026bd0 f i rendermodel.obj
 0001:00025bd0       ?add@?$vector@PEAUmaterialsurface@@@@QEAAAEAPEAUmaterialsurface@@AEBQEAU2@@Z 0000000140026bd0 f i pvs.obj
 0001:00025bd0       ?add@?$vector@PEAUskelmeshgroup@skelmodel@@@@QEAAAEAPEAUskelmeshgroup@skelmodel@@AEBQEAU23@@Z 0000000140026bd0 f i rendermodel.obj
 0001:00025bd0       ?add@?$vector@PEAUident@@@@QEAAAEAPEAUident@@AEBQEAU2@@Z 0000000140026bd0 f i command.obj
 0001:00025bd0       ?add@?$vector@PEAUfpsent@@@@QEAAAEAPEAUfpsent@@AEBQEAU2@@Z 0000000140026bd0 f i ai.obj
 0001:00025bd0       ?add@?$vector@PEAUvtxarray@@@@QEAAAEAPEAUvtxarray@@AEBQEAU2@@Z 0000000140026bd0 f i octarender.obj
 0001:00025bd0       ?add@?$vector@Ucrcinfo@server@@@@QEAAAEAUcrcinfo@server@@AEBU23@@Z 0000000140026bd0 f i server1.obj
 0001:00025bd0       ?add@?$vector@PEAUmesh@animmodel@@@@QEAAAEAPEAUmesh@animmodel@@AEBQEAU23@@Z 0000000140026bd0 f i rendermodel.obj
 0001:00025bd0       ?add@?$vector@PEBD@@QEAAAEAPEBDAEBQEBD@Z 0000000140026bd0 f i serverbrowser.obj
 0001:00025bd0       ?add@?$vector@PEAUphysent@@@@QEAAAEAPEAUphysent@@AEBQEAU2@@Z 0000000140026bd0 f i physics.obj
 0001:00025bd0       ?add@?$vector@PEAD@@QEAAAEAPEADAEBQEAD@Z 0000000140026bd0 f i server.obj
 0001:00025bd0       ?add@?$vector@PEAUclientinfo@server@@@@QEAAAEAPEAUclientinfo@server@@AEBQEAU23@@Z 0000000140026bd0 f i server1.obj
 0001:00025cc0       ?deletechunks@?$hashbase@U?$hashtable@Usortkey@@Usortval@@@@U?$hashtableentry@Usortkey@@Usortval@@@@Usortkey@@Usortval@@@@QEAAXXZ 0000000140026cc0 f i octarender.obj
 0001:00025d40       ?growbuf@?$vector@Ugrasstri@@@@QEAAXH@Z 0000000140026d40 f i octarender.obj
 0001:00025df0       ??1chain@?$hashbase@U?$hashtable@Usortkey@@Usortval@@@@U?$hashtableentry@Usortkey@@Usortval@@@@Usortkey@@Usortval@@@@QEAA@XZ 0000000140026df0 f i octarender.obj
 0001:00025e30       ??1?$hashtableentry@Usortkey@@Usortval@@@@QEAA@XZ 0000000140026e30 f i octarender.obj
 0001:00025e70       ??1sortval@@QEAA@XZ        0000000140026e70 f i octarender.obj
 0001:00025eb0       ??$?AUsortkey@@@?$hashbase@U?$hashtable@Usortkey@@Usortval@@@@U?$hashtableentry@Usortkey@@Usortval@@@@Usortkey@@Usortval@@@@QEAAAEAUsortval@@AEBUsortkey@@@Z 0000000140026eb0 f i octarender.obj
 0001:00025f50       ?insert@?$hashbase@U?$hashtable@Uedgegroup@@H@@U?$hashtableentry@Uedgegroup@@H@@Uedgegroup@@H@@QEAAPEAUchain@1@I@Z 0000000140026f50 f i octarender.obj
 0001:00026360       ?insert@?$hashbase@U?$hashtable@Usortkey@@Usortval@@@@U?$hashtableentry@Usortkey@@Usortval@@@@Usortkey@@Usortval@@@@QEAAPEAUchain@1@I@Z 0000000140027360 f i octarender.obj
 0001:00026530       ?insert@?$hashbase@U?$hashtable@IUvboinfo@@@@U?$hashtableentry@IUvboinfo@@@@IUvboinfo@@@@QEAAPEAUchain@1@I@Z 0000000140027530 f i octarender.obj
 0001:000266c0       ??0chain@?$hashbase@U?$hashtable@Usortkey@@Usortval@@@@U?$hashtableentry@Usortkey@@Usortval@@@@Usortkey@@Usortval@@@@QEAA@XZ 00000001400276c0 f i octarender.obj
 0001:00026720       ?supportpoint@CubePlanes@mpr@@QEBA?AUvec@@AEBU3@@Z 0000000140027720 f i physics.obj
 0001:000269a0       ?contactface@EntOBB@mpr@@QEBA?AUvec@@AEBU3@0@Z 00000001400279a0 f i physics.obj
 0001:00026ce0       ?supportpoint@EntOBB@mpr@@QEBA?AUvec@@AEBU3@@Z 0000000140027ce0 f i physics.obj
 0001:00026e70       ?supportpoint@EntCapsule@mpr@@QEBA?AUvec@@AEBU3@@Z 0000000140027e70 f i physics.obj
 0001:00026f40       ??0Model@mpr@@QEAA@AEBUvec@@00H@Z 0000000140027f40 f i physics.obj
 0001:000270e0       ?contactface@ModelOBB@mpr@@QEBA?AUvec@@AEBU3@0@Z 00000001400280e0 f i physics.obj
 0001:00027400       ?supportpoint@ModelOBB@mpr@@QEBA?AUvec@@AEBU3@@Z 0000000140028400 f i physics.obj
 0001:000275b0       ?contactface@ModelEllipse@mpr@@QEBA?AUvec@@AEBU3@0@Z 00000001400285b0 f i physics.obj
 0001:000278a0       ?supportpoint@ModelEllipse@mpr@@QEBA?AUvec@@AEBU3@@Z 00000001400288a0 f i physics.obj
 0001:00027a80       ??0dynentcacheentry@@QEAA@XZ 0000000140028a80 f i physics.obj
 0001:00027ab0       ??1dynentcacheentry@@QEAA@XZ 0000000140028ab0 f i physics.obj
 0001:00027ae0       ??$collide@UEntOBB@mpr@@U12@@mpr@@YA_NAEBUEntOBB@0@0PEAUvec@@11@Z 0000000140028ae0 f i physics.obj
 0001:00028ac0       ??$collide@UEntOBB@mpr@@UEntCylinder@2@@mpr@@YA_NAEBUEntOBB@0@AEBUEntCylinder@0@PEAUvec@@22@Z 0000000140029ac0 f i physics.obj
 0001:00029dd0       ??$collide@UEntOBB@mpr@@UModelEllipse@2@@mpr@@YA_NAEBUEntOBB@0@AEBUModelEllipse@0@PEAUvec@@22@Z 000000014002add0 f i physics.obj
 0001:0002ad90       ??$collide@UEntOBB@mpr@@UModelOBB@2@@mpr@@YA_NAEBUEntOBB@0@AEBUModelOBB@0@PEAUvec@@22@Z 000000014002bd90 f i physics.obj
 0001:0002bd50       ??$collide@USolidCube@mpr@@UEntOBB@2@@mpr@@YA_NAEBUSolidCube@0@AEBUEntOBB@0@@Z 000000014002cd50 f i physics.obj
 0001:0002ca50       ??$collide@UCubePlanes@mpr@@UEntOBB@2@@mpr@@YA_NAEBUCubePlanes@0@AEBUEntOBB@0@@Z 000000014002da50 f i physics.obj
 0001:0002d670       ??$collide@USolidCube@mpr@@UEntCapsule@2@@mpr@@YA_NAEBUSolidCube@0@AEBUEntCapsule@0@@Z 000000014002e670 f i physics.obj
 0001:0002e320       ??$collide@UCubePlanes@mpr@@UEntCapsule@2@@mpr@@YA_NAEBUCubePlanes@0@AEBUEntCapsule@0@@Z 000000014002f320 f i physics.obj
 0001:0002efa0       printf                     000000014002ffa0 f i physics.obj
 0001:0002f000       ??0physent@@QEAA@XZ        0000000140030000 f i physics.obj
 0001:0002f0c0       ?rescale@vec@@QEAAAEAU1@M@Z 00000001400300c0 f i physics.obj
 0001:0002f130       ?collisionbox@model@@QEAAMAEAUvec@@0@Z 0000000140030130 f i physics.obj
 0001:0002f230       ?calcshaft@shaft@@QEAAXAEBUshaftbb@@0@Z 0000000140030230 f i pvs.obj
 0001:0002f550       ?inside@shaft@@QEBA_NAEBUshaftbb@@@Z 0000000140030550 f i pvs.obj
 0001:0002f610       ??0pvsworker@@QEAA@XZ      0000000140030610 f i pvs.obj
 0001:0002f6a0       ??1pvsworker@@QEAA@XZ      00000001400306a0 f i pvs.obj
 0001:0002f6f0       ?hidepvs@pvsworker@@QEAAXAEAUpvsnode@@@Z 00000001400306f0 f i pvs.obj
 0001:0002f770       ?shaftcullpvs@pvsworker@@QEAAXAEAUshaft@@AEAUpvsnode@@AEBUivec@@H@Z 0000000140030770 f i pvs.obj
 0001:0002fab0       ?cullpvs@pvsworker@@QEAAXAEAUpvsnode@@AEBUivec@@H@Z 0000000140030ab0 f i pvs.obj
 0001:00032230       ?compresspvs@pvsworker@@QEAA_NAEAUpvsnode@@HH@Z 0000000140033230 f i pvs.obj
 0001:000323c0       ?serializepvs@pvsworker@@QEAA_NAEAUpvsnode@@H@Z 00000001400333c0 f i pvs.obj
 0001:00032620       ?materialoccluded@pvsworker@@QEAA_NAEAUpvsnode@@AEBUivec@@H11@Z 0000000140033620 f i pvs.obj
 0001:00032730       ?calcpvs@pvsworker@@QEAAXAEBUivec@@H@Z 0000000140033730 f i pvs.obj
 0001:00032cd0       ?genviewcell@pvsworker@@QEAAHAEBUivec@@H@Z 0000000140033cd0 f i pvs.obj
 0001:00033070       ?run@pvsworker@@SAHPEAX@Z  0000000140034070 f i pvs.obj
 0001:00033130       ??_Gviewcellnode@@QEAAPEAXI@Z 0000000140034130 f i pvs.obj
 0001:000331a0       ?add@?$vector@PEAUpvsworker@@@@QEAAAEAPEAUpvsworker@@AEBQEAU2@@Z 00000001400341a0 f i pvs.obj
 0001:000332c0       ?add@?$vector@Upvsdata@@@@QEAAAEAUpvsdata@@AEBU2@@Z 00000001400342c0 f i pvs.obj
 0001:000333e0       ??1?$hashbase@U?$hashtable@Upvsdata@@H@@U?$hashtableentry@Upvsdata@@H@@Upvsdata@@H@@QEAA@XZ 00000001400343e0 f i pvs.obj
 0001:00033450       ?add@?$vector@Upvsnode@@@@QEAAAEAUpvsnode@@XZ 0000000140034450 f i pvs.obj
 0001:00033540       ?insert@?$hashbase@U?$hashtable@Upvsdata@@H@@U?$hashtableentry@Upvsdata@@H@@Upvsdata@@H@@QEAAPEAUchain@1@I@Z 0000000140034540 f i pvs.obj
 0001:00033940       ?inrange@?$vector@Usmdbone@@@@QEBA_NH@Z 0000000140034940 f i rendermodel.obj
 0001:00033940       ?inrange@?$vector@PEAUextentity@@@@QEBA_NH@Z 0000000140034940 f i world.obj
 0001:00033950       ?removeobj@?$vector@H@@QEAAXAEBH@Z 0000000140034950 f i world.obj
 0001:000339e0       ?growbuf@?$vector@Uentity@@@@QEAAXH@Z 00000001400349e0 f i world.obj
 0001:00033a90       ??$copystring@$0BAE@@@YAPEADAEAY0BAE@DPEBD@Z 0000000140034a90 f i world.obj
 0001:00033ae0       ?concatstring@@YAPEADPEADPEBD_K@Z 0000000140034ae0 f i world.obj
 0001:00033b30       ?copystring@@YAPEADPEADPEBD_K@Z 0000000140034b30 f i world.obj
 0001:00033b80       ?nformatstring@@YAXPEADHPEBDZZ 0000000140034b80 f i world.obj
 0001:00033be0       ?rotate@vec@@QEAAAEAU1@MAEBU1@@Z 0000000140034be0 f i world.obj
 0001:00033db0       ??1?$hashtable@HU?$vector@Uivec2@@@@@@QEAA@XZ 0000000140034db0 f i worldio.obj
 0001:00033dd0       ??1?$hashbase@U?$hashtable@HU?$vector@Uivec2@@@@@@U?$hashtableentry@HU?$vector@Uivec2@@@@@@HU?$vector@Uivec2@@@@@@QEAA@XZ 0000000140034dd0 f i worldio.obj
 0001:00033e60       ?add@?$vector@Uvec@@@@QEAAAEAUvec@@AEBU2@@Z 0000000140034e60 f i worldio.obj
 0001:00033f60       ?add@?$vector@PEAUVSlot@@@@QEAAAEAPEAUVSlot@@AEBQEAU2@@Z 0000000140034f60 f i worldio.obj
 0001:00034070       ?getbuf@?$vector@PEAD@@QEAAPEAPEADXZ 0000000140035070 f i server.obj
 0001:00034070       ?getbuf@?$vector@D@@QEAAPEADXZ 0000000140035070 f i worldio.obj
 0001:00034080       ?reserve@?$vector@D@@QEAA?AU?$databuf@D@@H@Z 0000000140035080 f i worldio.obj
 0001:000340e0       ??1chain@?$hashbase@U?$hashtable@HU?$vector@Uivec2@@@@@@U?$hashtableentry@HU?$vector@Uivec2@@@@@@HU?$vector@Uivec2@@@@@@QEAA@XZ 00000001400350e0 f i worldio.obj
 0001:00034120       ??1?$hashtableentry@HU?$vector@Uivec2@@@@@@QEAA@XZ 0000000140035120 f i worldio.obj
 0001:00034160       ?insert@?$hashbase@U?$hashtable@HU?$vector@Uivec2@@@@@@U?$hashtableentry@HU?$vector@Uivec2@@@@@@HU?$vector@Uivec2@@@@@@QEAAPEAUchain@1@I@Z 0000000140035160 f i worldio.obj
 0001:00034330       ?insert@?$hashbase@U?$hashtable@Uvec@@H@@U?$hashtableentry@Uvec@@H@@Uvec@@H@@QEAAPEAUchain@1@I@Z 0000000140035330 f i worldio.obj
 0001:00034330       ?insert@?$hashbase@U?$hashtable@Uivec@@H@@U?$hashtableentry@Uivec@@H@@Uivec@@H@@QEAAPEAUchain@1@I@Z 0000000140035330 f i rendermodel.obj
 0001:00034330       ?insert@?$hashbase@U?$hashtable@Uvec2@@H@@U?$hashtableentry@Uvec2@@H@@Uvec2@@H@@QEAAPEAUchain@1@I@Z 0000000140035330 f i worldio.obj
 0001:00034720       ??0chain@?$hashbase@U?$hashtable@HU?$vector@Uivec2@@@@@@U?$hashtableentry@HU?$vector@Uivec2@@@@@@HU?$vector@Uivec2@@@@@@QEAA@XZ 0000000140035720 f i worldio.obj
 0001:00034750       ??1packetbuf@@QEAA@XZ      0000000140035750 f i client.obj
 0001:00034790       ?length@?$vector@PEAD@@QEBAHXZ 0000000140035790 f i server.obj
 0001:00034790       ?length@?$vector@PEAUclientinfo@server@@@@QEBAHXZ 0000000140035790 f i server1.obj
 0001:00034790       ?length@?$vector@PEAUfpsent@@@@QEBAHXZ 0000000140035790 f i ai.obj
 0001:000347a0       ?overread@?$databuf@E@@QEBA_NXZ 00000001400357a0 f i server.obj
 0001:000347b0       ?subbuf@?$databuf@E@@QEAA?AU1@H@Z 00000001400357b0 f i server.obj
 0001:000347f0       ?subbuf@packetbuf@@QEAA?AU?$databuf@E@@H@Z 00000001400357f0 f i server.obj
 0001:000348a0       ?finalize@packetbuf@@QEAAPEAU_ENetPacket@@XZ 00000001400358a0 f i server.obj
 0001:000348d0       ?put@packetbuf@@QEAAXPEBEH@Z 00000001400358d0 f i server.obj
 0001:00034980       ??0packetbuf@@QEAA@HH@Z    0000000140035980 f i server.obj
 0001:000349c0       ?compare@serverinfo@@SA_NPEAU1@0@Z 00000001400359c0 f i serverbrowser.obj
 0001:00034a90       ??_Gserverinfo@@QEAAPEAXI@Z 0000000140035a90 f i serverbrowser.obj
 0001:00034b00       ?grow@editline@@QEAA_NHPEBDZZ 0000000140035b00 f i 3dgui.obj
 0001:00034ba0       ?append@editline@@QEAAXPEBD@Z 0000000140035ba0 f i 3dgui.obj
 0001:00034c20       ?del@editline@@QEAAXHH@Z   0000000140035c20 f i 3dgui.obj
 0001:00034c90       ?insert@editline@@QEAAXPEADHH@Z 0000000140035c90 f i 3dgui.obj
 0001:00034d60       ?combinelines@editline@@QEAAXAEAU?$vector@Ueditline@@@@@Z 0000000140035d60 f i 3dgui.obj
 0001:00034f80       ?clear@editor@@QEAAXPEBD@Z 0000000140035f80 f i 3dgui.obj
 0001:000350a0       ?setfile@editor@@QEAAXPEBD@Z 00000001400360a0 f i 3dgui.obj
 0001:000350f0       ?load@editor@@QEAAXXZ      00000001400360f0 f i 3dgui.obj
 0001:000353f0       ?region@editor@@QEAA_NXZ   00000001400363f0 f i 3dgui.obj
 0001:000354e0       ?currentline@editor@@QEAAAEAUeditline@@XZ 00000001400364e0 f i 3dgui.obj
 0001:00035550       ?copyselectionto@editor@@QEAAXPEAU1@@Z 0000000140036550 f i 3dgui.obj
 0001:000358d0       ?selectiontostring@editor@@QEAAPEADXZ 00000001400368d0 f i 3dgui.obj
 0001:00035cf0       ?removelines@editor@@QEAAXHH@Z 0000000140036cf0 f i 3dgui.obj
 0001:00035dc0       ?del@editor@@QEAA_NXZ      0000000140036dc0 f i 3dgui.obj
 0001:00036050       ?insert@editor@@QEAAXD@Z   0000000140037050 f i 3dgui.obj
 0001:00036210       ?insert@editor@@QEAAXPEBD@Z 0000000140037210 f i 3dgui.obj
 0001:000363f0       ?insertallfrom@editor@@QEAAXPEAU1@@Z 00000001400373f0 f i 3dgui.obj
 0001:00036680       ?key@editor@@QEAAXH@Z      0000000140037680 f i 3dgui.obj
 0001:000369c0       ?input@editor@@QEAAXPEBDH@Z 00000001400379c0 f i 3dgui.obj
 0001:00036bc0       ?draw@editor@@QEAAXHHH_N@Z 0000000140037bc0 f i 3dgui.obj
 0001:000378e0       ?allowautotab@gui@@UEAA_N_N@Z 00000001400388e0 f i 3dgui.obj
 0001:000378f0       ?autotab@gui@@QEAAXXZ      00000001400388f0 f i 3dgui.obj
 0001:00037970       ?shouldtab@gui@@UEAA_NXZ   0000000140038970 f i 3dgui.obj
 0001:00037a20       ?tab@gui@@UEAAXPEBDH@Z     0000000140038a20 f i 3dgui.obj
 0001:00037cf0       ?pushlist@gui@@UEAAXXZ     0000000140038cf0 f i 3dgui.obj
 0001:00037e20       ?poplist@gui@@UEAAXXZ      0000000140038e20 f i 3dgui.obj
 0001:00037f50       ?text@gui@@UEAAHPEBDH0@Z   0000000140038f50 f i 3dgui.obj
 0001:00037fb0       ?button@gui@@UEAAHPEBDH0@Z 0000000140038fb0 f i 3dgui.obj
 0001:00038010       ?title@gui@@UEAAHPEBDH0@Z  0000000140039010 f i 3dgui.obj
 0001:00038070       ?separator@gui@@UEAAXXZ    0000000140039070 f i 3dgui.obj
 0001:000380b0       ?progress@gui@@UEAAXM@Z    00000001400390b0 f i 3dgui.obj
 0001:00038100       ?strut@gui@@UEAAXM@Z       0000000140039100 f i 3dgui.obj
 0001:00038150       ?space@gui@@UEAAXM@Z       0000000140039150 f i 3dgui.obj
 0001:000381a0       ?spring@gui@@UEAAXH@Z      00000001400391a0 f i 3dgui.obj
 0001:00038290       ?column@gui@@UEAAXH@Z      0000000140039290 f i 3dgui.obj
 0001:000382c0       ?layout@gui@@QEAAHHH@Z     00000001400392c0 f i 3dgui.obj
 0001:00038390       ?mergehits@gui@@UEAA_N_N@Z 0000000140039390 f i 3dgui.obj
 0001:000383a0       ?ishit@gui@@QEAA_NHHHH@Z   00000001400393a0 f i 3dgui.obj
 0001:00038490       ?image@gui@@UEAAHPEAUTexture@@M_N@Z 0000000140039490 f i 3dgui.obj
 0001:00038580       ?texture@gui@@UEAAHAEAUVSlot@@M_N@Z 0000000140039580 f i 3dgui.obj
 0001:00038670       ?playerpreview@gui@@UEAAHHHHM_N@Z 0000000140039670 f i 3dgui.obj
 0001:00038bb0       ?modelpreview@gui@@UEAAHPEBDHM_N@Z 0000000140039bb0 f i 3dgui.obj
 0001:000392e0       ?prefabpreview@gui@@UEAAHPEBDAEBUvec@@M_N@Z 000000014003a2e0 f i 3dgui.obj
 0001:00039980       ?slider@gui@@UEAAXAEAHHHHPEBD@Z 000000014003a980 f i 3dgui.obj
 0001:00039cb0       ?field@gui@@UEAAPEADPEBDHHH0H@Z 000000014003acb0 f i 3dgui.obj
 0001:00039cf0       ?keyfield@gui@@UEAAPEADPEBDHHH0H@Z 000000014003acf0 f i 3dgui.obj
 0001:00039d30       ?field_@gui@@QEAAPEADPEBDHHH0HH@Z 000000014003ad30 f i 3dgui.obj
 0001:0003a460       ?rect_@gui@@QEAAXMMMM_N@Z  000000014003b460 f i 3dgui.obj
 0001:0003a5f0       ?rect_@gui@@QEAAXMMMMH@Z   000000014003b5f0 f i 3dgui.obj
 0001:0003a900       ?text_@gui@@QEAAXPEBDHHH_N1@Z 000000014003b900 f i 3dgui.obj
 0001:0003a9c0       ?background@gui@@UEAAXHHH@Z 000000014003b9c0 f i 3dgui.obj
 0001:0003ab90       ?icon_@gui@@QEAAXPEAUTexture@@_NHHH1@Z 000000014003bb90 f i 3dgui.obj
 0001:0003ae00       ?previewslot@gui@@QEAAXAEAUVSlot@@_NHHH1@Z 000000014003be00 f i 3dgui.obj
 0001:0003bd10       ?line_@gui@@QEAAXHM@Z      000000014003cd10 f i 3dgui.obj
 0001:0003bf50       ?textbox@gui@@UEAAXPEBDHHH@Z 000000014003cf50 f i 3dgui.obj
 0001:0003c080       ?button_@gui@@QEAAHPEBDH0_N1@Z 000000014003d080 f i 3dgui.obj
 0001:0003c320       ?drawskin@gui@@SAXHHHHHHHAEBUvec@@M@Z 000000014003d320 f i 3dgui.obj
 0001:0003c9d0       ?start@gui@@UEAAXHMPEAH_N@Z 000000014003d9d0 f i 3dgui.obj
 0001:0003cf10       ?adjustcolumns@gui@@QEAAXXZ 000000014003df10 f i 3dgui.obj
 0001:0003d0c0       ?end@gui@@UEAAXXZ          000000014003e0c0 f i 3dgui.obj
 0001:0003d5f0       ?add@?$vector@Ulist@gui@@@@QEAAAEAUlist@gui@@XZ 000000014003e5f0 f i 3dgui.obj
 0001:0003d6e0       ?remove@?$vector@PEAUeditor@@@@QEAAPEAUeditor@@H@Z 000000014003e6e0 f i 3dgui.obj
 0001:0003d740       ?add@?$vector@PEAUeditor@@@@QEAAAEAPEAUeditor@@AEBQEAU2@@Z 000000014003e740 f i 3dgui.obj
 0001:0003d860       ?insert@?$vector@Ueditline@@@@QEAAAEAUeditline@@HAEBU2@@Z 000000014003e860 f i 3dgui.obj
 0001:0003d910       ?add@?$vector@Ueditline@@@@QEAAAEAUeditline@@XZ 000000014003e910 f i 3dgui.obj
 0001:0003d960       ??_Egui@@UEAAPEAXI@Z       000000014003e960 f i * CIL library *:* CIL module *
 0001:0003d960       ??_Ggui@@UEAAPEAXI@Z       000000014003e960 f i 3dgui.obj
 0001:0003d9a0       ??1gui@@UEAA@XZ            000000014003e9a0 f i 3dgui.obj
 0001:0003d9c0       ?growbuf@?$vector@Ueditline@@@@QEAAXH@Z 000000014003e9c0 f i 3dgui.obj
 0001:0003d9c0       ?growbuf@?$vector@Ucharinfo@font@@@@QEAAXH@Z 000000014003e9c0 f i rendertext.obj
 0001:0003d9c0       ?growbuf@?$vector@UAttribLoc@@@@QEAAXH@Z 000000014003e9c0 f i shader.obj
 0001:0003d9c0       ?growbuf@?$vector@Unode@wpcache@ai@@@@QEAAXH@Z 000000014003e9c0 f i waypoint.obj
 0001:0003da70       ??4gui@@QEAAAEAU0@AEBU0@@Z 000000014003ea70 f i 3dgui.obj
 0001:0003db30       ??_Eg3d_gui@@UEAAPEAXI@Z   000000014003eb30 f i * CIL library *:* CIL module *
 0001:0003db30       ??_Gg3d_gui@@UEAAPEAXI@Z   000000014003eb30 f i 3dgui.obj
 0001:0003db60       ?cleanup@servmode@server@@UEAAXXZ 000000014003eb60 f i server1.obj
 0001:0003db60       ?aifind@clientmode@game@@UEAAXPEAUfpsent@@AEAUaistate@ai@@AEAU?$vector@Uinterest@ai@@@@@Z 000000014003eb60 f i client1.obj
 0001:0003db60       ?dodebug@rendertarget@@UEAAXHH@Z 000000014003eb60 f i glare.obj
 0001:0003db60       ?drawhud@clientmode@game@@UEAAXPEAUfpsent@@HH@Z 000000014003eb60 f i client1.obj
 0001:0003db60       ?moved@servmode@server@@UEAAXPEAUclientinfo@2@AEBUvec@@_N12@Z 000000014003eb60 f i server1.obj
 0001:0003db60       ?cleanup@model@@UEAAXXZ    000000014003eb60 f i rendermodel.obj
 0001:0003db60       ?flushpart@animmodel@@UEAAXXZ 000000014003eb60 f i rendermodel.obj
 0001:0003db60       ?senditems@clientmode@game@@UEAAXAEAUpacketbuf@@@Z 000000014003eb60 f i client1.obj
 0001:0003db60       ?checkitems@clientmode@game@@UEAAXPEAUfpsent@@@Z 000000014003eb60 f i client1.obj
 0001:0003db60       ?setup@clientmode@game@@UEAAXXZ 000000014003eb60 f i client1.obj
 0001:0003db60       ?preload@meshgroup@animmodel@@UEAAXPEAUpart@2@@Z 000000014003eb60 f i rendermodel.obj
 0001:0003db60       ?preloadshaders@model@@UEAAX_N@Z 000000014003eb60 f i rendermodel.obj
 0001:0003db60       ?startrender@model@@UEAAXXZ 000000014003eb60 f i rendermodel.obj
 0001:0003db60       ?removeplayer@clientmode@game@@UEAAXPEAUfpsent@@@Z 000000014003eb60 f i client1.obj
 0001:0003db60       ?update@partrenderer@@UEAAXXZ 000000014003eb60 f i renderparticles.obj
 0001:0003db60       ?pushlist@g3d_gui@@UEAAXXZ 000000014003eb60 f i 3dgui.obj
 0001:0003db60       ?update@servmode@server@@UEAAXXZ 000000014003eb60 f i server1.obj
 0001:0003db60       ?render@meshgroup@animmodel@@UEAAXPEBUanimstate@2@MAEBUvec@@1PEAUdynent@@PEAUpart@2@@Z 000000014003eb60 f i rendermodel.obj
 0001:0003db60       _initialize_denormal_control 000000014003eb60 f i LIBCMT:denormal_control.obj
 0001:0003db60       ?setspec@model@@UEAAXM@Z   000000014003eb60 f i rendermodel.obj
 0001:0003db60       ?died@servmode@server@@UEAAXPEAUclientinfo@2@0@Z 000000014003eb60 f i server1.obj
 0001:0003db60       ?calcbb@mesh@animmodel@@UEAAXAEAUvec@@0AEBUmatrix4x3@@@Z 000000014003eb60 f i rendermodel.obj
 0001:0003db60       ?setalphablend@model@@UEAAX_N@Z 000000014003eb60 f i rendermodel.obj
 0001:0003db60       ?preload@clientmode@game@@UEAAXXZ 000000014003eb60 f i client1.obj
 0001:0003db60       _guard_check_icall_nop     000000014003eb60 f i LIBCMT:guard_support.obj
 0001:0003db60       ?newmap@servmode@server@@UEAAXXZ 000000014003eb60 f i server1.obj
 0001:0003db60       ?resettracked@partrenderer@@UEAAXPEAUphysent@@@Z 000000014003eb60 f i renderparticles.obj
 0001:0003db60       ?preloadmeshes@model@@UEAAXXZ 000000014003eb60 f i rendermodel.obj
 0001:0003db60       ?getteamscores@clientmode@game@@UEAAXAEAU?$vector@Uteamscore@@@@@Z 000000014003eb60 f i client1.obj
 0001:0003db60       ?setalphatest@model@@UEAAXM@Z 000000014003eb60 f i rendermodel.obj
 0001:0003db60       ?endload@animmodel@@UEAAXXZ 000000014003eb60 f i rendermodel.obj
 0001:0003db60       ?intermission@servmode@server@@UEAAXXZ 000000014003eb60 f i server1.obj
 0001:0003db60       ?setenvmap@model@@UEAAXMMPEAUTexture@@@Z 000000014003eb60 f i rendermodel.obj
 0001:0003db60       ?genBIH@mesh@animmodel@@UEAAXAEAU1BIH@@@Z 000000014003eb60 f i rendermodel.obj
 0001:0003db60       ?endrender@textrenderer@@UEAAXXZ 000000014003eb60 f i renderparticles.obj
 0001:0003db60       ?cleanup@meshgroup@animmodel@@UEAAXXZ 000000014003eb60 f i rendermodel.obj
 0001:0003db60       ?getteamscores@servmode@server@@UEAAXAEAU?$vector@Uteamscore@@@@@Z 000000014003eb60 f i server1.obj
 0001:0003db60       ?killpart@listrenderer@@UEAAXPEAUlistparticle@@@Z 000000014003eb60 f i renderparticles.obj
 0001:0003db60       ?init@partrenderer@@UEAAXH@Z 000000014003eb60 f i renderparticles.obj
 0001:0003db60       ?poplist@g3d_gui@@UEAAXXZ  000000014003eb60 f i 3dgui.obj
 0001:0003db60       ?changeteam@servmode@server@@UEAAXPEAUclientinfo@2@PEBD1@Z 000000014003eb60 f i server1.obj
 0001:0003db60       ?cleanup@partrenderer@@UEAAXXZ 000000014003eb60 f i renderparticles.obj
 0001:0003db60       ?concattagtransform@meshgroup@animmodel@@UEAAXPEAUpart@2@HAEBUmatrix4x3@@AEAU4@@Z 000000014003eb60 f i rendermodel.obj
 0001:0003db60       ?setambient@model@@UEAAXM@Z 000000014003eb60 f i rendermodel.obj
 0001:0003db60       ?doclear@rendertarget@@UEAAXXZ 000000014003eb60 f i glare.obj
 0001:0003db60       ?leavegame@servmode@server@@UEAAXPEAUclientinfo@2@_N@Z 000000014003eb60 f i server1.obj
 0001:0003db60       ?startrender@textrenderer@@UEAAXXZ 000000014003eb60 f i renderparticles.obj
 0001:0003db60       ?setglow@model@@UEAAXMMM@Z 000000014003eb60 f i rendermodel.obj
 0001:0003db60       ?rendergame@clientmode@game@@UEAAXXZ 000000014003eb60 f i client1.obj
 0001:0003db60       ?startload@animmodel@@UEAAXXZ 000000014003eb60 f i rendermodel.obj
 0001:0003db60       ?seedemitter@partrenderer@@UEAAXAEAUparticleemitter@@AEBUvec@@1HMH@Z 000000014003eb60 f i renderparticles.obj
 0001:0003db60       ?spawned@servmode@server@@UEAAXPEAUclientinfo@2@@Z 000000014003eb60 f i server1.obj
 0001:0003db60       ?initclient@servmode@server@@UEAAXPEAUclientinfo@2@AEAUpacketbuf@@_N@Z 000000014003eb60 f i server1.obj
 0001:0003db60       ?gameover@clientmode@game@@UEAAXXZ 000000014003eb60 f i client1.obj
 0001:0003db60       ?setup@servmode@server@@UEAAXXZ 000000014003eb60 f i server1.obj
 0001:0003db60       ?changeteam@collectservmode@server@@UEAAXPEAUclientinfo@2@PEBD1@Z 000000014003eb60 f i server1.obj
 0001:0003db60       ?setcullface@model@@UEAAX_N@Z 000000014003eb60 f i rendermodel.obj
 0001:0003db60       ?endrender@model@@UEAAXXZ  000000014003eb60 f i rendermodel.obj
 0001:0003db60       ?setfullbright@model@@UEAAXM@Z 000000014003eb60 f i rendermodel.obj
 0001:0003db60       ?setshader@model@@UEAAXPEAUShader@@@Z 000000014003eb60 f i rendermodel.obj
 0001:0003db60       ?respawned@captureclientmode@game@@UEAAXPEAUfpsent@@@Z 000000014003eb60 f i client1.obj
 0001:0003db60       ?setglare@model@@UEAAXMM@Z 000000014003eb60 f i rendermodel.obj
 0001:0003db60       ?respawned@clientmode@game@@UEAAXPEAUfpsent@@@Z 000000014003eb60 f i client1.obj
 0001:0003db60       _initialize_invalid_parameter_handler 000000014003eb60 f i LIBCMT:invalid_parameter_handler.obj
 0001:0003db60       ?process@gameevent@server@@UEAAXPEAUclientinfo@2@@Z 000000014003eb60 f i server1.obj
 0001:0003db60       ?entergame@servmode@server@@UEAAXPEAUclientinfo@2@@Z 000000014003eb60 f i server1.obj
 0001:0003db70       ?aicheck@clientmode@game@@UEAA_NPEAUfpsent@@AEAUaistate@ai@@@Z 000000014003eb70 f i client1.obj
 0001:0003db70       ?aicheck@captureclientmode@game@@UEAA_NPEAUfpsent@@AEAUaistate@ai@@@Z 000000014003eb70 f i client1.obj
 0001:0003db70       ?loaddefaultparts@animmodel@@UEAA_NXZ 000000014003eb70 f i rendermodel.obj
 0001:0003db70       ?loadconfig@md2@@UEAA_NXZ  000000014003eb70 f i rendermodel.obj
 0001:0003db70       ?seek@stream@@UEAA_N_JH@Z  000000014003eb70 f i stream.obj
 0001:0003db70       ?hidefrags@servmode@server@@UEAA_NXZ 000000014003eb70 f i server1.obj
 0001:0003db70       ?loadconfig@animmodel@@UEAA_NXZ 000000014003eb70 f i rendermodel.obj
 0001:0003db70       ?envmapped@model@@UEAA_NXZ 000000014003eb70 f i rendermodel.obj
 0001:0003db70       ?extinfoteam@servmode@server@@UEAA_NPEBDAEAU?$databuf@E@@@Z 000000014003eb70 f i server1.obj
 0001:0003db70       ?flipdebug@shadowmaptexture@@UEBA_NXZ 000000014003eb70 f i shadowmap.obj
 0001:0003db70       ?skeletal@model@@UEBA_NXZ  000000014003eb70 f i rendermodel.obj
 0001:0003db70       ?keepable@gameevent@server@@UEBA_NXZ 000000014003eb70 f i server1.obj
 0001:0003db70       ?aipursue@clientmode@game@@UEAA_NPEAUfpsent@@AEAUaistate@ai@@@Z 000000014003eb70 f i client1.obj
 0001:0003db70       ?flipy@animmodel@@UEBA_NXZ 000000014003eb70 f i rendermodel.obj
 0001:0003db70       ?aidefend@clientmode@game@@UEAA_NPEAUfpsent@@AEAUaistate@ai@@@Z 000000014003eb70 f i client1.obj
 0001:0003db70       ?swaptexs@rendertarget@@UEBA_NXZ 000000014003eb70 f i glare.obj
 0001:0003db70       ?screenrect@rendertarget@@UEBA_NXZ 000000014003eb70 f i glare.obj
 0001:0003db70       ?hidefrags@clientmode@game@@UEAA_NXZ 000000014003eb70 f i client1.obj
 0001:0003db70       ?shouldtab@g3d_gui@@UEAA_NXZ 000000014003eb70 f i 3dgui.obj
 0001:0003db80       _get_startup_thread_locale_mode 000000014003eb80 f i LIBCMT:thread_locale.obj
 0001:0003db80       ?addpart@flarerenderer@@UEAAPEAUparticle@@AEBUvec@@0HHMH@Z 000000014003eb80 f i renderparticles.obj
 0001:0003db80       ?prefabpreview@g3d_gui@@UEAAHPEBDAEBUvec@@M_N@Z 000000014003eb80 f i 3dgui.obj
 0001:0003db80       ?read@stream@@UEAA_KPEAX_K@Z 000000014003eb80 f i stream.obj
 0001:0003db80       ?write@stream@@UEAA_KPEBX_K@Z 000000014003eb80 f i stream.obj
 0001:0003db80       _get_startup_new_mode      000000014003eb80 f i LIBCMT:new_mode.obj
 0001:0003db80       ?clipconsole@clientmode@game@@UEAAHHH@Z 000000014003eb80 f i client1.obj
 0001:0003db80       ?loadanim@skelmeshgroup@skelmodel@@UEAAPEAUskelanimspec@2@PEBD@Z 000000014003eb80 f i rendermodel.obj
 0001:0003db80       ?getcrc@stream@@UEAAIXZ    000000014003eb80 f i stream.obj
 0001:0003db80       ?loadmeshes@animmodel@@UEAAPEAUmeshgroup@1@PEBDPEAD@Z 000000014003eb80 f i rendermodel.obj
 0001:0003db80       _matherr                   000000014003eb80 f i LIBCMT:matherr.obj
 0001:0003db80       ?getteamscore@servmode@server@@UEAAHPEBD@Z 000000014003eb80 f i server1.obj
 0001:0003db80       ?playerpreview@g3d_gui@@UEAAHHHHM_N@Z 000000014003eb80 f i 3dgui.obj
 0001:0003db80       ?type@md2@@UEBAHXZ         000000014003eb80 f i rendermodel.obj
 0001:0003db80       __scrt_stub_for_initialize_mta 000000014003eb80 f i LIBCMT:utility_desktop.obj
 0001:0003db80       __scrt_exe_initialize_mta  000000014003eb80 f i LIBCMT:utility_desktop.obj
 0001:0003db80       ?modelpreview@g3d_gui@@UEAAHPEBDHM_N@Z 000000014003eb80 f i 3dgui.obj
 0001:0003db80       ?adddepthfx@partrenderer@@UEAAHAEAUvec@@0@Z 000000014003eb80 f i renderparticles.obj
 0001:0003db80       ?linktype@animmodel@@UEBAHPEAU1@@Z 000000014003eb80 f i rendermodel.obj
 0001:0003db80       ?respawnwait@clientmode@game@@UEAAHPEAUfpsent@@@Z 000000014003eb80 f i client1.obj
 0001:0003db80       _get_startup_commit_mode   000000014003eb80 f i LIBCMT:commit_mode.obj
 0001:0003db80       ?getteamscore@clientmode@game@@UEAAHPEBD@Z 000000014003eb80 f i client1.obj
 0001:0003db80       __scrt_initialize_winrt    000000014003eb80 f i LIBCMT:utility_desktop.obj
 0001:0003db80       ?setBIH@model@@UEAAPEAUBIH@@XZ 000000014003eb80 f i rendermodel.obj
 0001:0003db90       ??1g3d_gui@@UEAA@XZ        000000014003eb90 f i 3dgui.obj
 0001:0003dba0       ?ortho@matrix4@@QEAAXMMMMMM@Z 000000014003eba0 f i 3dgui.obj
 0001:0003dd10       ?newstring@@YAPEADPEBD_K@Z 000000014003ed10 f i 3dgui.obj
 0001:0003dd80       ?traverse@BIH@@QEAA_NAEBUmesh@1@AEBUvec@@11MAEAMHPEAUnode@1@MM@Z 000000014003ed80 f i bih.obj
 0001:0003e240       ?traverse@BIH@@QEAA_NAEBUvec@@0MAEAMH@Z 000000014003f240 f i bih.obj
 0001:0003e4e0       ?invert@matrix4x3@@QEAAXAEBU1@@Z 000000014003f4e0 f i bih.obj
 0001:0003e740       ?transform@matrix4x3@@QEBA?AUvec@@AEBU2@@Z 000000014003f740 f i bih.obj
 0001:0003e840       ??1blobrenderer@@QEAA@XZ   000000014003f840 f i blob.obj
 0001:0003e8b0       ?cleanup@blobrenderer@@QEAAXXZ 000000014003f8b0 f i blob.obj
 0001:0003e940       ?init@blobrenderer@@QEAAXH@Z 000000014003f940 f i blob.obj
 0001:0003eb10       ?freeblob@blobrenderer@@QEAA_NXZ 000000014003fb10 f i blob.obj
 0001:0003ebb0       ?newblob@blobrenderer@@QEAAAEAUblobinfo@@AEBUvec@@M@Z 000000014003fbb0 f i blob.obj
 0001:0003ec70       ?dupblob@blobrenderer@@QEAAXXZ 000000014003fc70 f i blob.obj
 0001:0003ece0       ?addtris@blobrenderer@@QEAAXPEBUvec@@H@Z 000000014003fce0 f i blob.obj
 0001:0003f420       ?gentris@blobrenderer@@QEAAXAEAUcube@@HAEBUivec@@HPEAUmaterialsurface@@H@Z 0000000140040420 f i blob.obj
 0001:00040180       ?findescaped@blobrenderer@@QEAAXPEAUcube@@AEBUivec@@HH@Z 0000000140041180 f i blob.obj
 0001:000402d0       ?gentris@blobrenderer@@QEAAXPEAUcube@@AEBUivec@@HH@Z 00000001400412d0 f i blob.obj
 0001:00040770       ?setuprenderstate@blobrenderer@@SAXXZ 0000000140041770 f i blob.obj
 0001:00040850       ?fadeblob@blobrenderer@@QEAAXPEAUblobinfo@@M@Z 0000000140041850 f i blob.obj
 0001:00040b80       ?renderblob@blobrenderer@@QEAAXAEBUvec@@MM@Z 0000000140041b80 f i blob.obj
 0001:000410e0       ?flushblobs@blobrenderer@@QEAAXXZ 00000001400420e0 f i blob.obj
 0001:00041540       ??$clip@$0A@@blobrenderer@@SAHPEBUvec@@HMMPEAU1@@Z 0000000140042540 f i blob.obj
 0001:00041900       ??$clip@$00@blobrenderer@@SAHPEBUvec@@HMMPEAU1@@Z 0000000140042900 f i blob.obj
 0001:00041cd0       ??$clip@$01@blobrenderer@@SAHPEBUvec@@HMMPEAU1@@Z 0000000140042cd0 f i blob.obj
 0001:00042090       ??$split@$01@blobrenderer@@SAHPEBUvec@@HMMPEAU1@@Z 0000000140043090 f i blob.obj
 0001:00042420       ??1decalrenderer@@QEAA@XZ  0000000140043420 f i decal.obj
 0001:00042470       ?freedecal@decalrenderer@@QEAAHXZ 0000000140043470 f i decal.obj
 0001:000424d0       ?fadeindecals@decalrenderer@@QEAAXXZ 00000001400434d0 f i decal.obj
 0001:00042800       ?fadeoutdecals@decalrenderer@@QEAAXXZ 0000000140043800 f i decal.obj
 0001:00042b20       ?render@decalrenderer@@QEAAXXZ 0000000140043b20 f i decal.obj
 0001:00042e10       ?adddecal@decalrenderer@@QEAAXAEBUvec@@0MAEBUbvec@@H@Z 0000000140043e10 f i decal.obj
 0001:00043240       ?clip@decalrenderer@@SAHPEBUvec@@HAEBU2@MMPEAU2@@Z 0000000140044240 f i decal.obj
 0001:00043680       ?gentris@decalrenderer@@QEAAXAEAUcube@@HAEBUivec@@HPEAUmaterialsurface@@H@Z 0000000140044680 f i decal.obj
 0001:00045040       ?findmaterials@decalrenderer@@QEAAXPEAUvtxarray@@@Z 0000000140046040 f i decal.obj
 0001:000451f0       ?findescaped@decalrenderer@@QEAAXPEAUcube@@AEBUivec@@HH@Z 00000001400461f0 f i decal.obj
 0001:00045340       ?gentris@decalrenderer@@QEAAXPEAUcube@@AEBUivec@@HH@Z 0000000140046340 f i decal.obj
 0001:00045620       ??$dist_to_bb@Uivec@@@vec@@QEBAMAEBUivec@@0@Z 0000000140046620 f i dynlight.obj
 0001:000456d0       ??1rendertarget@@UEAA@XZ   00000001400466d0 f i glare.obj
 0001:000456e0       ?attachment@rendertarget@@UEBAIXZ 00000001400466e0 f i glare.obj
 0001:000456f0       ?colorformats@rendertarget@@UEBAPEBIXZ 00000001400466f0 f i glare.obj
 0001:00045700       ?depthformats@rendertarget@@UEBAPEBIXZ 0000000140046700 f i glare.obj
 0001:00045710       _should_initialize_environment 0000000140046710 f i LIBCMT:env_mode.obj
 0001:00045710       ?hidefrags@captureservmode@server@@UEAA_NXZ 0000000140046710 f i server1.obj
 0001:00045710       ?flipy@md3@@UEBA_NXZ       0000000140046710 f i rendermodel.obj
 0001:00045710       ?canspawn@servmode@server@@UEAA_NPEAUclientinfo@2@_N@Z 0000000140046710 f i server1.obj
 0001:00045710       ?filter@rendertarget@@UEBA_NXZ 0000000140046710 f i glare.obj
 0001:00045710       ?hidefrags@ctfservmode@server@@UEAA_NXZ 0000000140046710 f i server1.obj
 0001:00045710       ?canchangeteam@servmode@server@@UEAA_NPEAUclientinfo@2@PEBD1@Z 0000000140046710 f i server1.obj
 0001:00045710       ?skeletal@skelmodel@@UEBA_NXZ 0000000140046710 f i rendermodel.obj
 0001:00045710       ?swaptexs@shadowmaptexture@@UEBA_NXZ 0000000140046710 f i shadowmap.obj
 0001:00045710       ?hidefrags@collectclientmode@game@@UEAA_NXZ 0000000140046710 f i client1.obj
 0001:00045710       ?flipy@md2@@UEBA_NXZ       0000000140046710 f i rendermodel.obj
 0001:00045710       ?depthtest@rendertarget@@UEBA_NXZ 0000000140046710 f i glare.obj
 0001:00045710       __acrt_uninitialize_command_line 0000000140046710 f i libucrt:argv_data.obj
 0001:00045710       ?screenrect@depthfxtexture@@UEBA_NXZ 0000000140046710 f i renderparticles.obj
 0001:00045710       ?flipy@obj@@UEBA_NXZ       0000000140046710 f i rendermodel.obj
 0001:00045710       ?hidefrags@ctfclientmode@game@@UEAA_NXZ 0000000140046710 f i client1.obj
 0001:00045710       ?hidefrags@collectservmode@server@@UEAA_NXZ 0000000140046710 f i server1.obj
 0001:00045710       ?dorender@rendertarget@@UEAA_NXZ 0000000140046710 f i glare.obj
 0001:00045710       ?shouldrender@rendertarget@@UEAA_NXZ 0000000140046710 f i glare.obj
 0001:00045710       ?keepable@explodeevent@server@@UEBA_NXZ 0000000140046710 f i server1.obj
 0001:00045710       ?flush@stream@@UEAA_NXZ    0000000140046710 f i stream.obj
 0001:00045710       ?hidefrags@captureclientmode@game@@UEAA_NXZ 0000000140046710 f i client1.obj
 0001:00045710       ?flipdebug@rendertarget@@UEBA_NXZ 0000000140046710 f i glare.obj
 0001:00045720       ?cleanupblur@rendertarget@@QEAAXXZ 0000000140046720 f i glare.obj
 0001:000457a0       ?setupblur@rendertarget@@QEAAXXZ 00000001400467a0 f i glare.obj
 0001:000459c0       ?setup@rendertarget@@QEAAXHH@Z 00000001400469c0 f i glare.obj
 0001:00045c30       ?rendertiles@rendertarget@@QEAAXXZ 0000000140046c30 f i glare.obj
 0001:000461d0       ?blur@rendertarget@@QEAAXHMHHHH_N@Z 00000001400471d0 f i glare.obj
 0001:00046380       ?doblur@rendertarget@@UEAAXHM@Z 0000000140047380 f i glare.obj
 0001:00046440       ?scissorrender@rendertarget@@UEAA_NAEAH000@Z 0000000140047440 f i glare.obj
 0001:00046680       ?scissorblur@rendertarget@@UEAA_NAEAH000@Z 0000000140047680 f i glare.obj
 0001:000468a0       ?render@rendertarget@@QEAAXHHHM@Z 00000001400478a0 f i glare.obj
 0001:00046c20       ?debug@rendertarget@@QEAAXXZ 0000000140047c20 f i glare.obj
 0001:00046d80       ??_Erendertarget@@UEAAPEAXI@Z 0000000140047d80 f i * CIL library *:* CIL module *
 0001:00046d80       ??_Grendertarget@@UEAAPEAXI@Z 0000000140047d80 f i glare.obj
 0001:00046db0       ?dorender@glaretexture@@UEAA_NXZ 0000000140047db0 f i glare.obj
 0001:00046ef0       ??_Gglaretexture@@UEAAPEAXI@Z 0000000140047ef0 f i glare.obj
 0001:00046ef0       ??_Eshadowmaptexture@@UEAAPEAXI@Z 0000000140047ef0 f i * CIL library *:* CIL module *
 0001:00046ef0       ??_Edepthfxtexture@@UEAAPEAXI@Z 0000000140047ef0 f i * CIL library *:* CIL module *
 0001:00046ef0       ??_Eglaretexture@@UEAAPEAXI@Z 0000000140047ef0 f i * CIL library *:* CIL module *
 0001:00046ef0       ??_Gdepthfxtexture@@UEAAPEAXI@Z 0000000140047ef0 f i renderparticles.obj
 0001:00046ef0       ??_Gshadowmaptexture@@UEAAPEAXI@Z 0000000140047ef0 f i shadowmap.obj
 0001:00046f30       ?resolve@LocalShaderParam@@QEAAPEAULocalShaderParamState@@XZ 0000000140047f30 f i glare.obj
 0001:00046fb0       ?setf@LocalShaderParam@@QEAAXMMMM@Z 0000000140047fb0 f i glare.obj
 0001:00047120       ?add@?$vector@Ugrassvert@@@@QEAAAEAUgrassvert@@XZ 0000000140048120 f i grass.obj
 0001:00047210       ??1QuadNode@@QEAA@XZ       0000000140048210 f i material.obj
 0001:00047210       ?clear@QuadNode@@QEAAXXZ   0000000140048210 f i material.obj
 0001:00047270       ?insert@QuadNode@@QEAAXHHH@Z 0000000140048270 f i material.obj
 0001:000473e0       ?genmatsurfs@QuadNode@@QEAAXGEEHAEAPEAUmaterialsurface@@@Z 00000001400483e0 f i material.obj
 0001:00047650       ??_GQuadNode@@QEAAPEAXI@Z  0000000140048650 f i material.obj
 0001:00047680       ?set@GlobalShaderParam@@QEAAXAEBUvec@@M@Z 0000000140048680 f i material.obj
 0001:000476e0       ?compressfind@unionfind@@QEAAHH@Z 00000001400486e0 f i material.obj
 0001:00047730       ?unite@unionfind@@QEAAXHH@Z 0000000140048730 f i material.obj
 0001:000478c0       ??1?$hashbase@U?$hashtable@IH@@U?$hashtableentry@IH@@IH@@QEAA@XZ 00000001400488c0 f i rendermodel.obj
 0001:000478c0       ??1?$hashbase@U?$hashset@PEBD@@PEBDPEBDPEBD@@QEAA@XZ 00000001400488c0 f i rendergl.obj
 0001:000478c0       ??1?$hashbase@U?$hashset@H@@HHH@@QEAA@XZ 00000001400488c0 f i rendermodel.obj
 0001:00047930       ?insert@?$hashbase@U?$hashset@PEBD@@PEBDPEBDPEBD@@QEAAPEAUchain@1@I@Z 0000000140048930 f i rendergl.obj
 0001:00047930       ?insert@?$hashbase@U?$hashset@H@@HHH@@QEAAPEAUchain@1@I@Z 0000000140048930 f i rendermodel.obj
 0001:00047930       ?insert@?$hashbase@U?$hashtable@IH@@U?$hashtableentry@IH@@IH@@QEAAPEAUchain@1@I@Z 0000000140048930 f i rendermodel.obj
 0001:00047ac0       ?rotate_around_z@matrix4x3@@QEAAXM@Z 0000000140048ac0 f i rendergl.obj
 0001:00047bf0       ?clip@matrix4@@QEAAXAEBUplane@@AEBU1@@Z 0000000140048bf0 f i rendergl.obj
 0001:00047d80       ?transposedtransform@matrix4@@QEBAXAEBUplane@@AEAU2@@Z 0000000140048d80 f i rendergl.obj
 0001:00047ea0       ?perspective@matrix4@@QEAAXMMMM@Z 0000000140048ea0 f i rendergl.obj
 0001:00047ff0       ??$mult@Udvec4@@@matrix4@@QEAAXAEBU0@0@Z 0000000140048ff0 f i rendergl.obj
 0001:000486c0       __local_stdio_scanf_options 00000001400496c0 f i rendergl.obj
 0001:000486d0       sscanf                     00000001400496d0 f i rendergl.obj
 0001:00048730       ?setupjoints@ragdollskel@@QEAAXXZ 0000000140049730 f i rendermodel.obj
 0001:00048ca0       ?setuprotfrictions@ragdollskel@@QEAAXXZ 0000000140049ca0 f i rendermodel.obj
 0001:00048e50       ??0ragdolldata@@QEAA@PEAUragdollskel@@M@Z 0000000140049e50 f i rendermodel.obj
 0001:00048fe0       ?calcanimjoint@ragdolldata@@QEAAXHAEBUmatrix4x3@@@Z 0000000140049fe0 f i rendermodel.obj
 0001:00049320       ?calctris@ragdolldata@@QEAAXXZ 000000014004a320 f i rendermodel.obj
 0001:00049580       ?calcboundsphere@ragdolldata@@QEAAXXZ 000000014004a580 f i rendermodel.obj
 0001:000496b0       ?collidevert@ragdolldata@@SA_NAEBUvec@@0M@Z 000000014004a6b0 f i rendermodel.obj
 0001:00049980       ?applyrotlimit@ragdolldata@@QEAAXAEAUtri@ragdollskel@@0MAEBUvec@@@Z 000000014004a980 f i rendermodel.obj
 0001:0004a440       ??_Gragdolldata@@QEAAPEAXI@Z 000000014004b440 f i rendermodel.obj
 0001:0004a4b0       ?setframes@animpos@animmodel@@QEAAXAEBUaniminfo@@@Z 000000014004b4b0 f i rendermodel.obj
 0001:0004a5b0       ??9animstate@animmodel@@QEBA_NAEBU01@@Z 000000014004b5b0 f i rendermodel.obj
 0001:0004a630       ?setshaderparams@skin@animmodel@@QEAAXPEAUmesh@2@PEBUanimstate@2@@Z 000000014004b630 f i rendermodel.obj
 0001:0004b470       ?loadshader@skin@animmodel@@QEAAPEAUShader@@XZ 000000014004c470 f i rendermodel.obj
 0001:0004b5a0       ?bind@skin@animmodel@@QEAAXPEAUmesh@2@PEBUanimstate@2@@Z 000000014004c5a0 f i rendermodel.obj
 0001:0004b8c0       ??1mesh@animmodel@@UEAA@XZ 000000014004c8c0 f i rendermodel.obj
 0001:0004b900       ?setshader@mesh@animmodel@@UEAAXPEAUShader@@@Z 000000014004c900 f i rendermodel.obj
 0001:0004b980       ?fixqtangent@mesh@animmodel@@SAXAEAUquat@@M@Z 000000014004c980 f i rendermodel.obj
 0001:0004ba80       ??1meshgroup@animmodel@@UEAA@XZ 000000014004ca80 f i rendermodel.obj
 0001:0004bb20       ?findtag@meshgroup@animmodel@@UEAAHPEBD@Z 000000014004cb20 f i rendermodel.obj
 0001:0004bb30       ?genBIH@meshgroup@animmodel@@QEAAXAEAU?$vector@Uskin@animmodel@@@@AEAU?$vector@Umesh@BIH@@@@AEBUmatrix4x3@@@Z 000000014004cb30 f i rendermodel.obj
 0001:0004bdb0       ?animkey@meshgroup@animmodel@@UEAAPEAXXZ 000000014004cdb0 f i rendermodel.obj
 0001:0004bdc0       ?totalframes@meshgroup@animmodel@@UEBAHXZ 000000014004cdc0 f i rendermodel.obj
 0001:0004bdc0       ?type@md3@@UEBAHXZ         000000014004cdc0 f i rendermodel.obj
 0001:0004bdc0       ?linktype@md2@@UEBAHPEAUanimmodel@@@Z 000000014004cdc0 f i rendermodel.obj
 0001:0004bdc0       _get_startup_argv_mode     000000014004cdc0 f i LIBCMT:argv_mode.obj
 0001:0004bdd0       ?hasframes@meshgroup@animmodel@@QEBA_NHH@Z 000000014004cdd0 f i rendermodel.obj
 0001:0004be10       ?bindpos@meshgroup@animmodel@@QEAAXIIPEAXH@Z 000000014004ce10 f i rendermodel.obj
 0001:0004bed0       ?bindtc@meshgroup@animmodel@@QEAAXPEAXH@Z 000000014004ced0 f i rendermodel.obj
 0001:0004bf40       ?bindnormals@meshgroup@animmodel@@QEAAXPEAXH@Z 000000014004cf40 f i rendermodel.obj
 0001:0004bfb0       ?bindtangents@meshgroup@animmodel@@QEAAXPEAXH@Z 000000014004cfb0 f i rendermodel.obj
 0001:0004c020       ?bindbones@meshgroup@animmodel@@QEAAXPEAX0H@Z 000000014004d020 f i rendermodel.obj
 0001:0004c0d0       ?sharemeshes@animmodel@@QEAAPEAUmeshgroup@1@PEBDZZ 000000014004d0d0 f i rendermodel.obj
 0001:0004c350       ??1part@animmodel@@UEAA@XZ 000000014004d350 f i rendermodel.obj
 0001:0004c430       ?cleanup@part@animmodel@@UEAAXXZ 000000014004d430 f i rendermodel.obj
 0001:0004c490       ?calcbb@part@animmodel@@QEAAXAEAUvec@@0AEBUmatrix4x3@@@Z 000000014004d490 f i rendermodel.obj
 0001:0004c800       ?genBIH@part@animmodel@@QEAAXAEAU?$vector@Umesh@BIH@@@@AEBUmatrix4x3@@@Z 000000014004d800 f i rendermodel.obj
 0001:0004cb00       ?link@part@animmodel@@QEAA_NPEAU12@PEBDAEBUvec@@HHPEAU3@@Z 000000014004db00 f i rendermodel.obj
 0001:0004ccf0       ?unlink@part@animmodel@@QEAA_NPEAU12@@Z 000000014004dcf0 f i rendermodel.obj
 0001:0004ce20       ?initskins@part@animmodel@@QEAAXPEAUTexture@@0H@Z 000000014004de20 f i rendermodel.obj
 0001:0004cfd0       ?getdefaultanim@part@animmodel@@UEAAXAEAUaniminfo@@HIPEAUdynent@@@Z 000000014004dfd0 f i rendermodel.obj
 0001:0004cfe0       ?calcanim@part@animmodel@@QEAA_NHHHHPEAUdynent@@HAEAUaniminfo@@AEAH@Z 000000014004dfe0 f i rendermodel.obj
 0001:0004d400       ?render@part@animmodel@@QEAAXHHHMAEBUvec@@0PEAUdynent@@PEAUanimstate@2@@Z 000000014004e400 f i rendermodel.obj
 0001:0004dfa0       ?setanim@part@animmodel@@QEAAXHHHHMH@Z 000000014004efa0 f i rendermodel.obj
 0001:0004e180       ?loaded@part@animmodel@@UEAAXXZ 000000014004f180 f i rendermodel.obj
 0001:0004e270       ?render@animmodel@@QEAAXHHHMAEBUvec@@0PEAUdynent@@PEAUmodelattach@@@Z 000000014004f270 f i rendermodel.obj
 0001:0004e5b0       ?render@animmodel@@UEAAXHHHAEBUvec@@MMPEAUdynent@@PEAUmodelattach@@00M@Z 000000014004f5b0 f i rendermodel.obj
 0001:0004eaf0       ??0animmodel@@QEAA@PEBD@Z  000000014004faf0 f i rendermodel.obj
 0001:0004ebe0       ??1animmodel@@UEAA@XZ      000000014004fbe0 f i rendermodel.obj
 0001:0004ec70       ?cleanup@animmodel@@UEAAXXZ 000000014004fc70 f i rendermodel.obj
 0001:0004ed40       ?addpart@animmodel@@QEAAAEAUpart@1@XZ 000000014004fd40 f i rendermodel.obj
 0001:0004ee00       ?initmatrix@animmodel@@QEAAXAEAUmatrix4x3@@@Z 000000014004fe00 f i rendermodel.obj
 0001:0004efd0       ?preloadBIH@animmodel@@UEAAXXZ 000000014004ffd0 f i rendermodel.obj
 0001:0004f0a0       ?setBIH@animmodel@@UEAAPEAUBIH@@XZ 00000001400500a0 f i rendermodel.obj
 0001:0004f160       ?envmapped@animmodel@@UEAA_NXZ 0000000140050160 f i rendermodel.obj
 0001:0004f1c0       ?load@animmodel@@UEAA_NXZ  00000001400501c0 f i rendermodel.obj
 0001:0004f340       ?preloadshaders@animmodel@@UEAAX_N@Z 0000000140050340 f i rendermodel.obj
 0001:0004f410       ?preloadmeshes@animmodel@@UEAAXXZ 0000000140050410 f i rendermodel.obj
 0001:0004f470       ?setshader@animmodel@@UEAAXPEAUShader@@@Z 0000000140050470 f i rendermodel.obj
 0001:0004f500       ?setenvmap@animmodel@@UEAAXMMPEAUTexture@@@Z 0000000140050500 f i rendermodel.obj
 0001:0004f5d0       ?setspec@animmodel@@UEAAXM@Z 00000001400505d0 f i rendermodel.obj
 0001:0004f660       ?setambient@animmodel@@UEAAXM@Z 0000000140050660 f i rendermodel.obj
 0001:0004f6f0       ?setglow@animmodel@@UEAAXMMM@Z 00000001400506f0 f i rendermodel.obj
 0001:0004f7b0       ?setglare@animmodel@@UEAAXMM@Z 00000001400507b0 f i rendermodel.obj
 0001:0004f850       ?setalphatest@animmodel@@UEAAXM@Z 0000000140050850 f i rendermodel.obj
 0001:0004f8e0       ?setalphablend@animmodel@@UEAAX_N@Z 00000001400508e0 f i rendermodel.obj
 0001:0004f970       ?setfullbright@animmodel@@UEAAXM@Z 0000000140050970 f i rendermodel.obj
 0001:0004fa00       ?setcullface@animmodel@@UEAAX_N@Z 0000000140050a00 f i rendermodel.obj
 0001:0004fa90       ?calcbb@animmodel@@UEAAXAEAUvec@@0@Z 0000000140050a90 f i rendermodel.obj
 0001:0004fbb0       ?loaded@animmodel@@UEAAXXZ 0000000140050bb0 f i rendermodel.obj
 0001:0004fc40       ?startrender@animmodel@@UEAAXXZ 0000000140050c40 f i rendermodel.obj
 0001:0004fce0       ?disablevbo@animmodel@@SAXXZ 0000000140050ce0 f i rendermodel.obj
 0001:0004fdc0       ?endrender@animmodel@@UEAAXXZ 0000000140050dc0 f i rendermodel.obj
 0001:0004fe80       ??_Emesh@animmodel@@UEAAPEAXI@Z 0000000140050e80 f i * CIL library *:* CIL module *
 0001:0004fe80       ??_Gmesh@animmodel@@UEAAPEAXI@Z 0000000140050e80 f i rendermodel.obj
 0001:0004fee0       ??_Gmeshgroup@animmodel@@UEAAPEAXI@Z 0000000140050ee0 f i rendermodel.obj
 0001:0004fee0       ??_Emeshgroup@animmodel@@UEAAPEAXI@Z 0000000140050ee0 f i * CIL library *:* CIL module *
 0001:0004ff20       ??_Epart@animmodel@@UEAAPEAXI@Z 0000000140050f20 f i * CIL library *:* CIL module *
 0001:0004ff20       ??_Gpart@animmodel@@UEAAPEAXI@Z 0000000140050f20 f i rendermodel.obj
 0001:0004ff60       ??_Eanimmodel@@UEAAPEAXI@Z 0000000140050f60 f i * CIL library *:* CIL module *
 0001:0004ff60       ??_Ganimmodel@@UEAAPEAXI@Z 0000000140050f60 f i rendermodel.obj
 0001:0004ffa0       ?buildnorms@vertmesh@vertmodel@@QEAAX_N@Z 0000000140050fa0 f i rendermodel.obj
 0001:00050020       ?calcbb@vertmesh@vertmodel@@UEAAXAEAUvec@@0AEBUmatrix4x3@@@Z 0000000140051020 f i rendermodel.obj
 0001:000501b0       ?genBIH@vertmesh@vertmodel@@UEAAXAEAUmesh@BIH@@@Z 00000001400511b0 f i rendermodel.obj
 0001:000501f0       ?interpverts@vertmesh@vertmodel@@QEAAXAEBUanimstate@animmodel@@_NPEIAXAEAUskin@4@@Z 00000001400511f0 f i rendermodel.obj
 0001:000510b0       ??0videobuffer@recorder@@QEAA@XZ 00000001400520b0 f i movie.obj
 0001:000510b0       ??0tag@vertmodel@@QEAA@XZ  00000001400520b0 f i rendermodel.obj
 0001:000510c0       ??1tag@vertmodel@@QEAA@XZ  00000001400520c0 f i rendermodel.obj
 0001:000510c0       ??1videobuffer@recorder@@QEAA@XZ 00000001400520c0 f i movie.obj
 0001:000510c0       ??1boneinfo@skelmodel@@QEAA@XZ 00000001400520c0 f i rendermodel.obj
 0001:000510c0       ??1zipfile@@QEAA@XZ        00000001400520c0 f i zip.obj
 0001:000510c0       ??1soundsample@@QEAA@XZ    00000001400520c0 f i sound.obj
 0001:000510f0       ??0vertmeshgroup@vertmodel@@QEAA@XZ 00000001400520f0 f i rendermodel.obj
 0001:00051300       ??1vertmeshgroup@vertmodel@@UEAA@XZ 0000000140052300 f i rendermodel.obj
 0001:000513f0       ?findtag@vertmeshgroup@vertmodel@@UEAAHPEBD@Z 00000001400523f0 f i rendermodel.obj
 0001:00051470       ?totalframes@vertmeshgroup@vertmodel@@UEBAHXZ 0000000140052470 f i rendermodel.obj
 0001:00051480       ?concattagtransform@vertmeshgroup@vertmodel@@UEAAXPEAUpart@animmodel@@HAEBUmatrix4x3@@AEAU5@@Z 0000000140052480 f i rendermodel.obj
 0001:00051680       ?calctagmatrix@vertmeshgroup@vertmodel@@QEAAXPEAUpart@animmodel@@HAEBUanimstate@4@AEAUmatrix4@@@Z 0000000140052680 f i rendermodel.obj
 0001:00051a10       ?genvbo@vertmeshgroup@vertmodel@@QEAAX_NAEAUvbocacheentry@2@@Z 0000000140052a10 f i rendermodel.obj
 0001:00052140       ?cleanup@vertmeshgroup@vertmodel@@UEAAXXZ 0000000140053140 f i rendermodel.obj
 0001:000521c0       ?preload@vertmeshgroup@vertmodel@@UEAAXPEAUpart@animmodel@@@Z 00000001400531c0 f i rendermodel.obj
 0001:00052250       ?render@vertmeshgroup@vertmodel@@UEAAXPEBUanimstate@animmodel@@MAEBUvec@@1PEAUdynent@@PEAUpart@4@@Z 0000000140053250 f i rendermodel.obj
 0001:00052720       ??_Gvertmesh@vertmodel@@UEAAPEAXI@Z 0000000140053720 f i rendermodel.obj
 0001:00052720       ??_Evertmesh@vertmodel@@UEAAPEAXI@Z 0000000140053720 f i * CIL library *:* CIL module *
 0001:000527e0       ??_Evertmeshgroup@vertmodel@@UEAAPEAXI@Z 00000001400537e0 f i * CIL library *:* CIL module *
 0001:000527e0       ??_Gvertmeshgroup@vertmodel@@UEAAPEAXI@Z 00000001400537e0 f i rendermodel.obj
 0001:00052820       ??_Gskelmodel@@UEAAPEAXI@Z 0000000140053820 f i rendermodel.obj
 0001:00052820       ??_Gvertmodel@@UEAAPEAXI@Z 0000000140053820 f i rendermodel.obj
 0001:00052820       ??_Evertmodel@@UEAAPEAXI@Z 0000000140053820 f i * CIL library *:* CIL module *
 0001:00052820       ??_Eskelmodel@@UEAAPEAXI@Z 0000000140053820 f i * CIL library *:* CIL module *
 0001:00052870       ??1skelmodel@@UEAA@XZ      0000000140053870 f i rendermodel.obj
 0001:00052870       ??1vertmodel@@UEAA@XZ      0000000140053870 f i rendermodel.obj
 0001:00052890       ?sortcmp@blendcombo@skelmodel@@SA_NAEBU12@0@Z 0000000140053890 f i rendermodel.obj
 0001:000528d0       ?serialize@blendcombo@skelmodel@@QEAAXAEAUvvertw@2@@Z 00000001400538d0 f i rendermodel.obj
 0001:00052aa0       ??8animcacheentry@skelmodel@@QEBA_NAEBU01@@Z 0000000140053aa0 f i rendermodel.obj
 0001:00052bc0       ?nextversion@skelcacheentry@skelmodel@@QEAAXXZ 0000000140053bc0 f i rendermodel.obj
 0001:00052c90       ??1skelmesh@skelmodel@@UEAA@XZ 0000000140053c90 f i rendermodel.obj
 0001:00052d20       ?calcbb@skelmesh@skelmodel@@UEAAXAEAUvec@@0AEBUmatrix4x3@@@Z 0000000140053d20 f i rendermodel.obj
 0001:00052eb0       ?genBIH@skelmesh@skelmodel@@UEAAXAEAUmesh@BIH@@@Z 0000000140053eb0 f i rendermodel.obj
 0001:00052f00       ?interpverts@skelmesh@skelmodel@@QEAAXPEIBUdualquat@@0_NPEIAXAEAUskin@animmodel@@@Z 0000000140053f00 f i rendermodel.obj
 0001:000534d0       ?setshader@skelmesh@skelmodel@@UEAAXPEAUShader@@@Z 00000001400544d0 f i rendermodel.obj
 0001:000535b0       ??0boneinfo@skelmodel@@QEAA@XZ 00000001400545b0 f i rendermodel.obj
 0001:000535f0       ??0skeleton@skelmodel@@QEAA@XZ 00000001400545f0 f i rendermodel.obj
 0001:000536e0       ??1skeleton@skelmodel@@QEAA@XZ 00000001400546e0 f i rendermodel.obj
 0001:000538d0       ?findskelanim@skeleton@skelmodel@@QEAAPEAUskelanimspec@2@PEBDD@Z 00000001400548d0 f i rendermodel.obj
 0001:000539d0       ?addskelanim@skeleton@skelmodel@@QEAAAEAUskelanimspec@2@PEBD@Z 00000001400549d0 f i rendermodel.obj
 0001:00053ae0       ?findbone@skeleton@skelmodel@@QEAAHPEBD@Z 0000000140054ae0 f i rendermodel.obj
 0001:00053b50       ?findtag@skeleton@skelmodel@@QEAAHPEBD@Z 0000000140054b50 f i rendermodel.obj
 0001:00053bd0       ?addtag@skeleton@skelmodel@@QEAA_NPEBDHAEBUmatrix4x3@@@Z 0000000140054bd0 f i rendermodel.obj
 0001:00053d40       ?calcantipodes@skeleton@skelmodel@@QEAAXXZ 0000000140054d40 f i rendermodel.obj
 0001:00054070       ?remapbones@skeleton@skelmodel@@QEAAXXZ 0000000140055070 f i rendermodel.obj
 0001:00054850       ?addpitchdep@skeleton@skelmodel@@QEAAXHH@Z 0000000140055850 f i rendermodel.obj
 0001:00054ab0       ?findpitchcorrect@skeleton@skelmodel@@QEAAHH@Z 0000000140055ab0 f i rendermodel.obj
 0001:00054b00       ?initpitchdeps@skeleton@skelmodel@@QEAAXXZ 0000000140055b00 f i rendermodel.obj
 0001:00054ea0       ?expandbonemask@skeleton@skelmodel@@QEAAXPEAEHH@Z 0000000140055ea0 f i rendermodel.obj
 0001:00054f20       ?linkchildren@skeleton@skelmodel@@QEAAXXZ 0000000140055f20 f i rendermodel.obj
 0001:00054f80       ?calcdeviation@skeleton@skelmodel@@QEAAMAEBUvec@@0AEBUdualquat@@1@Z 0000000140055f80 f i rendermodel.obj
 0001:00055240       ?calcpitchcorrects@skeleton@skelmodel@@QEAAXMAEBUvec@@0@Z 0000000140056240 f i rendermodel.obj
 0001:00055490       ?interpbones@skeleton@skelmodel@@QEAAXPEBUanimstate@animmodel@@MAEBUvec@@1HPEBEAEAUskelcacheentry@2@@Z 0000000140056490 f i rendermodel.obj
 0001:000563e0       ?initragdoll@skeleton@skelmodel@@QEAAXAEAUragdolldata@@AEAUskelcacheentry@2@PEAUpart@animmodel@@@Z 00000001400573e0 f i rendermodel.obj
 0001:00056a30       ?genragdollbones@skeleton@skelmodel@@QEAAXAEAUragdolldata@@AEAUskelcacheentry@2@PEAUpart@animmodel@@@Z 0000000140057a30 f i rendermodel.obj
 0001:00056f40       ?calctags@skeleton@skelmodel@@QEAAXPEAUpart@animmodel@@PEAUskelcacheentry@2@@Z 0000000140057f40 f i rendermodel.obj
 0001:00057230       ?cleanup@skeleton@skelmodel@@QEAAX_N@Z 0000000140058230 f i rendermodel.obj
 0001:00057430       ?checkskelcache@skeleton@skelmodel@@QEAAAEAUskelcacheentry@2@PEAUpart@animmodel@@PEBUanimstate@5@MAEBUvec@@2PEAUragdolldata@@@Z 0000000140058430 f i rendermodel.obj
 0001:000577f0       ??0skelmeshgroup@skelmodel@@QEAA@XZ 00000001400587f0 f i rendermodel.obj
 0001:00057950       ??1skelmeshgroup@skelmodel@@UEAA@XZ 0000000140058950 f i rendermodel.obj
 0001:00057af0       ?shareskeleton@skelmeshgroup@skelmodel@@QEAAXPEAD@Z 0000000140058af0 f i rendermodel.obj
 0001:00057de0       ?findtag@skelmeshgroup@skelmodel@@UEAAHPEBD@Z 0000000140058de0 f i rendermodel.obj
 0001:00057df0       ?animkey@skelmeshgroup@skelmodel@@UEAAPEAXXZ 0000000140058df0 f i rendermodel.obj
 0001:00057e00       ?totalframes@skelmeshgroup@skelmodel@@UEBAHXZ 0000000140058e00 f i rendermodel.obj
 0001:00057e20       ?genvbo@skelmeshgroup@skelmodel@@QEAAX_NAEAUvbocacheentry@2@@Z 0000000140058e20 f i rendermodel.obj
 0001:00058ec0       ?bindvbo@skelmeshgroup@skelmodel@@QEAAXPEBUanimstate@animmodel@@AEAUvbocacheentry@2@PEAUskelcacheentry@2@PEAUblendcacheentry@2@@Z 0000000140059ec0 f i rendermodel.obj
 0001:00059050       ?concattagtransform@skelmeshgroup@skelmodel@@UEAAXPEAUpart@animmodel@@HAEBUmatrix4x3@@AEAU5@@Z 000000014005a050 f i rendermodel.obj
 0001:00059190       ?addblendcombo@skelmeshgroup@skelmodel@@QEAAHAEBUblendcombo@2@@Z 000000014005a190 f i rendermodel.obj
 0001:00059360       ?sortblendcombos@skelmeshgroup@skelmodel@@QEAAXXZ 000000014005a360 f i rendermodel.obj
 0001:00059460       ?blendbones@skelmeshgroup@skelmodel@@QEAAXAEBUskelcacheentry@2@AEAUblendcacheentry@2@@Z 000000014005a460 f i rendermodel.obj
 0001:00059670       ?cleanup@skelmeshgroup@skelmodel@@UEAAXXZ 000000014005a670 f i rendermodel.obj
 0001:00059750       ?preload@skelmeshgroup@skelmodel@@UEAAXPEAUpart@animmodel@@@Z 000000014005a750 f i rendermodel.obj
 0001:000598e0       ?render@skelmeshgroup@skelmodel@@UEAAXPEBUanimstate@animmodel@@MAEBUvec@@1PEAUdynent@@PEAUpart@4@@Z 000000014005a8e0 f i rendermodel.obj
 0001:0005a2d0       ?initanimparts@skelpart@skelmodel@@QEAAXXZ 000000014005b2d0 f i rendermodel.obj
 0001:0005a350       ?addanimpart@skelpart@skelmodel@@QEAA_NPEAG@Z 000000014005b350 f i rendermodel.obj
 0001:0005a4c0       ?loaded@skelpart@skelmodel@@UEAAXXZ 000000014005b4c0 f i rendermodel.obj
 0001:0005a5a0       ?linktype@skelmodel@@UEBAHPEAUanimmodel@@@Z 000000014005b5a0 f i rendermodel.obj
 0001:0005a620       ?addpart@skelmodel@@QEAAAEAUskelpart@1@XZ 000000014005b620 f i rendermodel.obj
 0001:0005a6f0       ??_Gskelmesh@skelmodel@@UEAAPEAXI@Z 000000014005b6f0 f i rendermodel.obj
 0001:0005a6f0       ??_Eskelmesh@skelmodel@@UEAAPEAXI@Z 000000014005b6f0 f i * CIL library *:* CIL module *
 0001:0005a730       ??1?$hashset@H@@QEAA@XZ    000000014005b730 f i rendermodel.obj
 0001:0005a730       ??1?$hashtable@IH@@QEAA@XZ 000000014005b730 f i rendermodel.obj
 0001:0005a750       ??_Eskelmeshgroup@skelmodel@@UEAAPEAXI@Z 000000014005b750 f i * CIL library *:* CIL module *
 0001:0005a750       ??_Gskelmeshgroup@skelmodel@@UEAAPEAXI@Z 000000014005b750 f i rendermodel.obj
 0001:0005a790       ??_Gskelpart@skelmodel@@UEAAPEAXI@Z 000000014005b790 f i rendermodel.obj
 0001:0005a790       ??_Eskelpart@skelmodel@@UEAAPEAXI@Z 000000014005b790 f i * CIL library *:* CIL module *
 0001:0005a800       ??1ragdollskel@@QEAA@XZ    000000014005b800 f i rendermodel.obj
 0001:0005a900       ?adjust@skeladjustment@@QEAAXAEAUdualquat@@@Z 000000014005b900 f i rendermodel.obj
 0001:0005ab00       ?genverts@md2meshgroup@md2@@QEAAXPEAHAEAU?$vector@Utcvert@vertmodel@@@@AEAU?$vector@G@@AEAU?$vector@Utri@vertmodel@@@@@Z 000000014005bb00 f i rendermodel.obj
 0001:0005b0c0       ?load@md2meshgroup@md2@@QEAA_NPEBD@Z 000000014005c0c0 f i rendermodel.obj
 0001:0005b5f0       ?getdefaultanim@md2part@md2@@UEAAXAEAUaniminfo@@HIPEAUdynent@@@Z 000000014005c5f0 f i rendermodel.obj
 0001:0005b680       ?loadmeshes@md2@@UEAAPEAUmeshgroup@animmodel@@PEBDPEAD@Z 000000014005c680 f i rendermodel.obj
 0001:0005b700       ?addpart@md2@@QEAAAEAUmd2part@1@XZ 000000014005c700 f i rendermodel.obj
 0001:0005b7c0       ?loaddefaultparts@md2@@UEAA_NXZ 000000014005c7c0 f i rendermodel.obj
 0001:0005b930       ??_Gobj@@UEAAPEAXI@Z       000000014005c930 f i rendermodel.obj
 0001:0005b930       ??_Giqm@@UEAAPEAXI@Z       000000014005c930 f i rendermodel.obj
 0001:0005b930       ??_Gmd2@@UEAAPEAXI@Z       000000014005c930 f i rendermodel.obj
 0001:0005b930       ??_Eiqm@@UEAAPEAXI@Z       000000014005c930 f i * CIL library *:* CIL module *
 0001:0005b930       ??_Emd5@@UEAAPEAXI@Z       000000014005c930 f i * CIL library *:* CIL module *
 0001:0005b930       ??_Esmd@@UEAAPEAXI@Z       000000014005c930 f i * CIL library *:* CIL module *
 0001:0005b930       ??_Emd2@@UEAAPEAXI@Z       000000014005c930 f i * CIL library *:* CIL module *
 0001:0005b930       ??_Gmd3@@UEAAPEAXI@Z       000000014005c930 f i rendermodel.obj
 0001:0005b930       ??_Eobj@@UEAAPEAXI@Z       000000014005c930 f i * CIL library *:* CIL module *
 0001:0005b930       ??_Gmd5@@UEAAPEAXI@Z       000000014005c930 f i rendermodel.obj
 0001:0005b930       ??_Gsmd@@UEAAPEAXI@Z       000000014005c930 f i rendermodel.obj
 0001:0005b930       ??_Emd3@@UEAAPEAXI@Z       000000014005c930 f i * CIL library *:* CIL module *
 0001:0005b980       ??1?$skelloader@Usmd@@@@UEAA@XZ 000000014005c980 f i rendermodel.obj
 0001:0005b980       ??1?$vertloader@Uobj@@@@UEAA@XZ 000000014005c980 f i rendermodel.obj
 0001:0005b980       ??1?$skelloader@Umd5@@@@UEAA@XZ 000000014005c980 f i rendermodel.obj
 0001:0005b980       ??1?$vertloader@Umd2@@@@UEAA@XZ 000000014005c980 f i rendermodel.obj
 0001:0005b980       ??1?$vertloader@Umd3@@@@UEAA@XZ 000000014005c980 f i rendermodel.obj
 0001:0005b980       ??1?$skelloader@Uiqm@@@@UEAA@XZ 000000014005c980 f i rendermodel.obj
 0001:0005b9a0       ??_Emd2part@md2@@UEAAPEAXI@Z 000000014005c9a0 f i * CIL library *:* CIL module *
 0001:0005b9a0       ??_Gmd2part@md2@@UEAAPEAXI@Z 000000014005c9a0 f i rendermodel.obj
 0001:0005b9f0       ??1?$modelloader@Usmd@@Uskelmodel@@@@UEAA@XZ 000000014005c9f0 f i rendermodel.obj
 0001:0005b9f0       ??1?$modelloader@Umd2@@Uvertmodel@@@@UEAA@XZ 000000014005c9f0 f i rendermodel.obj
 0001:0005b9f0       ??1?$modelloader@Umd3@@Uvertmodel@@@@UEAA@XZ 000000014005c9f0 f i rendermodel.obj
 0001:0005b9f0       ??1?$modelloader@Umd5@@Uskelmodel@@@@UEAA@XZ 000000014005c9f0 f i rendermodel.obj
 0001:0005b9f0       ??1?$modelloader@Uiqm@@Uskelmodel@@@@UEAA@XZ 000000014005c9f0 f i rendermodel.obj
 0001:0005b9f0       ??1?$modelloader@Uobj@@Uvertmodel@@@@UEAA@XZ 000000014005c9f0 f i rendermodel.obj
 0001:0005ba10       ??_Gmd3meshgroup@md3@@UEAAPEAXI@Z 000000014005ca10 f i rendermodel.obj
 0001:0005ba10       ??_Gobjmeshgroup@obj@@UEAAPEAXI@Z 000000014005ca10 f i rendermodel.obj
 0001:0005ba10       ??_Gmd2meshgroup@md2@@UEAAPEAXI@Z 000000014005ca10 f i rendermodel.obj
 0001:0005ba10       ??_Eobjmeshgroup@obj@@UEAAPEAXI@Z 000000014005ca10 f i * CIL library *:* CIL module *
 0001:0005ba10       ??_Emd2meshgroup@md2@@UEAAPEAXI@Z 000000014005ca10 f i * CIL library *:* CIL module *
 0001:0005ba10       ??_Emd3meshgroup@md3@@UEAAPEAXI@Z 000000014005ca10 f i * CIL library *:* CIL module *
 0001:0005ba60       ?load@md3meshgroup@md3@@QEAA_NPEBD@Z 000000014005ca60 f i rendermodel.obj
 0001:0005c160       ?loadmeshes@md3@@UEAAPEAUmeshgroup@animmodel@@PEBDPEAD@Z 000000014005d160 f i rendermodel.obj
 0001:0005c1e0       ?loaddefaultparts@md3@@UEAA_NXZ 000000014005d1e0 f i rendermodel.obj
 0001:0005c2f0       ?type@md5@@UEBAHXZ         000000014005d2f0 f i rendermodel.obj
 0001:0005c300       ?buildverts@md5mesh@md5@@QEAAXAEAU?$vector@Umd5joint@@@@@Z 000000014005d300 f i rendermodel.obj
 0001:0005c870       ?load@md5mesh@md5@@QEAAXPEAUstream@@PEAD_K@Z 000000014005d870 f i rendermodel.obj
 0001:0005cd30       ?loadmesh@md5meshgroup@md5@@QEAA_NPEBDM@Z 000000014005dd30 f i rendermodel.obj
 0001:0005d4c0       ?loadanim@md5meshgroup@md5@@UEAAPEAUskelanimspec@skelmodel@@PEBD@Z 000000014005e4c0 f i rendermodel.obj
 0001:0005e0a0       ?loadmeshes@md5@@UEAAPEAUmeshgroup@animmodel@@PEBDPEAD@Z 000000014005f0a0 f i rendermodel.obj
 0001:0005e150       ?loaddefaultparts@md5@@UEAA_NXZ 000000014005f150 f i rendermodel.obj
 0001:0005e270       ??_Emd5mesh@md5@@UEAAPEAXI@Z 000000014005f270 f i * CIL library *:* CIL module *
 0001:0005e270       ??_Gmd5mesh@md5@@UEAAPEAXI@Z 000000014005f270 f i rendermodel.obj
 0001:0005e2f0       ??_Giqmmeshgroup@iqm@@UEAAPEAXI@Z 000000014005f2f0 f i rendermodel.obj
 0001:0005e2f0       ??_Esmdmeshgroup@smd@@UEAAPEAXI@Z 000000014005f2f0 f i * CIL library *:* CIL module *
 0001:0005e2f0       ??_Eiqmmeshgroup@iqm@@UEAAPEAXI@Z 000000014005f2f0 f i * CIL library *:* CIL module *
 0001:0005e2f0       ??_Gmd5meshgroup@md5@@UEAAPEAXI@Z 000000014005f2f0 f i rendermodel.obj
 0001:0005e2f0       ??_Emd5meshgroup@md5@@UEAAPEAXI@Z 000000014005f2f0 f i * CIL library *:* CIL module *
 0001:0005e2f0       ??_Gsmdmeshgroup@smd@@UEAAPEAXI@Z 000000014005f2f0 f i rendermodel.obj
 0001:0005e340       ?type@obj@@UEBAHXZ         000000014005f340 f i rendermodel.obj
 0001:0005e350       ?parsevert@objmeshgroup@obj@@QEAAXPEADAEAU?$vector@Uvec@@@@@Z 000000014005f350 f i rendermodel.obj
 0001:0005e430       ?load@objmeshgroup@obj@@QEAA_NPEBDM@Z 000000014005f430 f i rendermodel.obj
 0001:0005f1f0       ?loadmeshes@obj@@UEAAPEAUmeshgroup@animmodel@@PEBDPEAD@Z 00000001400601f0 f i rendermodel.obj
 0001:0005f290       ?loaddefaultparts@obj@@UEAA_NXZ 0000000140060290 f i rendermodel.obj
 0001:0005f3b0       ?type@smd@@UEBAHXZ         00000001400603b0 f i rendermodel.obj
 0001:0005f3c0       ?skipsection@smdmeshgroup@smd@@QEAAXPEAUstream@@PEAD_K@Z 00000001400603c0 f i rendermodel.obj
 0001:0005f4e0       ?readnodes@smdmeshgroup@smd@@QEAAXPEAUstream@@PEAD_KAEAU?$vector@Usmdbone@@@@@Z 00000001400604e0 f i rendermodel.obj
 0001:0005f8a0       ?readtriangles@smdmeshgroup@smd@@QEAAXPEAUstream@@PEAD_K@Z 00000001400608a0 f i rendermodel.obj
 0001:000607b0       ?readskeleton@smdmeshgroup@smd@@QEAAXPEAUstream@@PEAD_K@Z 00000001400617b0 f i rendermodel.obj
 0001:00060c90       ?loadmesh@smdmeshgroup@smd@@QEAA_NPEBD@Z 0000000140061c90 f i rendermodel.obj
 0001:00061060       ?readframes@smdmeshgroup@smd@@QEAAHPEAUstream@@PEAD_KAEAU?$vector@Udualquat@@@@@Z 0000000140062060 f i rendermodel.obj
 0001:000618e0       ?loadanim@smdmeshgroup@smd@@UEAAPEAUskelanimspec@skelmodel@@PEBD@Z 00000001400628e0 f i rendermodel.obj
 0001:00061d60       ?loadmeshes@smd@@UEAAPEAUmeshgroup@animmodel@@PEBDPEAD@Z 0000000140062d60 f i rendermodel.obj
 0001:00061e10       ?loaddefaultparts@smd@@UEAA_NXZ 0000000140062e10 f i rendermodel.obj
 0001:00061ee0       ??1?$hashtable@PEBDUsmdmeshdata@smdmeshgroup@smd@@@@QEAA@XZ 0000000140062ee0 f i rendermodel.obj
 0001:00061f00       ??_Gsmdmesh@smd@@UEAAPEAXI@Z 0000000140062f00 f i rendermodel.obj
 0001:00061f00       ??_Esmdmesh@smd@@UEAAPEAXI@Z 0000000140062f00 f i * CIL library *:* CIL module *
 0001:00061f50       ?type@iqm@@UEBAHXZ         0000000140062f50 f i rendermodel.obj
 0001:00061f60       ?loadiqmmeshes@iqmmeshgroup@iqm@@QEAA_NPEBDAEBUiqmheader@@PEAE@Z 0000000140062f60 f i rendermodel.obj
 0001:00062fa0       ?loadiqmanims@iqmmeshgroup@iqm@@QEAA_NPEBDAEBUiqmheader@@PEAE@Z 0000000140063fa0 f i rendermodel.obj
 0001:00063b20       ?loadiqm@iqmmeshgroup@iqm@@QEAA_NPEBD_N1@Z 0000000140064b20 f i rendermodel.obj
 0001:00063ca0       ?loadanim@iqmmeshgroup@iqm@@UEAAPEAUskelanimspec@skelmodel@@PEBD@Z 0000000140064ca0 f i rendermodel.obj
 0001:00063d90       ?loadmeshes@iqm@@UEAAPEAUmeshgroup@animmodel@@PEBDPEAD@Z 0000000140064d90 f i rendermodel.obj
 0001:00063e40       ?loaddefaultparts@iqm@@UEAA_NXZ 0000000140064e40 f i rendermodel.obj
 0001:00063f10       ??1?$hashbase@U?$hashnameset@PEAUmodel@@@@PEAUmodel@@PEBDPEAU2@@@QEAA@XZ 0000000140064f10 f i rendermodel.obj
 0001:00063f80       ??0?$skelcommands@Uiqm@@@@QEAA@XZ 0000000140064f80 f i rendermodel.obj
 0001:00064380       ?loadconfig@?$modelloader@Uiqm@@Uskelmodel@@@@UEAA_NXZ 0000000140065380 f i rendermodel.obj
 0001:000643f0       ?endload@?$modelloader@Uiqm@@Uskelmodel@@@@UEAAXXZ 00000001400653f0 f i rendermodel.obj
 0001:00064400       ?startload@?$modelloader@Uiqm@@Uskelmodel@@@@UEAAXXZ 0000000140065400 f i rendermodel.obj
 0001:00064410       ?flushpart@?$skelloader@Uiqm@@@@UEAAXXZ 0000000140065410 f i rendermodel.obj
 0001:00064420       ??0?$skelcommands@Usmd@@@@QEAA@XZ 0000000140065420 f i rendermodel.obj
 0001:00064820       ??1?$hashbase@U?$hashtable@PEBDUsmdmeshdata@smdmeshgroup@smd@@@@U?$hashtableentry@PEBDUsmdmeshdata@smdmeshgroup@smd@@@@PEBDUsmdmeshdata@smdmeshgroup@smd@@@@QEAA@XZ 0000000140065820 f i rendermodel.obj
 0001:000648b0       ?loadconfig@?$modelloader@Usmd@@Uskelmodel@@@@UEAA_NXZ 00000001400658b0 f i rendermodel.obj
 0001:00064920       ?endload@?$modelloader@Usmd@@Uskelmodel@@@@UEAAXXZ 0000000140065920 f i rendermodel.obj
 0001:00064930       ?startload@?$modelloader@Usmd@@Uskelmodel@@@@UEAAXXZ 0000000140065930 f i rendermodel.obj
 0001:00064940       ?flushpart@?$skelloader@Usmd@@@@UEAAXXZ 0000000140065940 f i rendermodel.obj
 0001:00064950       ?loadconfig@?$modelloader@Uobj@@Uvertmodel@@@@UEAA_NXZ 0000000140065950 f i rendermodel.obj
 0001:000649c0       ?endload@?$modelloader@Uobj@@Uvertmodel@@@@UEAAXXZ 00000001400659c0 f i rendermodel.obj
 0001:000649d0       ?startload@?$modelloader@Uobj@@Uvertmodel@@@@UEAAXXZ 00000001400659d0 f i rendermodel.obj
 0001:000649e0       ??0?$skelcommands@Umd5@@@@QEAA@XZ 00000001400659e0 f i rendermodel.obj
 0001:00064de0       ?add@?$vector@Umd5joint@@@@QEAAAEAUmd5joint@@AEBU2@@Z 0000000140065de0 f i rendermodel.obj
 0001:00064ee0       ?loadconfig@?$modelloader@Umd5@@Uskelmodel@@@@UEAA_NXZ 0000000140065ee0 f i rendermodel.obj
 0001:00064f50       ?endload@?$modelloader@Umd5@@Uskelmodel@@@@UEAAXXZ 0000000140065f50 f i rendermodel.obj
 0001:00064f60       ?startload@?$modelloader@Umd5@@Uskelmodel@@@@UEAAXXZ 0000000140065f60 f i rendermodel.obj
 0001:00064f70       ?flushpart@?$skelloader@Umd5@@@@UEAAXXZ 0000000140065f70 f i rendermodel.obj
 0001:00064f80       ?loadconfig@?$modelloader@Umd3@@Uvertmodel@@@@UEAA_NXZ 0000000140065f80 f i rendermodel.obj
 0001:00064ff0       ?endload@?$modelloader@Umd3@@Uvertmodel@@@@UEAAXXZ 0000000140065ff0 f i rendermodel.obj
 0001:00065000       ?startload@?$modelloader@Umd3@@Uvertmodel@@@@UEAAXXZ 0000000140066000 f i rendermodel.obj
 0001:00065010       ?loadconfig@?$modelloader@Umd2@@Uvertmodel@@@@UEAA_NXZ 0000000140066010 f i rendermodel.obj
 0001:00065080       ?endload@?$modelloader@Umd2@@Uvertmodel@@@@UEAAXXZ 0000000140066080 f i rendermodel.obj
 0001:00065090       ?startload@?$modelloader@Umd2@@Uvertmodel@@@@UEAAXXZ 0000000140066090 f i rendermodel.obj
 0001:000650a0       ??1?$hashbase@U?$hashnameset@PEAUskeleton@skelmodel@@@@PEAUskeleton@skelmodel@@PEBDPEAU23@@@QEAA@XZ 00000001400660a0 f i rendermodel.obj
 0001:00065110       ??1?$vector@Utag@skelmodel@@@@QEAA@XZ 0000000140066110 f i rendermodel.obj
 0001:00065190       ??1?$vector@Uskelanimspec@skelmodel@@@@QEAA@XZ 0000000140066190 f i rendermodel.obj
 0001:00065210       ??1?$hashbase@U?$hashnameset@PEAUmeshgroup@animmodel@@@@PEAUmeshgroup@animmodel@@PEBDPEAU23@@@QEAA@XZ 0000000140066210 f i rendermodel.obj
 0001:00065280       ??1?$hashbase@U?$hashtable@Ushaderparams@animmodel@@Ushaderparamskey@2@@@U?$hashtableentry@Ushaderparams@animmodel@@Ushaderparamskey@2@@@Ushaderparams@animmodel@@Ushaderparamskey@4@@@QEAA@XZ 0000000140066280 f i rendermodel.obj
 0001:000652f0       ??_G?$skelloader@Uiqm@@@@UEAAPEAXI@Z 00000001400662f0 f i rendermodel.obj
 0001:000652f0       ??_E?$skelloader@Umd5@@@@UEAAPEAXI@Z 00000001400662f0 f i * CIL library *:* CIL module *
 0001:000652f0       ??_E?$vertloader@Uobj@@@@UEAAPEAXI@Z 00000001400662f0 f i * CIL library *:* CIL module *
 0001:000652f0       ??_E?$vertloader@Umd2@@@@UEAAPEAXI@Z 00000001400662f0 f i * CIL library *:* CIL module *
 0001:000652f0       ??_G?$vertloader@Umd3@@@@UEAAPEAXI@Z 00000001400662f0 f i rendermodel.obj
 0001:000652f0       ??_G?$vertloader@Uobj@@@@UEAAPEAXI@Z 00000001400662f0 f i rendermodel.obj
 0001:000652f0       ??_E?$skelloader@Uiqm@@@@UEAAPEAXI@Z 00000001400662f0 f i * CIL library *:* CIL module *
 0001:000652f0       ??_E?$skelloader@Usmd@@@@UEAAPEAXI@Z 00000001400662f0 f i * CIL library *:* CIL module *
 0001:000652f0       ??_G?$skelloader@Usmd@@@@UEAAPEAXI@Z 00000001400662f0 f i rendermodel.obj
 0001:000652f0       ??_G?$vertloader@Umd2@@@@UEAAPEAXI@Z 00000001400662f0 f i rendermodel.obj
 0001:000652f0       ??_G?$skelloader@Umd5@@@@UEAAPEAXI@Z 00000001400662f0 f i rendermodel.obj
 0001:000652f0       ??_E?$vertloader@Umd3@@@@UEAAPEAXI@Z 00000001400662f0 f i * CIL library *:* CIL module *
 0001:00065340       ??0?$modelcommands@Uiqm@@Uskelmesh@skelmodel@@@@QEAA@XZ 0000000140066340 f i rendermodel.obj
 0001:00065af0       ?setadjust@?$skelcommands@Uiqm@@@@SAXPEADPEAM11111@Z 0000000140066af0 f i rendermodel.obj
 0001:00065cc0       ?setanimpart@?$skelcommands@Uiqm@@@@SAXPEAD@Z 0000000140066cc0 f i rendermodel.obj
 0001:00065ec0       ?setanim@?$skelcommands@Uiqm@@@@SAXPEAD0PEAMPEAH22@Z 0000000140066ec0 f i rendermodel.obj
 0001:000660f0       ?setpitchcorrect@?$skelcommands@Uiqm@@@@SAXPEAD0PEAM11@Z 00000001400670f0 f i rendermodel.obj
 0001:000662b0       ?setpitchtarget@?$skelcommands@Uiqm@@@@SAXPEAD0PEAHPEAM2@Z 00000001400672b0 f i rendermodel.obj
 0001:00066450       ?setpitch@?$skelcommands@Uiqm@@@@SAXPEADPEAM111@Z 0000000140067450 f i rendermodel.obj
 0001:00066610       ?settag@?$skelcommands@Uiqm@@@@SAXPEAD0PEAM11111@Z 0000000140067610 f i rendermodel.obj
 0001:00066950       ?loadpart@?$skelcommands@Uiqm@@@@SAXPEAD0PEAM@Z 0000000140067950 f i rendermodel.obj
 0001:00066aa0       ??0?$modelcommands@Usmd@@Uskelmesh@skelmodel@@@@QEAA@XZ 0000000140067aa0 f i rendermodel.obj
 0001:00067250       ?setadjust@?$skelcommands@Usmd@@@@SAXPEADPEAM11111@Z 0000000140068250 f i rendermodel.obj
 0001:00067420       ?setanimpart@?$skelcommands@Usmd@@@@SAXPEAD@Z 0000000140068420 f i rendermodel.obj
 0001:00067620       ?setanim@?$skelcommands@Usmd@@@@SAXPEAD0PEAMPEAH22@Z 0000000140068620 f i rendermodel.obj
 0001:00067850       ?setpitchcorrect@?$skelcommands@Usmd@@@@SAXPEAD0PEAM11@Z 0000000140068850 f i rendermodel.obj
 0001:00067a10       ?setpitchtarget@?$skelcommands@Usmd@@@@SAXPEAD0PEAHPEAM2@Z 0000000140068a10 f i rendermodel.obj
 0001:00067bb0       ?setpitch@?$skelcommands@Usmd@@@@SAXPEADPEAM111@Z 0000000140068bb0 f i rendermodel.obj
 0001:00067d70       ?settag@?$skelcommands@Usmd@@@@SAXPEAD0PEAM11111@Z 0000000140068d70 f i rendermodel.obj
 0001:000680b0       ?loadpart@?$skelcommands@Usmd@@@@SAXPEAD0PEAM@Z 00000001400690b0 f i rendermodel.obj
 0001:00068200       ??0?$modelcommands@Uobj@@Uvertmesh@vertmodel@@@@QEAA@XZ 0000000140069200 f i rendermodel.obj
 0001:000689b0       ?setpitch@?$vertcommands@Uobj@@@@SAXPEAM000@Z 00000001400699b0 f i rendermodel.obj
 0001:00068a60       ?loadpart@?$vertcommands@Uobj@@@@SAXPEADPEAM@Z 0000000140069a60 f i rendermodel.obj
 0001:00068b90       ??0?$modelcommands@Umd5@@Uskelmesh@skelmodel@@@@QEAA@XZ 0000000140069b90 f i rendermodel.obj
 0001:00069340       ?setadjust@?$skelcommands@Umd5@@@@SAXPEADPEAM11111@Z 000000014006a340 f i rendermodel.obj
 0001:00069510       ?setanimpart@?$skelcommands@Umd5@@@@SAXPEAD@Z 000000014006a510 f i rendermodel.obj
 0001:00069710       ?setanim@?$skelcommands@Umd5@@@@SAXPEAD0PEAMPEAH22@Z 000000014006a710 f i rendermodel.obj
 0001:00069940       ?setpitchcorrect@?$skelcommands@Umd5@@@@SAXPEAD0PEAM11@Z 000000014006a940 f i rendermodel.obj
 0001:00069b00       ?setpitchtarget@?$skelcommands@Umd5@@@@SAXPEAD0PEAHPEAM2@Z 000000014006ab00 f i rendermodel.obj
 0001:00069ca0       ?setpitch@?$skelcommands@Umd5@@@@SAXPEADPEAM111@Z 000000014006aca0 f i rendermodel.obj
 0001:00069e60       ?settag@?$skelcommands@Umd5@@@@SAXPEAD0PEAM11111@Z 000000014006ae60 f i rendermodel.obj
 0001:0006a1a0       ?loadpart@?$skelcommands@Umd5@@@@SAXPEAD0PEAM@Z 000000014006b1a0 f i rendermodel.obj
 0001:0006a2f0       ??0?$modelcommands@Umd3@@Uvertmesh@vertmodel@@@@QEAA@XZ 000000014006b2f0 f i rendermodel.obj
 0001:0006aaa0       ?setanim@?$vertcommands@Umd3@@@@SAXPEADPEAH1PEAM1@Z 000000014006baa0 f i rendermodel.obj
 0001:0006abd0       ?setpitch@?$vertcommands@Umd3@@@@SAXPEAM000@Z 000000014006bbd0 f i rendermodel.obj
 0001:0006ac80       ?loadpart@?$vertcommands@Umd3@@@@SAXPEADPEAM@Z 000000014006bc80 f i rendermodel.obj
 0001:0006adb0       ?setanim@?$vertcommands@Umd2@@@@SAXPEADPEAH1PEAM1@Z 000000014006bdb0 f i rendermodel.obj
 0001:0006aee0       ?setpitch@?$vertcommands@Umd2@@@@SAXPEAM000@Z 000000014006bee0 f i rendermodel.obj
 0001:0006af90       ?growbuf@?$vector@Umesh@BIH@@@@QEAAXH@Z 000000014006bf90 f i rendermodel.obj
 0001:0006b040       ??_G?$modelloader@Umd3@@Uvertmodel@@@@UEAAPEAXI@Z 000000014006c040 f i rendermodel.obj
 0001:0006b040       ??_E?$modelloader@Umd5@@Uskelmodel@@@@UEAAPEAXI@Z 000000014006c040 f i * CIL library *:* CIL module *
 0001:0006b040       ??_G?$modelloader@Usmd@@Uskelmodel@@@@UEAAPEAXI@Z 000000014006c040 f i rendermodel.obj
 0001:0006b040       ??_E?$modelloader@Umd3@@Uvertmodel@@@@UEAAPEAXI@Z 000000014006c040 f i * CIL library *:* CIL module *
 0001:0006b040       ??_G?$modelloader@Umd5@@Uskelmodel@@@@UEAAPEAXI@Z 000000014006c040 f i rendermodel.obj
 0001:0006b040       ??_E?$modelloader@Umd2@@Uvertmodel@@@@UEAAPEAXI@Z 000000014006c040 f i * CIL library *:* CIL module *
 0001:0006b040       ??_E?$modelloader@Uiqm@@Uskelmodel@@@@UEAAPEAXI@Z 000000014006c040 f i * CIL library *:* CIL module *
 0001:0006b040       ??_E?$modelloader@Uobj@@Uvertmodel@@@@UEAAPEAXI@Z 000000014006c040 f i * CIL library *:* CIL module *
 0001:0006b040       ??_G?$modelloader@Umd2@@Uvertmodel@@@@UEAAPEAXI@Z 000000014006c040 f i rendermodel.obj
 0001:0006b040       ??_E?$modelloader@Usmd@@Uskelmodel@@@@UEAAPEAXI@Z 000000014006c040 f i * CIL library *:* CIL module *
 0001:0006b040       ??_G?$modelloader@Uiqm@@Uskelmodel@@@@UEAAPEAXI@Z 000000014006c040 f i rendermodel.obj
 0001:0006b040       ??_G?$modelloader@Uobj@@Uvertmodel@@@@UEAAPEAXI@Z 000000014006c040 f i rendermodel.obj
 0001:0006b090       ??1chain@?$hashbase@U?$hashtable@PEBDUsmdmeshdata@smdmeshgroup@smd@@@@U?$hashtableentry@PEBDUsmdmeshdata@smdmeshgroup@smd@@@@PEBDUsmdmeshdata@smdmeshgroup@smd@@@@QEAA@XZ 000000014006c090 f i rendermodel.obj
 0001:0006b0c0       ??1?$hashtableentry@PEBDUsmdmeshdata@smdmeshgroup@smd@@@@QEAA@XZ 000000014006c0c0 f i rendermodel.obj
 0001:0006b0e0       ??1smdmeshdata@smdmeshgroup@smd@@QEAA@XZ 000000014006c0e0 f i rendermodel.obj
 0001:0006b140       ?setlink@?$modelcommands@Uiqm@@Uskelmesh@skelmodel@@@@SAXPEAH0PEADPEAM22@Z 000000014006c140 f i rendermodel.obj
 0001:0006b230       ?setnoclip@?$modelcommands@Uiqm@@Uskelmesh@skelmodel@@@@SAXPEADPEAH@Z 000000014006c230 f i rendermodel.obj
 0001:0006b330       ?setscroll@?$modelcommands@Uiqm@@Uskelmesh@skelmodel@@@@SAXPEADPEAM1@Z 000000014006c330 f i rendermodel.obj
 0001:0006b460       ?setshader@?$modelcommands@Uiqm@@Uskelmesh@skelmodel@@@@SAXPEAD0@Z 000000014006c460 f i rendermodel.obj
 0001:0006b580       ?setfullbright@?$modelcommands@Uiqm@@Uskelmesh@skelmodel@@@@SAXPEADPEAM@Z 000000014006c580 f i rendermodel.obj
 0001:0006b690       ?setbumpmap@?$modelcommands@Uiqm@@Uskelmesh@skelmodel@@@@SAXPEAD0@Z 000000014006c690 f i rendermodel.obj
 0001:0006b7c0       ?setenvmap@?$modelcommands@Uiqm@@Uskelmesh@skelmodel@@@@SAXPEAD0@Z 000000014006c7c0 f i rendermodel.obj
 0001:0006b8e0       ?setcullface@?$modelcommands@Uiqm@@Uskelmesh@skelmodel@@@@SAXPEADPEAH@Z 000000014006c8e0 f i rendermodel.obj
 0001:0006ba00       ?setalphablend@?$modelcommands@Uiqm@@Uskelmesh@skelmodel@@@@SAXPEADPEAH@Z 000000014006ca00 f i rendermodel.obj
 0001:0006bb20       ?setalphatest@?$modelcommands@Uiqm@@Uskelmesh@skelmodel@@@@SAXPEADPEAM@Z 000000014006cb20 f i rendermodel.obj
 0001:0006bc50       ?setglare@?$modelcommands@Uiqm@@Uskelmesh@skelmodel@@@@SAXPEADPEAM1@Z 000000014006cc50 f i rendermodel.obj
 0001:0006bd80       ?setglow@?$modelcommands@Uiqm@@Uskelmesh@skelmodel@@@@SAXPEADPEAH1PEAM@Z 000000014006cd80 f i rendermodel.obj
 0001:0006bef0       ?setambient@?$modelcommands@Uiqm@@Uskelmesh@skelmodel@@@@SAXPEADPEAH@Z 000000014006cef0 f i rendermodel.obj
 0001:0006c020       ?setspec@?$modelcommands@Uiqm@@Uskelmesh@skelmodel@@@@SAXPEADPEAH@Z 000000014006d020 f i rendermodel.obj
 0001:0006c150       ?setskin@?$modelcommands@Uiqm@@Uskelmesh@skelmodel@@@@SAXPEAD00PEAM1@Z 000000014006d150 f i rendermodel.obj
 0001:0006c2e0       ?setdir@?$modelcommands@Uiqm@@Uskelmesh@skelmodel@@@@SAXPEAD@Z 000000014006d2e0 f i rendermodel.obj
 0001:0006c320       ?setlink@?$modelcommands@Usmd@@Uskelmesh@skelmodel@@@@SAXPEAH0PEADPEAM22@Z 000000014006d320 f i rendermodel.obj
 0001:0006c410       ?setnoclip@?$modelcommands@Usmd@@Uskelmesh@skelmodel@@@@SAXPEADPEAH@Z 000000014006d410 f i rendermodel.obj
 0001:0006c510       ?setscroll@?$modelcommands@Usmd@@Uskelmesh@skelmodel@@@@SAXPEADPEAM1@Z 000000014006d510 f i rendermodel.obj
 0001:0006c640       ?setshader@?$modelcommands@Usmd@@Uskelmesh@skelmodel@@@@SAXPEAD0@Z 000000014006d640 f i rendermodel.obj
 0001:0006c760       ?setfullbright@?$modelcommands@Usmd@@Uskelmesh@skelmodel@@@@SAXPEADPEAM@Z 000000014006d760 f i rendermodel.obj
 0001:0006c870       ?setbumpmap@?$modelcommands@Usmd@@Uskelmesh@skelmodel@@@@SAXPEAD0@Z 000000014006d870 f i rendermodel.obj
 0001:0006c9a0       ?setenvmap@?$modelcommands@Usmd@@Uskelmesh@skelmodel@@@@SAXPEAD0@Z 000000014006d9a0 f i rendermodel.obj
 0001:0006cac0       ?setcullface@?$modelcommands@Usmd@@Uskelmesh@skelmodel@@@@SAXPEADPEAH@Z 000000014006dac0 f i rendermodel.obj
 0001:0006cbe0       ?setalphablend@?$modelcommands@Usmd@@Uskelmesh@skelmodel@@@@SAXPEADPEAH@Z 000000014006dbe0 f i rendermodel.obj
 0001:0006cd00       ?setalphatest@?$modelcommands@Usmd@@Uskelmesh@skelmodel@@@@SAXPEADPEAM@Z 000000014006dd00 f i rendermodel.obj
 0001:0006ce30       ?setglare@?$modelcommands@Usmd@@Uskelmesh@skelmodel@@@@SAXPEADPEAM1@Z 000000014006de30 f i rendermodel.obj
 0001:0006cf60       ?setglow@?$modelcommands@Usmd@@Uskelmesh@skelmodel@@@@SAXPEADPEAH1PEAM@Z 000000014006df60 f i rendermodel.obj
 0001:0006d0d0       ?setambient@?$modelcommands@Usmd@@Uskelmesh@skelmodel@@@@SAXPEADPEAH@Z 000000014006e0d0 f i rendermodel.obj
 0001:0006d200       ?setspec@?$modelcommands@Usmd@@Uskelmesh@skelmodel@@@@SAXPEADPEAH@Z 000000014006e200 f i rendermodel.obj
 0001:0006d330       ?setskin@?$modelcommands@Usmd@@Uskelmesh@skelmodel@@@@SAXPEAD00PEAM1@Z 000000014006e330 f i rendermodel.obj
 0001:0006d4c0       ?setdir@?$modelcommands@Usmd@@Uskelmesh@skelmodel@@@@SAXPEAD@Z 000000014006e4c0 f i rendermodel.obj
 0001:0006d500       ?setlink@?$modelcommands@Uobj@@Uvertmesh@vertmodel@@@@SAXPEAH0PEADPEAM22@Z 000000014006e500 f i rendermodel.obj
 0001:0006d5f0       ?setnoclip@?$modelcommands@Uobj@@Uvertmesh@vertmodel@@@@SAXPEADPEAH@Z 000000014006e5f0 f i rendermodel.obj
 0001:0006d6f0       ?setscroll@?$modelcommands@Uobj@@Uvertmesh@vertmodel@@@@SAXPEADPEAM1@Z 000000014006e6f0 f i rendermodel.obj
 0001:0006d820       ?setshader@?$modelcommands@Uobj@@Uvertmesh@vertmodel@@@@SAXPEAD0@Z 000000014006e820 f i rendermodel.obj
 0001:0006d940       ?setfullbright@?$modelcommands@Uobj@@Uvertmesh@vertmodel@@@@SAXPEADPEAM@Z 000000014006e940 f i rendermodel.obj
 0001:0006da50       ?setbumpmap@?$modelcommands@Uobj@@Uvertmesh@vertmodel@@@@SAXPEAD0@Z 000000014006ea50 f i rendermodel.obj
 0001:0006db80       ?setenvmap@?$modelcommands@Uobj@@Uvertmesh@vertmodel@@@@SAXPEAD0@Z 000000014006eb80 f i rendermodel.obj
 0001:0006dca0       ?setcullface@?$modelcommands@Uobj@@Uvertmesh@vertmodel@@@@SAXPEADPEAH@Z 000000014006eca0 f i rendermodel.obj
 0001:0006ddc0       ?setalphablend@?$modelcommands@Uobj@@Uvertmesh@vertmodel@@@@SAXPEADPEAH@Z 000000014006edc0 f i rendermodel.obj
 0001:0006dee0       ?setalphatest@?$modelcommands@Uobj@@Uvertmesh@vertmodel@@@@SAXPEADPEAM@Z 000000014006eee0 f i rendermodel.obj
 0001:0006e010       ?setglare@?$modelcommands@Uobj@@Uvertmesh@vertmodel@@@@SAXPEADPEAM1@Z 000000014006f010 f i rendermodel.obj
 0001:0006e140       ?setglow@?$modelcommands@Uobj@@Uvertmesh@vertmodel@@@@SAXPEADPEAH1PEAM@Z 000000014006f140 f i rendermodel.obj
 0001:0006e2b0       ?setambient@?$modelcommands@Uobj@@Uvertmesh@vertmodel@@@@SAXPEADPEAH@Z 000000014006f2b0 f i rendermodel.obj
 0001:0006e3e0       ?setspec@?$modelcommands@Uobj@@Uvertmesh@vertmodel@@@@SAXPEADPEAH@Z 000000014006f3e0 f i rendermodel.obj
 0001:0006e510       ?setskin@?$modelcommands@Uobj@@Uvertmesh@vertmodel@@@@SAXPEAD00PEAM1@Z 000000014006f510 f i rendermodel.obj
 0001:0006e6a0       ?setdir@?$modelcommands@Uobj@@Uvertmesh@vertmodel@@@@SAXPEAD@Z 000000014006f6a0 f i rendermodel.obj
 0001:0006e6e0       ?setlink@?$modelcommands@Umd5@@Uskelmesh@skelmodel@@@@SAXPEAH0PEADPEAM22@Z 000000014006f6e0 f i rendermodel.obj
 0001:0006e7d0       ?setnoclip@?$modelcommands@Umd5@@Uskelmesh@skelmodel@@@@SAXPEADPEAH@Z 000000014006f7d0 f i rendermodel.obj
 0001:0006e8d0       ?setscroll@?$modelcommands@Umd5@@Uskelmesh@skelmodel@@@@SAXPEADPEAM1@Z 000000014006f8d0 f i rendermodel.obj
 0001:0006ea00       ?setshader@?$modelcommands@Umd5@@Uskelmesh@skelmodel@@@@SAXPEAD0@Z 000000014006fa00 f i rendermodel.obj
 0001:0006eb20       ?setfullbright@?$modelcommands@Umd5@@Uskelmesh@skelmodel@@@@SAXPEADPEAM@Z 000000014006fb20 f i rendermodel.obj
 0001:0006ec30       ?setbumpmap@?$modelcommands@Umd5@@Uskelmesh@skelmodel@@@@SAXPEAD0@Z 000000014006fc30 f i rendermodel.obj
 0001:0006ed60       ?setenvmap@?$modelcommands@Umd5@@Uskelmesh@skelmodel@@@@SAXPEAD0@Z 000000014006fd60 f i rendermodel.obj
 0001:0006ee80       ?setcullface@?$modelcommands@Umd5@@Uskelmesh@skelmodel@@@@SAXPEADPEAH@Z 000000014006fe80 f i rendermodel.obj
 0001:0006efa0       ?setalphablend@?$modelcommands@Umd5@@Uskelmesh@skelmodel@@@@SAXPEADPEAH@Z 000000014006ffa0 f i rendermodel.obj
 0001:0006f0c0       ?setalphatest@?$modelcommands@Umd5@@Uskelmesh@skelmodel@@@@SAXPEADPEAM@Z 00000001400700c0 f i rendermodel.obj
 0001:0006f1f0       ?setglare@?$modelcommands@Umd5@@Uskelmesh@skelmodel@@@@SAXPEADPEAM1@Z 00000001400701f0 f i rendermodel.obj
 0001:0006f320       ?setglow@?$modelcommands@Umd5@@Uskelmesh@skelmodel@@@@SAXPEADPEAH1PEAM@Z 0000000140070320 f i rendermodel.obj
 0001:0006f490       ?setambient@?$modelcommands@Umd5@@Uskelmesh@skelmodel@@@@SAXPEADPEAH@Z 0000000140070490 f i rendermodel.obj
 0001:0006f5c0       ?setspec@?$modelcommands@Umd5@@Uskelmesh@skelmodel@@@@SAXPEADPEAH@Z 00000001400705c0 f i rendermodel.obj
 0001:0006f6f0       ?setskin@?$modelcommands@Umd5@@Uskelmesh@skelmodel@@@@SAXPEAD00PEAM1@Z 00000001400706f0 f i rendermodel.obj
 0001:0006f880       ?setdir@?$modelcommands@Umd5@@Uskelmesh@skelmodel@@@@SAXPEAD@Z 0000000140070880 f i rendermodel.obj
 0001:0006f8c0       ?setlink@?$modelcommands@Umd3@@Uvertmesh@vertmodel@@@@SAXPEAH0PEADPEAM22@Z 00000001400708c0 f i rendermodel.obj
 0001:0006f9b0       ?setnoclip@?$modelcommands@Umd3@@Uvertmesh@vertmodel@@@@SAXPEADPEAH@Z 00000001400709b0 f i rendermodel.obj
 0001:0006fab0       ?setscroll@?$modelcommands@Umd3@@Uvertmesh@vertmodel@@@@SAXPEADPEAM1@Z 0000000140070ab0 f i rendermodel.obj
 0001:0006fbe0       ?setshader@?$modelcommands@Umd3@@Uvertmesh@vertmodel@@@@SAXPEAD0@Z 0000000140070be0 f i rendermodel.obj
 0001:0006fd00       ?setfullbright@?$modelcommands@Umd3@@Uvertmesh@vertmodel@@@@SAXPEADPEAM@Z 0000000140070d00 f i rendermodel.obj
 0001:0006fe10       ?setbumpmap@?$modelcommands@Umd3@@Uvertmesh@vertmodel@@@@SAXPEAD0@Z 0000000140070e10 f i rendermodel.obj
 0001:0006ff40       ?setenvmap@?$modelcommands@Umd3@@Uvertmesh@vertmodel@@@@SAXPEAD0@Z 0000000140070f40 f i rendermodel.obj
 0001:00070060       ?setcullface@?$modelcommands@Umd3@@Uvertmesh@vertmodel@@@@SAXPEADPEAH@Z 0000000140071060 f i rendermodel.obj
 0001:00070180       ?setalphablend@?$modelcommands@Umd3@@Uvertmesh@vertmodel@@@@SAXPEADPEAH@Z 0000000140071180 f i rendermodel.obj
 0001:000702a0       ?setalphatest@?$modelcommands@Umd3@@Uvertmesh@vertmodel@@@@SAXPEADPEAM@Z 00000001400712a0 f i rendermodel.obj
 0001:000703d0       ?setglare@?$modelcommands@Umd3@@Uvertmesh@vertmodel@@@@SAXPEADPEAM1@Z 00000001400713d0 f i rendermodel.obj
 0001:00070500       ?setglow@?$modelcommands@Umd3@@Uvertmesh@vertmodel@@@@SAXPEADPEAH1PEAM@Z 0000000140071500 f i rendermodel.obj
 0001:00070670       ?setambient@?$modelcommands@Umd3@@Uvertmesh@vertmodel@@@@SAXPEADPEAH@Z 0000000140071670 f i rendermodel.obj
 0001:000707a0       ?setspec@?$modelcommands@Umd3@@Uvertmesh@vertmodel@@@@SAXPEADPEAH@Z 00000001400717a0 f i rendermodel.obj
 0001:000708d0       ?setskin@?$modelcommands@Umd3@@Uvertmesh@vertmodel@@@@SAXPEAD00PEAM1@Z 00000001400718d0 f i rendermodel.obj
 0001:00070a60       ?setdir@?$modelcommands@Umd3@@Uvertmesh@vertmodel@@@@SAXPEAD@Z 0000000140071a60 f i rendermodel.obj
 0001:00070aa0       ?setdir@?$modelcommands@Umd2@@Uvertmesh@vertmodel@@@@SAXPEAD@Z 0000000140071aa0 f i rendermodel.obj
 0001:00070ae0       ?add@?$vector@Uskeladjustment@@@@QEAAAEAUskeladjustment@@AEBU2@@Z 0000000140071ae0 f i rendermodel.obj
 0001:00070be0       ?insert@?$vector@Upitchcorrect@skelmodel@@@@QEAAAEAUpitchcorrect@skelmodel@@HAEBU23@@Z 0000000140071be0 f i rendermodel.obj
 0001:00070d50       ?add@?$vector@Upitchtarget@skelmodel@@@@QEAAAEAUpitchtarget@skelmodel@@XZ 0000000140071d50 f i rendermodel.obj
 0001:00070e10       ??$smoothnorms@Uvert@vertmodel@@Utri@2@@mesh@animmodel@@QEAAXPEAUvert@vertmodel@@HPEAUtri@3@HM_N@Z 0000000140071e10 f i rendermodel.obj
 0001:000715c0       ??$genvbo@Uvvertbump@vertmodel@@@vertmesh@vertmodel@@QEAAHAEAU?$vector@G@@HAEAU?$vector@Uvvertbump@vertmodel@@@@PEAHH@Z 00000001400725c0 f i rendermodel.obj
 0001:00071a70       ??$genvbo@Uvvertn@vertmodel@@@vertmesh@vertmodel@@QEAAHAEAU?$vector@G@@HAEAU?$vector@Uvvertn@vertmodel@@@@PEAHH@Z 0000000140072a70 f i rendermodel.obj
 0001:00071ed0       ??$smoothnorms@Uvert@skelmodel@@Utri@2@@mesh@animmodel@@QEAAXPEAUvert@skelmodel@@HPEAUtri@3@HM_N@Z 0000000140072ed0 f i rendermodel.obj
 0001:00072690       ??$buildnorms@Uvert@skelmodel@@Utri@2@@mesh@animmodel@@QEAAXPEAUvert@skelmodel@@HPEAUtri@3@H_N@Z 0000000140073690 f i rendermodel.obj
 0001:00072a80       ??$calctangents@Ubumpvert@skelmodel@@Uvert@2@U32@Utri@2@@mesh@animmodel@@QEAAXPEAUbumpvert@skelmodel@@PEAUvert@3@1HPEAUtri@3@H_N@Z 0000000140073a80 f i rendermodel.obj
 0001:000731e0       ??$genvbo@Uvvertbump@skelmodel@@@skelmesh@skelmodel@@QEAAHAEAU?$vector@G@@HAEAU?$vector@Uvvertbump@skelmodel@@@@PEAHH@Z 00000001400741e0 f i rendermodel.obj
 0001:000736a0       ??$genvbo@Uvvertn@skelmodel@@@skelmesh@skelmodel@@QEAAHAEAU?$vector@G@@HAEAU?$vector@Uvvertn@skelmodel@@@@PEAHH@Z 00000001400746a0 f i rendermodel.obj
 0001:00073b00       ??$access@PEBD@?$hashbase@U?$hashnameset@PEAUmodel@@@@PEAUmodel@@PEBDPEAU2@@@QEAAPEAPEAUmodel@@AEBQEBD@Z 0000000140074b00 f i rendermodel.obj
 0001:00073b90       ??$buildnorms@Uvert@vertmodel@@Utri@2@@mesh@animmodel@@QEAAXPEAUvert@vertmodel@@HPEAUtri@3@H_N@Z 0000000140074b90 f i rendermodel.obj
 0001:00073f80       ??$calctangents@Ubumpvert@vertmodel@@Uvert@2@Utcvert@2@Utri@2@@mesh@animmodel@@QEAAXPEAUbumpvert@vertmodel@@PEAUvert@3@PEAUtcvert@3@HPEAUtri@3@H_N@Z 0000000140074f80 f i rendermodel.obj
 0001:000746e0       ?insert@?$hashbase@U?$hashnameset@PEAUmodel@@@@PEAUmodel@@PEBDPEAU2@@@QEAAPEAUchain@1@I@Z 00000001400756e0 f i rendermodel.obj
 0001:00074870       ?insert@?$hashbase@U?$hashtable@PEBDUsmdmeshdata@smdmeshgroup@smd@@@@U?$hashtableentry@PEBDUsmdmeshdata@smdmeshgroup@smd@@@@PEBDUsmdmeshdata@smdmeshgroup@smd@@@@QEAAPEAUchain@1@I@Z 0000000140075870 f i rendermodel.obj
 0001:00074bf0       ?insert@?$hashbase@U?$hashnameset@PEAUskeleton@skelmodel@@@@PEAUskeleton@skelmodel@@PEBDPEAU23@@@QEAAPEAUchain@1@I@Z 0000000140075bf0 f i rendermodel.obj
 0001:00074d80       ?insert@?$hashbase@U?$hashnameset@PEAUmeshgroup@animmodel@@@@PEAUmeshgroup@animmodel@@PEBDPEAU23@@@QEAAPEAUchain@1@I@Z 0000000140075d80 f i rendermodel.obj
 0001:00074f10       ?insert@?$hashbase@U?$hashtable@Ushaderparams@animmodel@@Ushaderparamskey@2@@@U?$hashtableentry@Ushaderparams@animmodel@@Ushaderparamskey@2@@@Ushaderparams@animmodel@@Ushaderparamskey@4@@@QEAAPEAUchain@1@I@Z 0000000140075f10 f i rendermodel.obj
 0001:000750d0       ??0chainchunk@?$hashbase@U?$hashtable@Ushaderparams@animmodel@@Ushaderparamskey@2@@@U?$hashtableentry@Ushaderparams@animmodel@@Ushaderparamskey@2@@@Ushaderparams@animmodel@@Ushaderparamskey@4@@@QEAA@XZ 00000001400760d0 f i rendermodel.obj
 0001:00075670       ??0chain@?$hashbase@U?$hashtable@PEBDUsmdmeshdata@smdmeshgroup@smd@@@@U?$hashtableentry@PEBDUsmdmeshdata@smdmeshgroup@smd@@@@PEBDUsmdmeshdata@smdmeshgroup@smd@@@@QEAA@XZ 0000000140076670 f i rendermodel.obj
 0001:000756b0       ??$convertmatrix@Umatrix3@@@quat@@QEAAXAEBUmatrix3@@@Z 00000001400766b0 f i rendermodel.obj
 0001:000756b0       ??$convertmatrix@Umatrix4x3@@@quat@@QEAAXAEBUmatrix4x3@@@Z 00000001400766b0 f i rendermodel.obj
 0001:00075880       ??_Gmodel@@UEAAPEAXI@Z     0000000140076880 f i rendermodel.obj
 0001:00075880       ??_Emodel@@UEAAPEAXI@Z     0000000140076880 f i * CIL library *:* CIL module *
 0001:000758c0       ??0matrix3@@QEAA@AEBUquat@@@Z 00000001400768c0 f i rendermodel.obj
 0001:00075a20       ?mul@dualquat@@QEAAXAEBU1@@Z 0000000140076a20 f i rendermodel.obj
 0001:00075ab0       ??0dualquat@@QEAA@AEBUquat@@AEBUvec@@@Z 0000000140076ab0 f i rendermodel.obj
 0001:00075be0       ?mulorient@dualquat@@QEAAXAEBUquat@@@Z 0000000140076be0 f i rendermodel.obj
 0001:00075d50       ?mul@matrix4x3@@QEAAXAEBUmatrix3@@AEBU1@@Z 0000000140076d50 f i rendermodel.obj
 0001:00076010       ?invert@dualquat@@QEAAAEAU1@XZ 0000000140077010 f i rendermodel.obj
 0001:00076100       ??0matrix4x3@@QEAA@AEBUdualquat@@@Z 0000000140077100 f i rendermodel.obj
 0001:000763e0       ?fixantipodal@dualquat@@QEAAXAEBU1@@Z 00000001400773e0 f i rendermodel.obj
 0001:00076440       ?mulorient@dualquat@@QEAAXAEBUquat@@AEBU1@@Z 0000000140077440 f i rendermodel.obj
 0001:00076990       ?accumulate@dualquat@@QEAAXAEBU1@M@Z 0000000140077990 f i rendermodel.obj
 0001:00076a80       ?mul@dualquat@@QEAAXAEBU1@0@Z 0000000140077a80 f i rendermodel.obj
 0001:00076b00       ?rotate@quat@@QEBA?AUvec@@AEBU2@@Z 0000000140077b00 f i rendermodel.obj
 0001:00076c30       ?mul@quat@@QEAAAEAU1@AEBU1@0@Z 0000000140077c30 f i rendermodel.obj
 0001:00076d20       ?lerp@matrix4x3@@QEAAXAEBU1@0M@Z 0000000140077d20 f i rendermodel.obj
 0001:00076e50       ?mul@matrix4x3@@QEAAXAEBU1@0@Z 0000000140077e50 f i rendermodel.obj
 0001:00077180       ??1model@@UEAA@XZ          0000000140078180 f i rendermodel.obj
 0001:00077210       ?preloadBIH@model@@UEAAXXZ 0000000140078210 f i rendermodel.obj
 0001:00077220       ?rotate@matrix3@@QEAAXMMAEBUvec@@@Z 0000000140078220 f i rendermodel.obj
 0001:00077380       ?mul@matrix4@@QEAAXAEBUmatrix3@@@Z 0000000140078380 f i rendermodel.obj
 0001:000776a0       ?setvariant_@Shader@@QEAAXHHPEAU1@@Z 00000001400786a0 f i rendermodel.obj
 0001:00077740       ?calcangleaxis@matrix3@@QEBA_NMAEAMAEAUvec@@M@Z 0000000140078740 f i rendermodel.obj
 0001:000779c0       ?multranspose@matrix3@@QEAAXAEBU1@@Z 00000001400789c0 f i rendermodel.obj
 0001:00077c30       ?transposemul@matrix4x3@@QEAAXAEBU1@0@Z 0000000140078c30 f i rendermodel.obj
 0001:00077f90       ?addblurtiles@rendertarget@@QEAA_NMMMMM@Z 0000000140078f90 f i renderparticles.obj
 0001:00078180       ?debugscissor@rendertarget@@QEAAXHH_N@Z 0000000140079180 f i renderparticles.obj
 0001:00078450       ?debugblurtiles@rendertarget@@QEAAXHH_N@Z 0000000140079450 f i renderparticles.obj
 0001:00078870       ??1partrenderer@@UEAA@XZ   0000000140079870 f i renderparticles.obj
 0001:00078880       ?calc@partrenderer@@QEAAXPEAUparticle@@AEAH1AEAUvec@@2_N@Z 0000000140079880 f i renderparticles.obj
 0001:00078d70       ?debuginfo@partrenderer@@QEAAPEBDXZ 0000000140079d70 f i renderparticles.obj
 0001:00079040       ??_Gpartrenderer@@UEAAPEAXI@Z 000000014007a040 f i renderparticles.obj
 0001:00079040       ??_Epartrenderer@@UEAAPEAXI@Z 000000014007a040 f i * CIL library *:* CIL module *
 0001:00079070       ??1listrenderer@@UEAA@XZ   000000014007a070 f i renderparticles.obj
 0001:000790a0       ?reset@listrenderer@@UEAAXXZ 000000014007a0a0 f i renderparticles.obj
 0001:00079120       ?resettracked@listrenderer@@UEAAXPEAUphysent@@@Z 000000014007a120 f i renderparticles.obj
 0001:00079170       ?addpart@listrenderer@@UEAAPEAUparticle@@AEBUvec@@0HHMH@Z 000000014007a170 f i renderparticles.obj
 0001:00079390       ?count@listrenderer@@UEAAHXZ 000000014007a390 f i renderparticles.obj
 0001:000793b0       ?haswork@listrenderer@@UEAA_NXZ 000000014007a3b0 f i renderparticles.obj
 0001:000793c0       ?render@listrenderer@@UEAAXXZ 000000014007a3c0 f i renderparticles.obj
 0001:000794e0       ??_Elistrenderer@@UEAAPEAXI@Z 000000014007a4e0 f i * CIL library *:* CIL module *
 0001:000794e0       ??_Glistrenderer@@UEAAPEAXI@Z 000000014007a4e0 f i renderparticles.obj
 0001:00079530       ?startrender@meterrenderer@@UEAAXXZ 000000014007a530 f i renderparticles.obj
 0001:00079560       ?endrender@meterrenderer@@UEAAXXZ 000000014007a560 f i renderparticles.obj
 0001:00079570       ?renderpart@meterrenderer@@UEAAXPEAUlistparticle@@AEBUvec@@1HH@Z 000000014007a570 f i renderparticles.obj
 0001:0007a420       ??_Gfireballrenderer@@UEAAPEAXI@Z 000000014007b420 f i renderparticles.obj
 0001:0007a420       ??_Gtextrenderer@@UEAAPEAXI@Z 000000014007b420 f i renderparticles.obj
 0001:0007a420       ??_Emeterrenderer@@UEAAPEAXI@Z 000000014007b420 f i * CIL library *:* CIL module *
 0001:0007a420       ??_Glightningrenderer@@UEAAPEAXI@Z 000000014007b420 f i renderparticles.obj
 0001:0007a420       ??_Elightningrenderer@@UEAAPEAXI@Z 000000014007b420 f i * CIL library *:* CIL module *
 0001:0007a420       ??_Efireballrenderer@@UEAAPEAXI@Z 000000014007b420 f i * CIL library *:* CIL module *
 0001:0007a420       ??_Etextrenderer@@UEAAPEAXI@Z 000000014007b420 f i * CIL library *:* CIL module *
 0001:0007a420       ??_Gmeterrenderer@@UEAAPEAXI@Z 000000014007b420 f i renderparticles.obj
 0001:0007a470       ?killpart@textrenderer@@UEAAXPEAUlistparticle@@@Z 000000014007b470 f i renderparticles.obj
 0001:0007a490       ?renderpart@textrenderer@@UEAAXPEAUlistparticle@@AEBUvec@@1HH@Z 000000014007b490 f i renderparticles.obj
 0001:0007a820       ?colorformats@depthfxtexture@@UEBAPEBIXZ 000000014007b820 f i renderparticles.obj
 0001:0007a860       ?filter@depthfxtexture@@UEBA_NXZ 000000014007b860 f i renderparticles.obj
 0001:0007a870       ?shouldrender@depthfxtexture@@UEAA_NXZ 000000014007b870 f i renderparticles.obj
 0001:0007a8d0       ?dorender@depthfxtexture@@UEAA_NXZ 000000014007b8d0 f i renderparticles.obj
 0001:0007a980       ?dodebug@depthfxtexture@@UEAAXHH@Z 000000014007b980 f i renderparticles.obj
 0001:0007aa20       ?startrender@fireballrenderer@@UEAAXXZ 000000014007ba20 f i renderparticles.obj
 0001:0007ac90       ?endrender@fireballrenderer@@UEAAXXZ 000000014007bc90 f i renderparticles.obj
 0001:0007acd0       ?cleanup@fireballrenderer@@UEAAXXZ 000000014007bcd0 f i renderparticles.obj
 0001:0007ad30       ?finddepthfxranges@fireballrenderer@@QEAAHPEAPEAXPEAMHHAEAUvec@@2@Z 000000014007bd30 f i renderparticles.obj
 0001:0007b420       ?seedemitter@fireballrenderer@@UEAAXAEAUparticleemitter@@AEBUvec@@1HMH@Z 000000014007c420 f i renderparticles.obj
 0001:0007b4d0       ?renderpart@fireballrenderer@@UEAAXPEAUlistparticle@@AEBUvec@@1HH@Z 000000014007c4d0 f i renderparticles.obj
 0001:0007c090       ?reset@flarerenderer@@UEAAXXZ 000000014007d090 f i renderparticles.obj
 0001:0007c0a0       ?newflare@flarerenderer@@QEAAXAEAUvec@@AEBU2@EEEMM_N2@Z 000000014007d0a0 f i renderparticles.obj
 0001:0007c1a0       ?makelightflares@flarerenderer@@QEAAXXZ 000000014007d1a0 f i renderparticles.obj
 0001:0007c4e0       ?count@flarerenderer@@UEAAHXZ 000000014007d4e0 f i renderparticles.obj
 0001:0007c4f0       ?haswork@flarerenderer@@UEAA_NXZ 000000014007d4f0 f i renderparticles.obj
 0001:0007c520       ?render@flarerenderer@@UEAAXXZ 000000014007d520 f i renderparticles.obj
 0001:0007ccb0       ??_Eflarerenderer@@UEAAPEAXI@Z 000000014007dcb0 f i * CIL library *:* CIL module *
 0001:0007ccb0       ??_Gflarerenderer@@UEAAPEAXI@Z 000000014007dcb0 f i renderparticles.obj
 0001:0007cd20       ?startrender@lightningrenderer@@UEAAXXZ 000000014007dd20 f i renderparticles.obj
 0001:0007cd60       ?endrender@lightningrenderer@@UEAAXXZ 000000014007dd60 f i renderparticles.obj
 0001:0007cd70       ?update@lightningrenderer@@UEAAXXZ 000000014007dd70 f i renderparticles.obj
 0001:0007cdd0       ?seedemitter@lightningrenderer@@UEAAXAEAUparticleemitter@@AEBUvec@@1HMH@Z 000000014007ddd0 f i renderparticles.obj
 0001:0007cee0       ?renderpart@lightningrenderer@@UEAAXPEAUlistparticle@@AEBUvec@@1HH@Z 000000014007dee0 f i renderparticles.obj
 0001:0007cfa0       ?render@?$varenderer@$01@@UEAAXXZ 000000014007dfa0 f i renderparticles.obj
 0001:0007cfa0       ?render@?$varenderer@$00@@UEAAXXZ 000000014007dfa0 f i renderparticles.obj
 0001:0007cfa0       ?render@?$varenderer@$0A@@@UEAAXXZ 000000014007dfa0 f i renderparticles.obj
 0001:0007d160       ?update@?$varenderer@$01@@UEAAXXZ 000000014007e160 f i renderparticles.obj
 0001:0007d240       ?seedemitter@?$varenderer@$01@@UEAAXAEAUparticleemitter@@AEBUvec@@1HMH@Z 000000014007e240 f i renderparticles.obj
 0001:0007d590       ?addpart@?$varenderer@$0A@@@UEAAPEAUparticle@@AEBUvec@@0HHMH@Z 000000014007e590 f i renderparticles.obj
 0001:0007d590       ?addpart@?$varenderer@$01@@UEAAPEAUparticle@@AEBUvec@@0HHMH@Z 000000014007e590 f i renderparticles.obj
 0001:0007d590       ?addpart@?$varenderer@$00@@UEAAPEAUparticle@@AEBUvec@@0HHMH@Z 000000014007e590 f i renderparticles.obj
 0001:0007d6b0       ?haswork@?$varenderer@$01@@UEAA_NXZ 000000014007e6b0 f i renderparticles.obj
 0001:0007d6b0       ?haswork@?$varenderer@$0A@@@UEAA_NXZ 000000014007e6b0 f i renderparticles.obj
 0001:0007d6b0       ?haswork@?$varenderer@$00@@UEAA_NXZ 000000014007e6b0 f i renderparticles.obj
 0001:0007d6c0       ?count@?$varenderer@$00@@UEAAHXZ 000000014007e6c0 f i renderparticles.obj
 0001:0007d6c0       ?count@?$varenderer@$0A@@@UEAAHXZ 000000014007e6c0 f i renderparticles.obj
 0001:0007d6c0       ?count@?$varenderer@$01@@UEAAHXZ 000000014007e6c0 f i renderparticles.obj
 0001:0007d6d0       ?resettracked@?$varenderer@$0A@@@UEAAXPEAUphysent@@@Z 000000014007e6d0 f i renderparticles.obj
 0001:0007d6d0       ?resettracked@?$varenderer@$01@@UEAAXPEAUphysent@@@Z 000000014007e6d0 f i renderparticles.obj
 0001:0007d6d0       ?resettracked@?$varenderer@$00@@UEAAXPEAUphysent@@@Z 000000014007e6d0 f i renderparticles.obj
 0001:0007d730       ?reset@?$varenderer@$01@@UEAAXXZ 000000014007e730 f i renderparticles.obj
 0001:0007d730       ?reset@?$varenderer@$0A@@@UEAAXXZ 000000014007e730 f i renderparticles.obj
 0001:0007d730       ?reset@?$varenderer@$00@@UEAAXXZ 000000014007e730 f i renderparticles.obj
 0001:0007d750       ?init@?$varenderer@$00@@UEAAXH@Z 000000014007e750 f i renderparticles.obj
 0001:0007d750       ?init@?$varenderer@$0A@@@UEAAXH@Z 000000014007e750 f i renderparticles.obj
 0001:0007d750       ?init@?$varenderer@$01@@UEAAXH@Z 000000014007e750 f i renderparticles.obj
 0001:0007d840       ?cleanup@?$varenderer@$01@@UEAAXXZ 000000014007e840 f i renderparticles.obj
 0001:0007d840       ?cleanup@?$varenderer@$00@@UEAAXXZ 000000014007e840 f i renderparticles.obj
 0001:0007d840       ?cleanup@?$varenderer@$0A@@@UEAAXXZ 000000014007e840 f i renderparticles.obj
 0001:0007d870       ?update@?$varenderer@$00@@UEAAXXZ 000000014007e870 f i renderparticles.obj
 0001:0007d950       ?seedemitter@?$varenderer@$00@@UEAAXAEAUparticleemitter@@AEBUvec@@1HMH@Z 000000014007e950 f i renderparticles.obj
 0001:0007dc20       ?update@?$varenderer@$0A@@@UEAAXXZ 000000014007ec20 f i renderparticles.obj
 0001:0007ddd0       ?seedemitter@?$varenderer@$0A@@@UEAAXAEAUparticleemitter@@AEBUvec@@1HMH@Z 000000014007edd0 f i renderparticles.obj
 0001:0007e170       ??_E?$varenderer@$01@@UEAAPEAXI@Z 000000014007f170 f i * CIL library *:* CIL module *
 0001:0007e170       ??_E?$varenderer@$0A@@@UEAAPEAXI@Z 000000014007f170 f i * CIL library *:* CIL module *
 0001:0007e170       ??_G?$varenderer@$01@@UEAAPEAXI@Z 000000014007f170 f i renderparticles.obj
 0001:0007e170       ??_E?$varenderer@$00@@UEAAPEAXI@Z 000000014007f170 f i * CIL library *:* CIL module *
 0001:0007e170       ??_G?$varenderer@$0A@@@UEAAPEAXI@Z 000000014007f170 f i renderparticles.obj
 0001:0007e170       ??_G?$varenderer@$00@@UEAAPEAXI@Z 000000014007f170 f i renderparticles.obj
 0001:0007e1b0       ?genverts@?$varenderer@$01@@QEAAXXZ 000000014007f1b0 f i renderparticles.obj
 0001:0007e680       ?genverts@?$varenderer@$00@@QEAAXXZ 000000014007f680 f i renderparticles.obj
 0001:0007ea00       ?genverts@?$varenderer@$01@@QEAAXPEAUparticle@@PEAUpartvert@@_N@Z 000000014007fa00 f i renderparticles.obj
 0001:0007edf0       ?genverts@?$varenderer@$00@@QEAAXPEAUparticle@@PEAUpartvert@@_N@Z 000000014007fdf0 f i renderparticles.obj
 0001:0007f0c0       ?genverts@?$varenderer@$0A@@@QEAAXPEAUparticle@@PEAUpartvert@@_N@Z 00000001400800c0 f i renderparticles.obj
 0001:0007f550       ??$concformatstring@$0BAE@@@YAXAEAY0BAE@DPEBDZZ 0000000140080550 f i renderparticles.obj
 0001:0007f5d0       ?transform@matrix4@@QEBAXAEBUvec@@AEAUvec4@@@Z 00000001400805d0 f i renderparticles.obj
 0001:0007f710       ??1?$hashbase@U?$hashnameset@Ufont@@@@Ufont@@PEBDU2@@@QEAA@XZ 0000000140080710 f i rendertext.obj
 0001:0007f7c0       ??1chain@?$hashbase@U?$hashnameset@Ufont@@@@Ufont@@PEBDU2@@@QEAA@XZ 00000001400807c0 f i rendertext.obj
 0001:0007f7e0       ??$access@PEBD@?$hashbase@U?$hashnameset@Ufont@@@@Ufont@@PEBDU2@@@QEAAPEAUfont@@AEBQEBD@Z 00000001400807e0 f i rendertext.obj
 0001:0007f870       ?insert@?$hashbase@U?$hashnameset@Ufont@@@@Ufont@@PEBDU2@@@QEAAPEAUchain@1@I@Z 0000000140080870 f i rendertext.obj
 0001:0007fa50       ??0chain@?$hashbase@U?$hashnameset@Ufont@@@@Ufont@@PEBDU2@@@QEAA@XZ 0000000140080a50 f i rendertext.obj
 0001:0007fa90       ??1font@@QEAA@XZ           0000000140080a90 f i rendertext.obj
 0001:0007fb00       ??0geombatch@@QEAA@AEBUelementset@@PEAGPEAUvtxarray@@@Z 0000000140080b00 f i renderva.obj
 0001:0007fbc0       ?add@?$vector@Ugeombatch@@@@QEAAAEAUgeombatch@@AEBU2@@Z 0000000140080bc0 f i renderva.obj
 0001:0007fd00       ??1?$hashbase@U?$hashnameset@UShader@@@@UShader@@PEBDU2@@@QEAA@XZ 0000000140080d00 f i shader.obj
 0001:0007fdb0       ??1?$hashbase@U?$hashtable@PEBDH@@U?$hashtableentry@PEBDH@@PEBDH@@QEAA@XZ 0000000140080db0 f i shader.obj
 0001:0007fe20       ??1?$hashbase@U?$hashnameset@UGlobalShaderParamState@@@@UGlobalShaderParamState@@PEBDU2@@@QEAA@XZ 0000000140080e20 f i shader.obj
 0001:0007fe90       ?growbuf@?$vector@UUniformLoc@@@@QEAAXH@Z 0000000140080e90 f i shader.obj
 0001:0007ff40       ??1chain@?$hashbase@U?$hashnameset@UShader@@@@UShader@@PEBDU2@@@QEAA@XZ 0000000140080f40 f i shader.obj
 0001:0007ff60       ??$access@PEAD@?$hashbase@U?$hashnameset@UShader@@@@UShader@@PEBDU2@@@QEAAPEAUShader@@AEBQEAD@Z 0000000140080f60 f i shader.obj
 0001:0007ff60       ??$access@PEBD@?$hashbase@U?$hashnameset@UShader@@@@UShader@@PEBDU2@@@QEAAPEAUShader@@AEBQEBD@Z 0000000140080f60 f i shader.obj
 0001:0007fff0       ??$access@PEBD@?$hashbase@U?$hashnameset@UGlobalShaderParamState@@@@UGlobalShaderParamState@@PEBDU2@@@QEAAPEAUGlobalShaderParamState@@AEBQEBD@Z 0000000140080ff0 f i shader.obj
 0001:00080080       ??$?APEAD@?$hashbase@U?$hashnameset@UShader@@@@UShader@@PEBDU2@@@QEAAAEAUShader@@AEBQEAD@Z 0000000140081080 f i shader.obj
 0001:00080110       ?insert@?$hashbase@U?$hashnameset@UShader@@@@UShader@@PEBDU2@@@QEAAPEAUchain@1@I@Z 0000000140081110 f i shader.obj
 0001:00080310       ?insert@?$hashbase@U?$hashtable@PEBDH@@U?$hashtableentry@PEBDH@@PEBDH@@QEAAPEAUchain@1@I@Z 0000000140081310 f i shader.obj
 0001:00080650       ?insert@?$hashbase@U?$hashnameset@UGlobalShaderParamState@@@@UGlobalShaderParamState@@PEBDU2@@@QEAAPEAUchain@1@I@Z 0000000140081650 f i shader.obj
 0001:00080a70       ??0chain@?$hashbase@U?$hashnameset@UShader@@@@UShader@@PEBDU2@@@QEAA@XZ 0000000140081a70 f i shader.obj
 0001:00080a90       ??0Shader@@QEAA@XZ         0000000140081a90 f i shader.obj
 0001:00080b60       ??1Shader@@QEAA@XZ         0000000140081b60 f i shader.obj
 0001:00080cd0       ?addvariant@Shader@@QEAAXHPEAU1@@Z 0000000140081cd0 f i shader.obj
 0001:00080f50       fprintf                    0000000140081f50 f i shader.obj
 0001:00080fa0       ?colorformats@shadowmaptexture@@UEBAPEBIXZ 0000000140081fa0 f i shadowmap.obj
 0001:00080fe0       ?scissorblur@shadowmaptexture@@UEAA_NAEAH000@Z 0000000140081fe0 f i shadowmap.obj
 0001:000811e0       ?scissorrender@shadowmaptexture@@UEAA_NAEAH000@Z 00000001400821e0 f i shadowmap.obj
 0001:00081210       ?doclear@shadowmaptexture@@UEAAXXZ 0000000140082210 f i shadowmap.obj
 0001:00081240       ?dorender@shadowmaptexture@@UEAA_NXZ 0000000140082240 f i shadowmap.obj
 0001:00081980       ?dodebug@shadowmaptexture@@UEAAXHH@Z 0000000140082980 f i shadowmap.obj
 0001:00081a10       ?projective@matrix4@@QEAAXMM@Z 0000000140082a10 f i shadowmap.obj
 0001:00081b20       ??1MSlot@@QEAA@XZ          0000000140082b20 f i texture.obj
 0001:00081b70       ??1?$hashbase@U?$hashnameset@UTexture@@@@UTexture@@PEBDU2@@@QEAA@XZ 0000000140082b70 f i texture.obj
 0001:00081be0       ??$access@PEAD@?$hashbase@U?$hashnameset@UTexture@@@@UTexture@@PEBDU2@@@QEAAPEAUTexture@@AEBQEAD@Z 0000000140082be0 f i texture.obj
 0001:00081c70       ?insert@?$hashbase@U?$hashnameset@UTexture@@@@UTexture@@PEBDU2@@@QEAAPEAUchain@1@I@Z 0000000140082c70 f i texture.obj
 0001:00081fe0       ??_GImageData@@QEAAPEAXI@Z 0000000140082fe0 f i texture.obj
 0001:00082040       ?reset@Slot@@QEAAXXZ       0000000140083040 f i texture.obj
 0001:000820e0       ??0Slot@@QEAA@H@Z          00000001400830e0 f i texture.obj
 0001:00082130       ??1Slot@@QEAA@XZ           0000000140083130 f i texture.obj
 0001:00082190       ??0MSlot@@QEAA@XZ          0000000140083190 f i texture.obj
 0001:00082240       ?wrap@ImageData@@QEAAXPEAUSDL_Surface@@@Z 0000000140083240 f i texture.obj
 0001:000822e0       ??0Reflection@@QEAA@XZ     00000001400832e0 f i water.obj
 0001:00082320       ??1Reflection@@QEAA@XZ     0000000140083320 f i water.obj
 0001:00082350       ?reserve@?$vector@I@@QEAA?AU?$databuf@I@@H@Z 0000000140083350 f i command.obj
 0001:000823c0       ??1?$hashbase@U?$hashnameset@Uident@@@@Uident@@PEBDU2@@@QEAA@XZ 00000001400833c0 f i command.obj
 0001:00082430       ?shrink@?$vector@I@@QEAAXH@Z 0000000140083430 f i command.obj
 0001:00082440       ??$access@PEAD@?$hashbase@U?$hashnameset@Uident@@@@Uident@@PEBDU2@@@QEAAPEAUident@@AEBQEAD@Z 0000000140083440 f i command.obj
 0001:00082440       ??$access@PEBD@?$hashbase@U?$hashnameset@Uident@@@@Uident@@PEBDU2@@@QEAAPEAUident@@AEBQEBD@Z 0000000140083440 f i command.obj
 0001:000824d0       ?insert@?$hashbase@U?$hashnameset@Uident@@@@Uident@@PEBDU2@@@QEAAPEAUchain@1@I@Z 00000001400834d0 f i command.obj
 0001:000828f0       ?getval@ident@@QEBAXAEAUtagval@@@Z 00000001400838f0 f i command.obj
 0001:00082970       ?getfloat@ident@@QEBAMXZ   0000000140083970 f i command.obj
 0001:000829b0       ?getint@ident@@QEBAHXZ     00000001400839b0 f i command.obj
 0001:000829f0       ?getstr@ident@@QEBAPEBDXZ  00000001400839f0 f i command.obj
 0001:00082a30       ?setstr@tagval@@QEAAXPEAD@Z 0000000140083a30 f i command.obj
 0001:00082a40       ?setint@tagval@@QEAAXH@Z   0000000140083a40 f i command.obj
 0001:00082a50       ?setfloat@tagval@@QEAAXM@Z 0000000140083a50 f i command.obj
 0001:00082a60       ??1keym@@QEAA@XZ           0000000140083a60 f i console.obj
 0001:00082ad0       ?restore@hline@@QEAAXXZ    0000000140083ad0 f i console.obj
 0001:00082bc0       ?run@hline@@QEAAXXZ        0000000140083bc0 f i console.obj
 0001:00082c30       ??1?$hashbase@U?$hashtable@PEADPEAUfilesval@@@@U?$hashtableentry@PEADPEAUfilesval@@@@PEADPEAUfilesval@@@@QEAA@XZ 0000000140083c30 f i console.obj
 0001:00082ca0       ??1?$hashbase@U?$hashtable@Ufileskey@@PEAUfilesval@@@@U?$hashtableentry@Ufileskey@@PEAUfilesval@@@@Ufileskey@@PEAUfilesval@@@@QEAA@XZ 0000000140083ca0 f i console.obj
 0001:00082d10       ??1?$hashbase@U?$hashtable@HUkeym@@@@U?$hashtableentry@HUkeym@@@@HUkeym@@@@QEAA@XZ 0000000140083d10 f i console.obj
 0001:00082d50       ?deletechunks@?$hashbase@U?$hashtable@HUkeym@@@@U?$hashtableentry@HUkeym@@@@HUkeym@@@@QEAAXXZ 0000000140083d50 f i console.obj
 0001:00082de0       ??1chain@?$hashbase@U?$hashtable@HUkeym@@@@U?$hashtableentry@HUkeym@@@@HUkeym@@@@QEAA@XZ 0000000140083de0 f i console.obj
 0001:00082e10       ??1?$hashtableentry@HUkeym@@@@QEAA@XZ 0000000140083e10 f i console.obj
 0001:00082e30       ??$access@PEAD@?$hashbase@U?$hashtable@PEADPEAUfilesval@@@@U?$hashtableentry@PEADPEAUfilesval@@@@PEADPEAUfilesval@@@@QEAAPEAPEAUfilesval@@AEBQEAD@Z 0000000140083e30 f i console.obj
 0001:00082ec0       ??$?APEAD@?$hashbase@U?$hashtable@PEADPEAUfilesval@@@@U?$hashtableentry@PEADPEAUfilesval@@@@PEADPEAUfilesval@@@@QEAAAEAPEAUfilesval@@AEBQEAD@Z 0000000140083ec0 f i console.obj
 0001:00082f80       ?insert@?$hashbase@U?$hashset@Uteaminfo@@@@Uteaminfo@@U2@U2@@@QEAAPEAUchain@1@I@Z 0000000140083f80 f i scoreboard.obj
 0001:00082f80       ?insert@?$hashbase@U?$hashtable@PEADPEAUfilesval@@@@U?$hashtableentry@PEADPEAUfilesval@@@@PEADPEAUfilesval@@@@QEAAPEAUchain@1@I@Z 0000000140083f80 f i console.obj
 0001:000832c0       ?insert@?$hashbase@U?$hashtable@Ufileskey@@PEAUfilesval@@@@U?$hashtableentry@Ufileskey@@PEAUfilesval@@@@Ufileskey@@PEAUfilesval@@@@QEAAPEAUchain@1@I@Z 00000001400842c0 f i console.obj
 0001:000836d0       ?insert@?$hashbase@U?$hashtable@HUkeym@@@@U?$hashtableentry@HUkeym@@@@HUkeym@@@@QEAAPEAUchain@1@I@Z 00000001400846d0 f i console.obj
 0001:000838b0       ??0chain@?$hashbase@U?$hashtable@HUkeym@@@@U?$hashtableentry@HUkeym@@@@HUkeym@@@@QEAA@XZ 00000001400848b0 f i console.obj
 0001:00083940       ?remove@?$vector@TSDL_Event@@@@QEAA?ATSDL_Event@@H@Z 0000000140084940 f i main.obj
 0001:000839f0       ?add@?$vector@TSDL_Event@@@@QEAAAEATSDL_Event@@AEBT2@@Z 00000001400849f0 f i main.obj
 0001:00083b20       ??$formatstring@$0CAA@@@YAXAEAY0CAA@DPEBDZZ 0000000140084b20 f i main.obj
 0001:00083b80       ??$concformatstring@$0CAA@@@YAXAEAY0CAA@DPEBDZZ 0000000140084b80 f i main.obj
 0001:00083c00       ?gui@menu@@UEAAXAEAUg3d_gui@@_N@Z 0000000140084c00 f i menus.obj
 0001:00083c90       ?clear@menu@@UEAAXXZ       0000000140084c90 f i menus.obj
 0001:00083cc0       ??_Gmenu@@UEAAPEAXI@Z      0000000140084cc0 f i menus.obj
 0001:00083cc0       ??_Emenu@@UEAAPEAXI@Z      0000000140084cc0 f i * CIL library *:* CIL module *
 0001:00083d00       ??1menu@@UEAA@XZ           0000000140084d00 f i menus.obj
 0001:00083d20       ?getstring@delayedupdate@@QEBAPEBDXZ 0000000140084d20 f i menus.obj
 0001:00083da0       ?gui@applymenu@@UEAAXAEAUg3d_gui@@_N@Z 0000000140084da0 f i menus.obj
 0001:000841f0       ?clear@applymenu@@UEAAXXZ  00000001400851f0 f i menus.obj
 0001:00084230       ??_Eapplymenu@@UEAAPEAXI@Z 0000000140085230 f i * CIL library *:* CIL module *
 0001:00084230       ??_Gapplymenu@@UEAAPEAXI@Z 0000000140085230 f i menus.obj
 0001:00084270       ?shrink@?$vector@Udelayedupdate@@@@QEAAXH@Z 0000000140085270 f i menus.obj
 0001:000842e0       ?add@?$vector@Udelayedupdate@@@@QEAAAEAUdelayedupdate@@XZ 00000001400852e0 f i menus.obj
 0001:00084400       ?add@?$vector@PEAUmenu@@@@QEAAAEAPEAUmenu@@AEBQEAU2@@Z 0000000140085400 f i menus.obj
 0001:00084520       ??1?$hashbase@U?$hashnameset@Umenu@@@@Umenu@@PEBDU2@@@QEAA@XZ 0000000140085520 f i menus.obj
 0001:000845d0       ??1chain@?$hashbase@U?$hashnameset@Umenu@@@@Umenu@@PEBDU2@@@QEAA@XZ 00000001400855d0 f i menus.obj
 0001:00084600       ??$access@PEBD@?$hashbase@U?$hashnameset@Umenu@@@@Umenu@@PEBDU2@@@QEAAPEAUmenu@@AEBQEBD@Z 0000000140085600 f i menus.obj
 0001:00084690       ?insert@?$hashbase@U?$hashnameset@Umenu@@@@Umenu@@PEBDU2@@@QEAAPEAUchain@1@I@Z 0000000140085690 f i menus.obj
 0001:00084870       ??0chain@?$hashbase@U?$hashnameset@Umenu@@@@Umenu@@PEBDU2@@@QEAA@XZ 0000000140085870 f i menus.obj
 0001:000848c0       ?addindex@aviwriter@@QEAAAEAUaviindexentry@@HHH@Z 00000001400858c0 f i movie.obj
 0001:00084aa0       ?endlistchunk@aviwriter@@QEAAXXZ 0000000140085aa0 f i movie.obj
 0001:00084b30       ?close@aviwriter@@QEAAXXZ  0000000140085b30 f i movie.obj
 0001:00084ec0       ??0aviwriter@@QEAA@PEBDIII_N@Z 0000000140085ec0 f i movie.obj
 0001:000850d0       ?open@aviwriter@@QEAA_NXZ  00000001400860d0 f i movie.obj
 0001:00086100       ?boxsample@aviwriter@@SAXPEBEIIIIIIIIAEAI11@Z 0000000140087100 f i movie.obj
 0001:000864d0       ?scaleyuv@aviwriter@@QEAAXPEBEII@Z 00000001400874d0 f i movie.obj
 0001:00086a90       ?encodeyuv@aviwriter@@QEAAXPEBE@Z 0000000140087a90 f i movie.obj
 0001:00086df0       ?compressyuv@aviwriter@@QEAAXPEBE@Z 0000000140087df0 f i movie.obj
 0001:00086fe0       ?flushsegment@aviwriter@@QEAAXXZ 0000000140087fe0 f i movie.obj
 0001:00087500       ?nextsegment@aviwriter@@QEAA_NXZ 0000000140088500 f i movie.obj
 0001:00087750       ?writevideoframe@aviwriter@@QEAA_NPEBEIIHI@Z 0000000140088750 f i movie.obj
 0001:00087a60       ??0soundbuffer@recorder@@QEAA@XZ 0000000140088a60 f i movie.obj
 0001:00087a70       ??1soundbuffer@recorder@@QEAA@XZ 0000000140088a70 f i movie.obj
 0001:00087ab0       ?init@videobuffer@recorder@@QEAAXHHH@Z 0000000140088ab0 f i movie.obj
 0001:00087b20       ??_Gaviwriter@@QEAAPEAXI@Z 0000000140088b20 f i movie.obj
 0001:00087bc0       ?addslot@soundtype@@QEAAHPEBDH@Z 0000000140088bc0 f i sound.obj
 0001:00087e50       ?addsound@soundtype@@QEAAHPEBDHH@Z 0000000140088e50 f i sound.obj
 0001:00087f60       ?reset@soundtype@@QEAAXXZ  0000000140088f60 f i sound.obj
 0001:00088030       ?preloadsound@soundtype@@QEAAXH@Z 0000000140089030 f i sound.obj
 0001:000881f0       ?playing@soundtype@@QEBA_NAEBUsoundchannel@@AEBUsoundconfig@@@Z 00000001400891f0 f i sound.obj
 0001:00088240       ??1?$hashbase@U?$hashnameset@Usoundsample@@@@Usoundsample@@PEBDU2@@@QEAA@XZ 0000000140089240 f i sound.obj
 0001:00088280       ?deletechunks@?$hashbase@U?$hashnameset@Usoundsample@@@@Usoundsample@@PEBDU2@@@QEAAXXZ 0000000140089280 f i sound.obj
 0001:00088310       ??1chain@?$hashbase@U?$hashnameset@Usoundsample@@@@Usoundsample@@PEBDU2@@@QEAA@XZ 0000000140089310 f i sound.obj
 0001:00088310       ??1chain@?$hashbase@U?$hashnameset@Uzipfile@@@@Uzipfile@@PEBDU2@@@QEAA@XZ 0000000140089310 f i zip.obj
 0001:00088350       ?insert@?$hashbase@U?$hashnameset@Usoundsample@@@@Usoundsample@@PEBDU2@@@QEAAPEAUchain@1@I@Z 0000000140089350 f i sound.obj
 0001:000886e0       ??0chain@?$hashbase@U?$hashnameset@Usoundsample@@@@Usoundsample@@PEBDU2@@@QEAA@XZ 00000001400896e0 f i sound.obj
 0001:00088710       ?invert@gfield@@QEAA_NAEBU1@@Z 0000000140089710 f i crypto.obj
 0001:00089500       ?mul2@ecjacobian@@QEAAXXZ  000000014008a500 f i crypto.obj
 0001:00089ef0       ?add@ecjacobian@@QEAAXAEBU1@@Z 000000014008aef0 f i crypto.obj
 0001:0008af40       ?calcy@ecjacobian@@QEAA_N_N@Z 000000014008bf40 f i crypto.obj
 0001:0008b430       ?rshift@?$bigint@$0N@@@QEAAAEAU1@H@Z 000000014008c430 f i crypto.obj
 0001:0008b550       ?printdigits@?$bigint@$0N@@@QEBAXAEAU?$vector@D@@@Z 000000014008c550 f i crypto.obj
 0001:0008b600       ?parse@?$bigint@$0N@@@QEAAXPEBD@Z 000000014008c600 f i crypto.obj
 0001:0008b720       ??$add@$0N@$0N@@?$bigint@$0N@@@QEAAAEAU0@AEBU0@0@Z 000000014008c720 f i crypto.obj
 0001:0008b7e0       ??$sub@$0N@$0N@@?$bigint@$0N@@@QEAAAEAU0@AEBU0@0@Z 000000014008c7e0 f i crypto.obj
 0001:0008b8f0       ??$legendre@$0N@@gfield@@SAHAEBU?$bigint@$0N@@@@Z 000000014008c8f0 f i crypto.obj
 0001:0008ba90       ??$pow@$0N@$0N@@gfield@@QEAAAEAU0@AEBU?$bigint@$0N@@@0@Z 000000014008ca90 f i crypto.obj
 0001:0008bb90       ??$sub@$0N@$0N@@gfield@@QEAAAEAU0@AEBU?$bigint@$0N@@@0@Z 000000014008cb90 f i crypto.obj
 0001:0008bc20       ??$mul@$0N@$0N@@gfield@@QEAAAEAU0@AEBU?$bigint@$0N@@@0@Z 000000014008cc20 f i crypto.obj
 0001:0008bd60       ??$add@$0N@$0N@@gfield@@QEAAAEAU0@AEBU?$bigint@$0N@@@0@Z 000000014008cd60 f i crypto.obj
 0001:0008bdf0       ??$mul@$0N@@ecjacobian@@QEAAXAEBU?$bigint@$0N@@@@Z 000000014008cdf0 f i crypto.obj
 0001:0008bf10       ??$reduce@$0BK@@gfield@@QEAAXAEBU?$bigint@$0BK@@@@Z 000000014008cf10 f i crypto.obj
 0001:0008c2a0       ??$copybits@$0BK@@?$bigint@$0N@@@QEAAXHAEBU?$bigint@$0BK@@@HH@Z 000000014008d2a0 f i crypto.obj
 0001:0008c340       ?close@filestream@@UEAAXXZ 000000014008d340 f i stream.obj
 0001:0008c370       ?end@filestream@@UEAA_NXZ  000000014008d370 f i stream.obj
 0001:0008c390       ?tell@filestream@@UEAA_JXZ 000000014008d390 f i stream.obj
 0001:0008c3c0       ?seek@filestream@@UEAA_N_JH@Z 000000014008d3c0 f i stream.obj
 0001:0008c3e0       ?read@filestream@@UEAA_KPEAX_K@Z 000000014008d3e0 f i stream.obj
 0001:0008c400       ?write@filestream@@UEAA_KPEBX_K@Z 000000014008d400 f i stream.obj
 0001:0008c420       ?flush@filestream@@UEAA_NXZ 000000014008d420 f i stream.obj
 0001:0008c440       ?getchar@filestream@@UEAAHXZ 000000014008d440 f i stream.obj
 0001:0008c450       ?putchar@filestream@@UEAA_NH@Z 000000014008d450 f i stream.obj
 0001:0008c470       ?getline@filestream@@UEAA_NPEAD_K@Z 000000014008d470 f i stream.obj
 0001:0008c4a0       ?putstring@filestream@@UEAA_NPEBD@Z 000000014008d4a0 f i stream.obj
 0001:0008c4c0       ?printf@filestream@@UEAA_KPEBDZZ 000000014008d4c0 f i stream.obj
 0001:0008c510       ??_Efilestream@@UEAAPEAXI@Z 000000014008d510 f i * CIL library *:* CIL module *
 0001:0008c510       ??_Gfilestream@@UEAAPEAXI@Z 000000014008d510 f i stream.obj
 0001:0008c580       ?readbyte@gzstream@@QEAAE_K@Z 000000014008d580 f i stream.obj
 0001:0008c5e0       ?checkheader@gzstream@@QEAA_NXZ 000000014008d5e0 f i stream.obj
 0001:0008c870       ?open@gzstream@@QEAA_NPEAUstream@@PEBD_NH@Z 000000014008d870 f i stream.obj
 0001:0008c9f0       ?getcrc@gzstream@@UEAAIXZ  000000014008d9f0 f i stream.obj
 0001:0008ca00       ?finishreading@gzstream@@QEAAXXZ 000000014008da00 f i stream.obj
 0001:0008cb50       ?close@gzstream@@UEAAXXZ   000000014008db50 f i stream.obj
 0001:0008ccd0       ?end@gzstream@@UEAA_NXZ    000000014008dcd0 f i stream.obj
 0001:0008ccf0       ?tell@gzstream@@UEAA_JXZ   000000014008dcf0 f i stream.obj
 0001:0008cd10       ?rawtell@gzstream@@UEAA_JXZ 000000014008dd10 f i stream.obj
 0001:0008cd30       ?size@gzstream@@UEAA_JXZ   000000014008dd30 f i stream.obj
 0001:0008cde0       ?rawsize@gzstream@@UEAA_JXZ 000000014008dde0 f i stream.obj
 0001:0008ce00       ?seek@gzstream@@UEAA_N_JH@Z 000000014008de00 f i stream.obj
 0001:0008d010       ?read@gzstream@@UEAA_KPEAX_K@Z 000000014008e010 f i stream.obj
 0001:0008d130       ?flush@gzstream@@UEAA_NXZ  000000014008e130 f i stream.obj
 0001:0008d1b0       ?write@gzstream@@UEAA_KPEBX_K@Z 000000014008e1b0 f i stream.obj
 0001:0008d2b0       ??_Egzstream@@UEAAPEAXI@Z  000000014008e2b0 f i * CIL library *:* CIL module *
 0001:0008d2b0       ??_Ggzstream@@UEAAPEAXI@Z  000000014008e2b0 f i stream.obj
 0001:0008d310       ?readbuf@utf8stream@@QEAA_N_K@Z 000000014008e310 f i stream.obj
 0001:0008d420       ?checkheader@utf8stream@@QEAA_NXZ 000000014008e420 f i stream.obj
 0001:0008d480       ?close@utf8stream@@UEAAXXZ 000000014008e480 f i stream.obj
 0001:0008d4d0       ?end@utf8stream@@UEAA_NXZ  000000014008e4d0 f i stream.obj
 0001:0008d4f0       ?tell@utf8stream@@UEAA_JXZ 000000014008e4f0 f i stream.obj
 0001:0008d510       ?seek@utf8stream@@UEAA_N_JH@Z 000000014008e510 f i stream.obj
 0001:0008d660       ?read@utf8stream@@UEAA_KPEAX_K@Z 000000014008e660 f i stream.obj
 0001:0008d740       ?getline@utf8stream@@UEAA_NPEAD_K@Z 000000014008e740 f i stream.obj
 0001:0008d850       ?write@utf8stream@@UEAA_KPEBX_K@Z 000000014008e850 f i stream.obj
 0001:0008dab0       ?flush@utf8stream@@UEAA_NXZ 000000014008eab0 f i stream.obj
 0001:0008dac0       ??_Eutf8stream@@UEAAPEAXI@Z 000000014008eac0 f i * CIL library *:* CIL module *
 0001:0008dac0       ??_Gutf8stream@@UEAAPEAXI@Z 000000014008eac0 f i stream.obj
 0001:0008db50       ??_Gstream@@UEAAPEAXI@Z    000000014008eb50 f i stream.obj
 0001:0008db50       ??_Estream@@UEAAPEAXI@Z    000000014008eb50 f i * CIL library *:* CIL module *
 0001:0008db80       ?rawtell@stream@@UEAA_JXZ  000000014008eb80 f i stream.obj
 0001:0008db90       ?rawsize@stream@@UEAA_JXZ  000000014008eb90 f i stream.obj
 0001:0008dba0       ?getchar@stream@@UEAAHXZ   000000014008eba0 f i stream.obj
 0001:0008dbd0       ?putstring@stream@@UEAA_NPEBD@Z 000000014008ebd0 f i stream.obj
 0001:0008dc00       ?putchar@stream@@UEAA_NH@Z 000000014008ec00 f i stream.obj
 0001:0008dc30       ?putline@stream@@UEAA_NPEBD@Z 000000014008ec30 f i stream.obj
 0001:0008dc70       ??1stream@@UEAA@XZ         000000014008ec70 f i stream.obj
 0001:0008dc80       ?tell@stream@@UEAA_JXZ     000000014008ec80 f i stream.obj
 0001:0008dc90       ?put@packetbuf@@QEAAXAEBE@Z 000000014008ec90 f i tools.obj
 0001:0008dd20       ??1?$hashnameset@Uzipfile@@@@QEAA@XZ 000000014008ed20 f i zip.obj
 0001:0008dd40       ?stopreading@zipstream@@QEAAXXZ 000000014008ed40 f i zip.obj
 0001:0008ddc0       ?close@zipstream@@UEAAXXZ  000000014008edc0 f i zip.obj
 0001:0008de10       ?size@zipstream@@UEAA_JXZ  000000014008ee10 f i zip.obj
 0001:0008de20       ?end@zipstream@@UEAA_NXZ   000000014008ee20 f i zip.obj
 0001:0008de40       ?tell@zipstream@@UEAA_JXZ  000000014008ee40 f i zip.obj
 0001:0008de70       ?seek@zipstream@@UEAA_N_JH@Z 000000014008ee70 f i zip.obj
 0001:0008e040       ?read@zipstream@@UEAA_KPEAX_K@Z 000000014008f040 f i zip.obj
 0001:0008e250       ??_Gzipstream@@UEAAPEAXI@Z 000000014008f250 f i zip.obj
 0001:0008e250       ??_Ezipstream@@UEAAPEAXI@Z 000000014008f250 f i * CIL library *:* CIL module *
 0001:0008e2e0       ??1?$vector@Uzipfile@@@@QEAA@XZ 000000014008f2e0 f i zip.obj
 0001:0008e360       ??1?$hashbase@U?$hashnameset@Uzipfile@@@@Uzipfile@@PEBDU2@@@QEAA@XZ 000000014008f360 f i zip.obj
 0001:0008e3f0       ?insert@?$hashbase@U?$hashnameset@Uzipfile@@@@Uzipfile@@PEBDU2@@@QEAAPEAUchain@1@I@Z 000000014008f3f0 f i zip.obj
 0001:0008e5c0       ??0chain@?$hashbase@U?$hashnameset@Uzipfile@@@@Uzipfile@@PEBDU2@@@QEAA@XZ 000000014008f5c0 f i zip.obj
 0001:0008e5f0       ?add@?$vector@Uinterest@ai@@@@QEAAAEAUinterest@ai@@XZ 000000014008f5f0 f i ai.obj
 0001:0008e6e0       ?abovehead@dynent@@QEAA?AUvec@@XZ 000000014008f6e0 f i ai.obj
 0001:0008e720       ?add@avoidset@ai@@QEAAXPEAXM@Z 000000014008f720 f i ai.obj
 0001:0008e800       ?add@avoidset@ai@@QEAAXAEAU12@@Z 000000014008f800 f i ai.obj
 0001:0008ea00       ?canpickup@fpsstate@@QEAA_NH@Z 000000014008fa00 f i ai.obj
 0001:0008ea80       ?switchstate@aiinfo@ai@@QEAAAEAUaistate@2@AEAU32@HHH@Z 000000014008fa80 f i ai.obj
 0001:0008ead0       ?find@avoidset@ai@@QEBA_NHPEAUfpsent@@@Z 000000014008fad0 f i ai.obj
 0001:0008eb70       ??_Gaiinfo@ai@@QEAAPEAXI@Z 000000014008fb70 f i ai.obj
 0001:0008ebe0       ?addstate@aiinfo@ai@@QEAAAEAUaistate@2@HHH@Z 000000014008fbe0 f i ai.obj
 0001:0008ecf0       ?reset@aiinfo@ai@@QEAAX_N@Z 000000014008fcf0 f i ai.obj
 0001:0008ed90       ?pickup@fpsstate@@QEAAXH@Z 000000014008fd90 f i entities.obj
 0001:0008ee30       ?buttonf@g3d_gui@@QEAAHPEBDH0ZZ 000000014008fe30 f i fps.obj
 0001:0008eef0       ??1fpsent@@QEAA@XZ         000000014008fef0 f i fps.obj
 0001:0008f040       ??0dynent@@QEAA@XZ         0000000140090040 f i fps.obj
 0001:0008f200       ??1dynent@@QEAA@XZ         0000000140090200 f i fps.obj
 0001:0008f230       ??0fpsent@@QEAA@XZ         0000000140090230 f i fps.obj
 0001:0008f330       ?spawnstate@fpsstate@@QEAAXH@Z 0000000140090330 f i fps.obj
 0001:0008f5c0       ?respawn@fpsent@@QEAAXXZ   00000001400905c0 f i fps.obj
 0001:0008f730       ??0monster@game@@QEAA@HHHHHH@Z 0000000140090730 f i monster.obj
 0001:0008f9b0       ?normalize_yaw@monster@game@@QEAAXM@Z 00000001400909b0 f i monster.obj
 0001:0008fa20       ?transition@monster@game@@QEAAXHHHH@Z 0000000140090a20 f i monster.obj
 0001:0008faa0       ?monsteraction@monster@game@@QEAAXH@Z 0000000140090aa0 f i monster.obj
 0001:00090220       ?monsterpain@monster@game@@QEAAXHPEAUfpsent@@@Z 0000000140091220 f i monster.obj
 0001:000904b0       ?add@?$vector@PEAUmonster@game@@@@QEAAAEAPEAUmonster@game@@AEBQEAU23@@Z 00000001400914b0 f i monster.obj
 0001:000905c0       ?maymove@physent@@QEBA_NXZ 00000001400915c0 f i monster.obj
 0001:00090630       ??0movable@game@@QEAA@AEBUentity@@@Z 0000000140091630 f i movable.obj
 0001:00090930       ?explode@movable@game@@QEAAXPEAUdynent@@@Z 0000000140091930 f i movable.obj
 0001:00090970       ??$htfind@$$BY0BAE@D@?$vector@PEBD@@QEAAHAEAY0BAE@$$CBD@Z 0000000140091970 f i render.obj
 0001:00090a00       ?show@scoreboardgui@game@@QEAAX_N@Z 0000000140091a00 f i scoreboard.obj
 0001:00090ad0       ?gui@scoreboardgui@game@@UEAAXAEAUg3d_gui@@_N@Z 0000000140091ad0 f i scoreboard.obj
 0001:00090b10       ??$access@$$BY0BAE@D@?$hashbase@U?$hashset@Uteaminfo@@@@Uteaminfo@@U2@U2@@@QEAAPEAUteaminfo@@AEAY0BAE@$$CBD@Z 0000000140091b10 f i scoreboard.obj
 0001:00090ba0       ?textf@g3d_gui@@QEAAHPEBDH0ZZ 0000000140091ba0 f i scoreboard.obj
 0001:00090c60       ?titlef@g3d_gui@@QEAAHPEBDH0ZZ 0000000140091c60 f i scoreboard.obj
 0001:00090d20       ?compare@teamscore@@SA_NAEBU1@0@Z 0000000140091d20 f i scoreboard.obj
 0001:00090d60       ??0wpcache@ai@@QEAA@XZ     0000000140091d60 f i waypoint.obj
 0001:00090de0       ?build@wpcache@ai@@QEAAXHH@Z 0000000140091de0 f i waypoint.obj
 0001:00090fc0       ?build@wpcache@ai@@QEAAXPEAHHAEBUvec@@1@Z 0000000140091fc0 f i waypoint.obj
 0001:00091750       ?upheap@?$vector@PEAUwaypoint@ai@@@@QEAAHH@Z 0000000140092750 f i waypoint.obj
 0001:000917d0       ?add@?$vector@PEAUwaypoint@ai@@@@QEAAAEAPEAUwaypoint@ai@@AEBQEAU23@@Z 00000001400927d0 f i waypoint.obj
 0001:000918f0       ?add@?$vector@PEAUnode@wpcache@ai@@@@QEAAAEAPEAUnode@wpcache@ai@@AEBQEAU234@@Z 00000001400928f0 f i waypoint.obj
 0001:00091a00       ?add@?$vector@Uwaypoint@ai@@@@QEAAAEAUwaypoint@ai@@AEBU23@@Z 0000000140092a00 f i waypoint.obj
 0001:00091b30       ?offsetpos@bouncer@game@@QEAA?AUvec@@XZ 0000000140092b30 f i weapon.obj
 0001:00091bd0       ?limitoffset@bouncer@game@@QEAAXXZ 0000000140092bd0 f i weapon.obj
 0001:00091c90       ?remove@?$vector@Uprojectile@game@@@@QEAA?AUprojectile@game@@H@Z 0000000140092c90 f i weapon.obj
 0001:00091d90       ?remove@?$vector@PEAUbouncer@game@@@@QEAAPEAUbouncer@game@@H@Z 0000000140092d90 f i weapon.obj
 0001:00091df0       ?hitpush@fpsent@@QEAAXHAEBUvec@@PEAU1@H@Z 0000000140092df0 f i weapon.obj
 0001:00091eb0       ?safenormalize@vec@@QEAAAEAU1@XZ 0000000140092eb0 f i weapon.obj
 0001:00091f20       ?getteamscore@captureclientmode@game@@UEAAHPEBD@Z 0000000140092f20 f i client1.obj
 0001:00091f20       ?getteamscore@captureservmode@server@@UEAAHPEBD@Z 0000000140092f20 f i server1.obj
 0001:00091fa0       ?getteamscores@captureservmode@server@@UEAAXAEAU?$vector@Uteamscore@@@@@Z 0000000140092fa0 f i server1.obj
 0001:00091fa0       ?getteamscores@captureclientmode@game@@UEAAXAEAU?$vector@Uteamscore@@@@@Z 0000000140092fa0 f i client1.obj
 0001:000920d0       ?initbase@captureclientmode@game@@QEAAXHHPEBD0HH@Z 00000001400930d0 f i client1.obj
 0001:000921c0       ?receiveammo@captureclientmode@game@@QEAAXPEAUfpsent@@H@Z 00000001400931c0 f i client1.obj
 0001:00092370       ?checkitems@captureclientmode@game@@UEAAXPEAUfpsent@@@Z 0000000140093370 f i client1.obj
 0001:00092640       ?rendertether@captureclientmode@game@@QEAAXPEAUfpsent@@@Z 0000000140093640 f i client1.obj
 0001:00092c50       ?preload@captureclientmode@game@@UEAAXXZ 0000000140093c50 f i client1.obj
 0001:00092d00       ?rendergame@captureclientmode@game@@UEAAXXZ 0000000140093d00 f i client1.obj
 0001:00093640       ?drawblips@captureclientmode@game@@QEAAXPEAUfpsent@@MHHH_N@Z 0000000140094640 f i client1.obj
 0001:00093d60       ?respawnwait@captureclientmode@game@@UEAAHPEAUfpsent@@@Z 0000000140094d60 f i client1.obj
 0001:00093dc0       ?clipconsole@captureclientmode@game@@UEAAHHH@Z 0000000140094dc0 f i client1.obj
 0001:00093dc0       ?clipconsole@collectclientmode@game@@UEAAHHH@Z 0000000140094dc0 f i client1.obj
 0001:00093dc0       ?clipconsole@ctfclientmode@game@@UEAAHHH@Z 0000000140094dc0 f i client1.obj
 0001:00093de0       ?drawhud@captureclientmode@game@@UEAAXPEAUfpsent@@HH@Z 0000000140094de0 f i client1.obj
 0001:00094570       ?setup@captureclientmode@game@@UEAAXXZ 0000000140095570 f i client1.obj
 0001:00094930       ?senditems@captureclientmode@game@@UEAAXAEAUpacketbuf@@@Z 0000000140095930 f i client1.obj
 0001:00094a20       ?updatebase@captureclientmode@game@@QEAAXHPEBD0HH@Z 0000000140095a20 f i client1.obj
 0001:00094ee0       ?setscore@captureclientmode@game@@QEAAXHPEBDH@Z 0000000140095ee0 f i client1.obj
 0001:000951e0       ?closesttoenemy@captureclientmode@game@@QEAAHPEBD_N1@Z 00000001400961e0 f i client1.obj
 0001:000953c0       ?pickteamspawn@captureclientmode@game@@QEAAHPEBD@Z 00000001400963c0 f i client1.obj
 0001:00095740       ?pickspawn@captureclientmode@game@@UEAAXPEAUfpsent@@@Z 0000000140096740 f i client1.obj
 0001:00095770       ?aifind@captureclientmode@game@@UEAAXPEAUfpsent@@AEAUaistate@ai@@AEAU?$vector@Uinterest@ai@@@@@Z 0000000140096770 f i client1.obj
 0001:00095f00       ?aidefend@captureclientmode@game@@UEAA_NPEAUfpsent@@AEAUaistate@ai@@@Z 0000000140096f00 f i client1.obj
 0001:000964b0       ?aipursue@captureclientmode@game@@UEAA_NPEAUfpsent@@AEAUaistate@ai@@@Z 00000001400974b0 f i client1.obj
 0001:000964c0       ??_Ecaptureclientmode@game@@UEAAPEAXI@Z 00000001400974c0 f i * CIL library *:* CIL module *
 0001:000964c0       ??_Gcaptureclientmode@game@@UEAAPEAXI@Z 00000001400974c0 f i client1.obj
 0001:000964c0       ??_Ectfclientmode@game@@UEAAPEAXI@Z 00000001400974c0 f i * CIL library *:* CIL module *
 0001:000964c0       ??_Gctfclientmode@game@@UEAAPEAXI@Z 00000001400974c0 f i client1.obj
 0001:00096500       ??1ctfclientmode@game@@UEAA@XZ 0000000140097500 f i client1.obj
 0001:00096500       ??1captureclientmode@game@@UEAA@XZ 0000000140097500 f i client1.obj
 0001:00096570       ?reset@flag@ctfclientmode@game@@QEAAXXZ 0000000140097570 f i client1.obj
 0001:00096630       ?pos@flag@ctfclientmode@game@@QEBA?AUvec@@XZ 0000000140097630 f i client1.obj
 0001:000966c0       ?addflag@ctfclientmode@game@@QEAA_NHAEBUvec@@HH@Z 00000001400976c0 f i client1.obj
 0001:00096850       ?addholdspawn@ctfclientmode@game@@QEAA_NAEBUvec@@@Z 0000000140097850 f i client1.obj
 0001:00096990       ?returnflag@ctfclientmode@game@@QEAAXHH@Z 0000000140097990 f i client1.obj
 0001:00096a10       ?getteamscore@ctfclientmode@game@@UEAAHPEBD@Z 0000000140097a10 f i client1.obj
 0001:00096a10       ?getteamscore@ctfservmode@server@@UEAAHPEBD@Z 0000000140097a10 f i server1.obj
 0001:00096a80       ?getteamscores@ctfservmode@server@@UEAAXAEAU?$vector@Uteamscore@@@@@Z 0000000140097a80 f i server1.obj
 0001:00096a80       ?getteamscores@ctfclientmode@game@@UEAAXAEAU?$vector@Uteamscore@@@@@Z 0000000140097a80 f i client1.obj
 0001:00096bb0       ?preload@ctfclientmode@game@@UEAAXXZ 0000000140097bb0 f i client1.obj
 0001:00096ca0       ?drawblip@ctfclientmode@game@@QEAAXPEAUfpsent@@MMMAEBUvec@@_N@Z 0000000140097ca0 f i client1.obj
 0001:00096eb0       ?drawhud@ctfclientmode@game@@UEAAXPEAUfpsent@@HH@Z 0000000140097eb0 f i client1.obj
 0001:00097a50       ?removeplayer@ctfclientmode@game@@UEAAXPEAUfpsent@@@Z 0000000140098a50 f i client1.obj
 0001:00097b50       ?interpflagpos@ctfclientmode@game@@QEAA?AUvec@@AEAUflag@12@AEAM@Z 0000000140098b50 f i client1.obj
 0001:00097d80       ?rendergame@ctfclientmode@game@@UEAAXXZ 0000000140098d80 f i client1.obj
 0001:00098950       ?setup@ctfclientmode@game@@UEAAXXZ 0000000140099950 f i client1.obj
 0001:00098ca0       ?senditems@ctfclientmode@game@@UEAAXAEAUpacketbuf@@@Z 0000000140099ca0 f i client1.obj
 0001:00098e10       ?parseflags@ctfclientmode@game@@QEAAXAEAU?$databuf@E@@_N@Z 0000000140099e10 f i client1.obj
 0001:00099110       ?teamcolorflag@ctfclientmode@game@@QEAAPEBDAEAUflag@12@@Z 000000014009a110 f i client1.obj
 0001:00099180       ?dropflag@ctfclientmode@game@@QEAAXPEAUfpsent@@HHAEBUvec@@@Z 000000014009a180 f i client1.obj
 0001:00099350       ?flagexplosion@ctfclientmode@game@@QEAAXHHAEBUvec@@@Z 000000014009a350 f i client1.obj
 0001:00099590       ?flageffect@ctfclientmode@game@@QEAAXHHAEBUvec@@0@Z 000000014009a590 f i client1.obj
 0001:00099760       ?returnflag@ctfclientmode@game@@QEAAXPEAUfpsent@@HH@Z 000000014009a760 f i client1.obj
 0001:000998e0       ?spawnflag@ctfclientmode@game@@QEAAXAEAUflag@12@@Z 000000014009a8e0 f i client1.obj
 0001:00099930       ?resetflag@ctfclientmode@game@@QEAAXHHHHH@Z 000000014009a930 f i client1.obj
 0001:00099b10       ?scoreflag@ctfclientmode@game@@QEAAXPEAUfpsent@@HHHHHHHH@Z 000000014009ab10 f i client1.obj
 0001:00099eb0       ?takeflag@ctfclientmode@game@@QEAAXPEAUfpsent@@HH@Z 000000014009aeb0 f i client1.obj
 0001:0009a070       ?invisflag@ctfclientmode@game@@QEAAXHH@Z 000000014009b070 f i client1.obj
 0001:0009a0b0       ?checkitems@ctfclientmode@game@@UEAAXPEAUfpsent@@@Z 000000014009b0b0 f i client1.obj
 0001:0009a350       ?respawned@ctfclientmode@game@@UEAAXPEAUfpsent@@@Z 000000014009b350 f i client1.obj
 0001:0009a4d0       ?respawnwait@ctfclientmode@game@@UEAAHPEAUfpsent@@@Z 000000014009b4d0 f i client1.obj
 0001:0009a530       ?pickholdspawn@ctfclientmode@game@@QEAA_NPEAUfpsent@@@Z 000000014009b530 f i client1.obj
 0001:0009aa10       ?pickspawn@ctfclientmode@game@@UEAAXPEAUfpsent@@@Z 000000014009ba10 f i client1.obj
 0001:0009ab10       ?aihomerun@ctfclientmode@game@@QEAA_NPEAUfpsent@@AEAUaistate@ai@@@Z 000000014009bb10 f i client1.obj
 0001:0009b120       ?aicheck@ctfclientmode@game@@UEAA_NPEAUfpsent@@AEAUaistate@ai@@@Z 000000014009c120 f i client1.obj
 0001:0009b3f0       ?aifind@ctfclientmode@game@@UEAAXPEAUfpsent@@AEAUaistate@ai@@AEAU?$vector@Uinterest@ai@@@@@Z 000000014009c3f0 f i client1.obj
 0001:0009c1a0       ?aidefend@ctfclientmode@game@@UEAA_NPEAUfpsent@@AEAUaistate@ai@@@Z 000000014009d1a0 f i client1.obj
 0001:0009cac0       ?aipursue@ctfclientmode@game@@UEAA_NPEAUfpsent@@AEAUaistate@ai@@@Z 000000014009dac0 f i client1.obj
 0001:0009cc50       ?addbase@collectclientmode@game@@QEAA_NHAEBUvec@@H@Z 000000014009dc50 f i client1.obj
 0001:0009ce20       ?droptoken@collectclientmode@game@@QEAAAEAUtoken@12@HAEBUvec@@HH@Z 000000014009de20 f i client1.obj
 0001:0009cfa0       ?getteamscore@collectclientmode@game@@UEAAHPEBD@Z 000000014009dfa0 f i client1.obj
 0001:0009cfa0       ?getteamscore@collectservmode@server@@UEAAHPEBD@Z 000000014009dfa0 f i server1.obj
 0001:0009d010       ?getteamscores@collectclientmode@game@@UEAAXAEAU?$vector@Uteamscore@@@@@Z 000000014009e010 f i client1.obj
 0001:0009d010       ?getteamscores@collectservmode@server@@UEAAXAEAU?$vector@Uteamscore@@@@@Z 000000014009e010 f i server1.obj
 0001:0009d140       ?insidebase@collectclientmode@game@@QEAA_NAEBUbase@12@AEBUvec@@@Z 000000014009e140 f i client1.obj
 0001:0009d190       ?preload@collectclientmode@game@@UEAAXXZ 000000014009e190 f i client1.obj
 0001:0009d2d0       ?drawblip@collectclientmode@game@@QEAAXPEAUfpsent@@MMMAEBUvec@@M@Z 000000014009e2d0 f i client1.obj
 0001:0009d470       ?drawhud@collectclientmode@game@@UEAAXPEAUfpsent@@HH@Z 000000014009e470 f i client1.obj
 0001:0009dcd0       ?rendergame@collectclientmode@game@@UEAAXXZ 000000014009ecd0 f i client1.obj
 0001:0009e500       ?setup@collectclientmode@game@@UEAAXXZ 000000014009f500 f i client1.obj
 0001:0009e6b0       ?senditems@collectclientmode@game@@UEAAXAEAUpacketbuf@@@Z 000000014009f6b0 f i client1.obj
 0001:0009e770       ?movetoken@collectclientmode@game@@QEAA?AUvec@@AEBU3@H@Z 000000014009f770 f i client1.obj
 0001:0009ea30       ?parsetokens@collectclientmode@game@@QEAAXAEAU?$databuf@E@@_N@Z 000000014009fa30 f i client1.obj
 0001:0009ed30       ?baseexplosion@collectclientmode@game@@QEAAXHHAEBUvec@@@Z 000000014009fd30 f i client1.obj
 0001:0009ef40       ?expiretoken@collectclientmode@game@@QEAAXH@Z 000000014009ff40 f i client1.obj
 0001:0009f040       ?taketoken@collectclientmode@game@@QEAAXPEAUfpsent@@HH@Z 00000001400a0040 f i client1.obj
 0001:0009f1f0       ?droptoken@collectclientmode@game@@QEAAPEAUtoken@12@PEAUfpsent@@HAEBUvec@@HHH@Z 00000001400a01f0 f i client1.obj
 0001:0009f5e0       ?stealtoken@collectclientmode@game@@QEAAXPEAUfpsent@@HAEBUvec@@HHHHHH@Z 00000001400a05e0 f i client1.obj
 0001:0009f850       ?deposittokens@collectclientmode@game@@QEAAXPEAUfpsent@@HHHHH@Z 00000001400a0850 f i client1.obj
 0001:0009fbf0       ?checkitems@collectclientmode@game@@UEAAXPEAUfpsent@@@Z 00000001400a0bf0 f i client1.obj
 0001:0009ffa0       ?respawnwait@collectclientmode@game@@UEAAHPEAUfpsent@@@Z 00000001400a0fa0 f i client1.obj
 0001:0009ffd0       ?pickspawn@collectclientmode@game@@UEAAXPEAUfpsent@@@Z 00000001400a0fd0 f i client1.obj
 0001:000a0050       ?aicheck@collectclientmode@game@@UEAA_NPEAUfpsent@@AEAUaistate@ai@@@Z 00000001400a1050 f i client1.obj
 0001:000a0810       ?aifind@collectclientmode@game@@UEAAXPEAUfpsent@@AEAUaistate@ai@@AEAU?$vector@Uinterest@ai@@@@@Z 00000001400a1810 f i client1.obj
 0001:000a0cf0       ?aipursue@collectclientmode@game@@UEAA_NPEAUfpsent@@AEAUaistate@ai@@@Z 00000001400a1cf0 f i client1.obj
 0001:000a0e20       ??1collectclientmode@game@@UEAA@XZ 00000001400a1e20 f i client1.obj
 0001:000a0e90       ??_Ecollectclientmode@game@@UEAAPEAXI@Z 00000001400a1e90 f i * CIL library *:* CIL module *
 0001:000a0e90       ??_Gcollectclientmode@game@@UEAAPEAXI@Z 00000001400a1e90 f i client1.obj
 0001:000a0ed0       ?validate@selinfo@@QEAA_NXZ 00000001400a1ed0 f i client1.obj
 0001:000a1010       ??_Eclientmode@game@@UEAAPEAXI@Z 00000001400a2010 f i * CIL library *:* CIL module *
 0001:000a1010       ??_Gclientmode@game@@UEAAPEAXI@Z 00000001400a2010 f i client1.obj
 0001:000a1040       ?pickspawn@clientmode@game@@UEAAXPEAUfpsent@@@Z 00000001400a2040 f i client1.obj
 0001:000a1280       ??1clientmode@game@@UEAA@XZ 00000001400a2280 f i client1.obj
 0001:000a1290       ??1gameevent@server@@UEAA@XZ 00000001400a2290 f i server1.obj
 0001:000a12a0       ??_Egameevent@server@@UEAAPEAXI@Z 00000001400a22a0 f i * CIL library *:* CIL module *
 0001:000a12a0       ??_Ggameevent@server@@UEAAPEAXI@Z 00000001400a22a0 f i server1.obj
 0001:000a12d0       ?respawn@gamestate@server@@QEAAXXZ 00000001400a22d0 f i server1.obj
 0001:000a1330       ??0clientinfo@server@@QEAA@XZ 00000001400a2330 f i server1.obj
 0001:000a14b0       ??1clientinfo@server@@QEAA@XZ 00000001400a24b0 f i server1.obj
 0001:000a15f0       ?addevent@clientinfo@server@@QEAAXPEAUgameevent@2@@Z 00000001400a25f0 f i server1.obj
 0001:000a1720       ?calcpushrange@clientinfo@server@@QEAAHXZ 00000001400a2720 f i server1.obj
 0001:000a1770       ?setexceeded@clientinfo@server@@QEAAXXZ 00000001400a2770 f i server1.obj
 0001:000a17f0       ?setpushed@clientinfo@server@@QEAAXXZ 00000001400a27f0 f i server1.obj
 0001:000a1880       ?mapchange@clientinfo@server@@QEAAXXZ 00000001400a2880 f i server1.obj
 0001:000a19e0       ?cleanclipboard@clientinfo@server@@QEAAX_N@Z 00000001400a29e0 f i server1.obj
 0001:000a1a40       ?cleanauth@clientinfo@server@@QEAAX_N@Z 00000001400a2a40 f i server1.obj
 0001:000a1ac0       ?geteventmillis@clientinfo@server@@QEAAHHH@Z 00000001400a2ac0 f i server1.obj
 0001:000a1b10       ??1servmode@server@@UEAA@XZ 00000001400a2b10 f i server1.obj
 0001:000a1b20       ?fragvalue@servmode@server@@UEAAHPEAUclientinfo@2@0@Z 00000001400a2b20 f i server1.obj
 0001:000a1b90       ??_Gservmode@server@@UEAAPEAXI@Z 00000001400a2b90 f i server1.obj
 0001:000a1b90       ??_Eservmode@server@@UEAAPEAXI@Z 00000001400a2b90 f i * CIL library *:* CIL module *
 0001:000a1bc0       ?enter@baseinfo@captureservmode@server@@QEAA_NPEBD@Z 00000001400a2bc0 f i server1.obj
 0001:000a1cd0       ?findscore@captureservmode@server@@QEAAAEAUscore@12@PEBD@Z 00000001400a2cd0 f i server1.obj
 0001:000a1e60       ?addbase@captureservmode@server@@QEAAXHAEBUvec@@@Z 00000001400a2e60 f i server1.obj
 0001:000a21c0       ?cleanup@captureservmode@server@@UEAAXXZ 00000001400a31c0 f i server1.obj
 0001:000a21f0       ?setup@captureservmode@server@@UEAAXXZ 00000001400a31f0 f i server1.obj
 0001:000a2330       ?newmap@captureservmode@server@@UEAAXXZ 00000001400a3330 f i server1.obj
 0001:000a2360       ?replenishammo@captureservmode@server@@QEAAXPEAUclientinfo@2@@Z 00000001400a3360 f i server1.obj
 0001:000a2550       ?movebases@captureservmode@server@@QEAAXPEBDAEBUvec@@_N12@Z 00000001400a3550 f i server1.obj
 0001:000a28a0       ?regenowners@captureservmode@server@@QEAAXAEAUbaseinfo@12@H@Z 00000001400a38a0 f i server1.obj
 0001:000a2b30       ?update@captureservmode@server@@UEAAXXZ 00000001400a3b30 f i server1.obj
 0001:000a2fa0       ?sendbaseinfo@captureservmode@server@@QEAAXH@Z 00000001400a3fa0 f i server1.obj
 0001:000a3010       ?sendbases@captureservmode@server@@QEAAXXZ 00000001400a4010 f i server1.obj
 0001:000a30e0       ?initclient@captureservmode@server@@UEAAXPEAUclientinfo@2@AEAUpacketbuf@@_N@Z 00000001400a40e0 f i server1.obj
 0001:000a3280       ?entergame@captureservmode@server@@UEAAXPEAUclientinfo@2@@Z 00000001400a4280 f i server1.obj
 0001:000a32e0       ?spawned@captureservmode@server@@UEAAXPEAUclientinfo@2@@Z 00000001400a42e0 f i server1.obj
 0001:000a3340       ?leavegame@captureservmode@server@@UEAAXPEAUclientinfo@2@_N@Z 00000001400a4340 f i server1.obj
 0001:000a33a0       ?died@captureservmode@server@@UEAAXPEAUclientinfo@2@0@Z 00000001400a43a0 f i server1.obj
 0001:000a3400       ?canspawn@captureservmode@server@@UEAA_NPEAUclientinfo@2@_N@Z 00000001400a4400 f i server1.obj
 0001:000a3460       ?moved@captureservmode@server@@UEAAXPEAUclientinfo@2@AEBUvec@@_N12@Z 00000001400a4460 f i server1.obj
 0001:000a3480       ?changeteam@captureservmode@server@@UEAAXPEAUclientinfo@2@PEBD1@Z 00000001400a4480 f i server1.obj
 0001:000a3530       ?parsebases@captureservmode@server@@QEAAXAEAU?$databuf@E@@_N@Z 00000001400a4530 f i server1.obj
 0001:000a36e0       ?extinfoteam@captureservmode@server@@UEAA_NPEBDAEAU?$databuf@E@@@Z 00000001400a46e0 f i server1.obj
 0001:000a37e0       ??_Gcaptureservmode@server@@UEAAPEAXI@Z 00000001400a47e0 f i server1.obj
 0001:000a37e0       ??_Ecaptureservmode@server@@UEAAPEAXI@Z 00000001400a47e0 f i * CIL library *:* CIL module *
 0001:000a3820       ??1captureservmode@server@@UEAA@XZ 00000001400a4820 f i server1.obj
 0001:000a3820       ??1ctfservmode@server@@UEAA@XZ 00000001400a4820 f i server1.obj
 0001:000a3890       ?addflag@ctfservmode@server@@QEAA_NHAEBUvec@@HH@Z 00000001400a4890 f i server1.obj
 0001:000a3a80       ?addholdspawn@ctfservmode@server@@QEAA_NAEBUvec@@@Z 00000001400a4a80 f i server1.obj
 0001:000a3b90       ?cleanup@ctfservmode@server@@UEAAXXZ 00000001400a4b90 f i server1.obj
 0001:000a3bc0       ?setupholdspawns@ctfservmode@server@@QEAAXXZ 00000001400a4bc0 f i server1.obj
 0001:000a3cc0       ?setup@ctfservmode@server@@UEAAXXZ 00000001400a4cc0 f i server1.obj
 0001:000a3e50       ?newmap@ctfservmode@server@@UEAAXXZ 00000001400a4e50 f i server1.obj
 0001:000a3e80       ?dropflag@ctfservmode@server@@QEAAXPEAUclientinfo@2@0@Z 00000001400a4e80 f i server1.obj
 0001:000a4190       ?leavegame@ctfservmode@server@@UEAAXPEAUclientinfo@2@_N@Z 00000001400a5190 f i server1.obj
 0001:000a4200       ?died@ctfservmode@server@@UEAAXPEAUclientinfo@2@0@Z 00000001400a5200 f i server1.obj
 0001:000a42d0       ?canspawn@ctfservmode@server@@UEAA_NPEAUclientinfo@2@_N@Z 00000001400a52d0 f i server1.obj
 0001:000a4330       ?canchangeteam@collectservmode@server@@UEAA_NPEAUclientinfo@2@PEBD1@Z 00000001400a5330 f i server1.obj
 0001:000a4330       ?canchangeteam@ctfservmode@server@@UEAA_NPEAUclientinfo@2@PEBD1@Z 00000001400a5330 f i server1.obj
 0001:000a43a0       ?changeteam@ctfservmode@server@@UEAAXPEAUclientinfo@2@PEBD1@Z 00000001400a53a0 f i server1.obj
 0001:000a43b0       ?spawnflag@ctfservmode@server@@QEAAXH@Z 00000001400a53b0 f i server1.obj
 0001:000a4520       ?scoreflag@ctfservmode@server@@QEAAXPEAUclientinfo@2@HH@Z 00000001400a5520 f i server1.obj
 0001:000a4710       ?takeflag@ctfservmode@server@@QEAAXPEAUclientinfo@2@HH@Z 00000001400a5710 f i server1.obj
 0001:000a4a10       ?update@ctfservmode@server@@UEAAXXZ 00000001400a5a10 f i server1.obj
 0001:000a4ce0       ?initclient@ctfservmode@server@@UEAAXPEAUclientinfo@2@AEAUpacketbuf@@_N@Z 00000001400a5ce0 f i server1.obj
 0001:000a4e30       ?parseflags@ctfservmode@server@@QEAAXAEAU?$databuf@E@@_N@Z 00000001400a5e30 f i server1.obj
 0001:000a5190       ??_Ectfservmode@server@@UEAAPEAXI@Z 00000001400a6190 f i * CIL library *:* CIL module *
 0001:000a5190       ??_Gctfservmode@server@@UEAAPEAXI@Z 00000001400a6190 f i server1.obj
 0001:000a51d0       ?addbase@collectservmode@server@@QEAA_NHAEBUvec@@H@Z 00000001400a61d0 f i server1.obj
 0001:000a5380       ?droptoken@collectservmode@server@@QEAAAEAUtoken@12@AEBUvec@@HHHH@Z 00000001400a6380 f i server1.obj
 0001:000a54f0       ?cleanup@collectservmode@server@@UEAAXXZ 00000001400a64f0 f i server1.obj
 0001:000a5540       ?setup@collectservmode@server@@UEAAXXZ 00000001400a6540 f i server1.obj
 0001:000a5610       ?newmap@collectservmode@server@@UEAAXXZ 00000001400a6610 f i server1.obj
 0001:000a5650       ?droptokens@collectservmode@server@@QEAAXPEAUclientinfo@2@_N@Z 00000001400a6650 f i server1.obj
 0001:000a5af0       ?leavegame@collectservmode@server@@UEAAXPEAUclientinfo@2@_N@Z 00000001400a6af0 f i server1.obj
 0001:000a5dc0       ?died@collectservmode@server@@UEAAXPEAUclientinfo@2@0@Z 00000001400a6dc0 f i server1.obj
 0001:000a5e40       ?canspawn@collectservmode@server@@UEAA_NPEAUclientinfo@2@_N@Z 00000001400a6e40 f i server1.obj
 0001:000a5e70       ?deposittokens@collectservmode@server@@QEAAXPEAUclientinfo@2@H@Z 00000001400a6e70 f i server1.obj
 0001:000a6200       ?taketoken@collectservmode@server@@QEAAXPEAUclientinfo@2@H@Z 00000001400a7200 f i server1.obj
 0001:000a6340       ?update@collectservmode@server@@UEAAXXZ 00000001400a7340 f i server1.obj
 0001:000a6490       ?initclient@collectservmode@server@@UEAAXPEAUclientinfo@2@AEAUpacketbuf@@_N@Z 00000001400a7490 f i server1.obj
 0001:000a6610       ?parsebases@collectservmode@server@@QEAAXAEAU?$databuf@E@@_N@Z 00000001400a7610 f i server1.obj
 0001:000a6880       ??_Ecollectservmode@server@@UEAAPEAXI@Z 00000001400a7880 f i * CIL library *:* CIL module *
 0001:000a6880       ??_Gcollectservmode@server@@UEAAPEAXI@Z 00000001400a7880 f i server1.obj
 0001:000a68c0       ??1collectservmode@server@@UEAA@XZ 00000001400a78c0 f i server1.obj
 0001:000a6930       ??0userkey@server@@QEAA@PEAD0@Z 00000001400a7930 f i server1.obj
 0001:000a6940       ??1userinfo@server@@QEAA@XZ 00000001400a7940 f i server1.obj
 0001:000a6990       ??0msgfilter@server@@QEAA@HZZ 00000001400a7990 f i server1.obj
 0001:000a69f0       ??Amsgfilter@server@@QEBAEH@Z 00000001400a79f0 f i server1.obj
 0001:000a6a00       ?compare@crcinfo@server@@SA_NAEBU12@0@Z 00000001400a7a00 f i server1.obj
 0001:000a6a10       ?add@banlist@server@@QEAAXPEBD@Z 00000001400a7a10 f i server1.obj
 0001:000a6c20       ??_Esuicideevent@server@@UEAAPEAXI@Z 00000001400a7c20 f i * CIL library *:* CIL module *
 0001:000a6c20       ??_Gsuicideevent@server@@UEAAPEAXI@Z 00000001400a7c20 f i server1.obj
 0001:000a6c60       ??_Eshotevent@server@@UEAAPEAXI@Z 00000001400a7c60 f i * CIL library *:* CIL module *
 0001:000a6c60       ??_Gshotevent@server@@UEAAPEAXI@Z 00000001400a7c60 f i server1.obj
 0001:000a6cd0       ??0timedevent@server@@QEAA@XZ 00000001400a7cd0 f i server1.obj
 0001:000a6d00       ??1timedevent@server@@UEAA@XZ 00000001400a7d00 f i server1.obj
 0001:000a6d20       ??_Eexplodeevent@server@@UEAAPEAXI@Z 00000001400a7d20 f i * CIL library *:* CIL module *
 0001:000a6d20       ??_Gexplodeevent@server@@UEAAPEAXI@Z 00000001400a7d20 f i server1.obj
 0001:000a6d90       ??_Gtimedevent@server@@UEAAPEAXI@Z 00000001400a7d90 f i server1.obj
 0001:000a6d90       ??_Gpickupevent@server@@UEAAPEAXI@Z 00000001400a7d90 f i server1.obj
 0001:000a6d90       ??_Epickupevent@server@@UEAAPEAXI@Z 00000001400a7d90 f i * CIL library *:* CIL module *
 0001:000a6d90       ??_Etimedevent@server@@UEAAPEAXI@Z 00000001400a7d90 f i * CIL library *:* CIL module *
 0001:000a6dd0       ??1?$hashbase@U?$hashset@Uuserinfo@server@@@@Uuserinfo@server@@U23@U23@@@QEAA@XZ 00000001400a7dd0 f i server1.obj
 0001:000a6e10       ??A?$vector@Userver_entity@server@@@@QEAAAEAUserver_entity@server@@H@Z 00000001400a7e10 f i server1.obj
 0001:000a6e30       ?length@?$vector@Userver_entity@server@@@@QEBAHXZ 00000001400a7e30 f i server1.obj
 0001:000a6e40       ?inrange@?$vector@Userver_entity@server@@@@QEBA_NH@Z 00000001400a7e40 f i server1.obj
 0001:000a6e60       ?add@?$vector@Userver_entity@server@@@@QEAAAEAUserver_entity@server@@AEBU23@@Z 00000001400a7e60 f i server1.obj
 0001:000a6f90       ?add@?$vector@Umaprotation@server@@@@QEAAAEAUmaprotation@server@@XZ 00000001400a7f90 f i server1.obj
 0001:000a7080       ?shrink@?$vector@Uban@server@@@@QEAAXH@Z 00000001400a8080 f i server1.obj
 0001:000a70a0       ?add@?$vector@Uban@server@@@@QEAAAEAUban@server@@AEBU23@@Z 00000001400a80a0 f i server1.obj
 0001:000a71d0       ?add@?$vector@Uhitinfo@server@@@@QEAAAEAUhitinfo@server@@XZ 00000001400a81d0 f i server1.obj
 0001:000a7290       ?deletechunks@?$hashbase@U?$hashset@Uuserinfo@server@@@@Uuserinfo@server@@U23@U23@@@QEAAXXZ 00000001400a8290 f i server1.obj
 0001:000a7320       ??1chain@?$hashbase@U?$hashset@Uuserinfo@server@@@@Uuserinfo@server@@U23@U23@@@QEAA@XZ 00000001400a8320 f i server1.obj
 0001:000a7380       ??$formatstring@$0CAI@@@YAXAEAY0CAI@DPEBDZZ 00000001400a8380 f i server1.obj
 0001:000a73e0       ??$sendstate@Upacketbuf@@@server@@YAXAEAUgamestate@0@AEAUpacketbuf@@@Z 00000001400a83e0 f i server1.obj
 0001:000a7470       ??$access@Uuserkey@server@@@?$hashbase@U?$hashset@Uuserinfo@server@@@@Uuserinfo@server@@U23@U23@@@QEAAPEAUuserinfo@server@@AEBUuserkey@2@@Z 00000001400a8470 f i server1.obj
 0001:000a7520       ??$sendstate@U?$vector@E@@@server@@YAXAEAUgamestate@0@AEAU?$vector@E@@@Z 00000001400a8520 f i server1.obj
 0001:000a75b0       ?insert@?$hashbase@U?$hashset@Uuserinfo@server@@@@Uuserinfo@server@@U23@U23@@@QEAAPEAUchain@1@I@Z 00000001400a85b0 f i server1.obj
 0001:000a7940       ??0chain@?$hashbase@U?$hashset@Uuserinfo@server@@@@Uuserinfo@server@@U23@U23@@@QEAA@XZ 00000001400a8940 f i server1.obj
 0001:000a7969       __WSAFDIsSet               00000001400a8969 f   ws2_32:WS2_32.dll
 0001:000a7970       ??3@YAXPEAX_K@Z            00000001400a8970 f   LIBCMT:delete_scalar_size.obj
 0001:000a7978       __scrt_acquire_startup_lock 00000001400a8978 f   LIBCMT:utility.obj
 0001:000a79b4       __scrt_initialize_crt      00000001400a89b4 f   LIBCMT:utility.obj
 0001:000a7a00       __scrt_initialize_onexit_tables 00000001400a8a00 f   LIBCMT:utility.obj
 0001:000a7ad8       __scrt_is_nonwritable_in_current_image 00000001400a8ad8 f   LIBCMT:utility.obj
 0001:000a7b74       __scrt_release_startup_lock 00000001400a8b74 f   LIBCMT:utility.obj
 0001:000a7b98       __scrt_uninitialize_crt    00000001400a8b98 f   LIBCMT:utility.obj
 0001:000a7bc4       _onexit                    00000001400a8bc4 f   LIBCMT:utility.obj
 0001:000a7c14       atexit                     00000001400a8c14 f   LIBCMT:utility.obj
 0001:000a7c2c       ??_L@YAXPEAX_K1P6AX0@Z2@Z  00000001400a8c2c f   LIBCMT:ehvecctr.obj
 0001:000a7c9c       ??_M@YAXPEAX_K1P6AX0@Z@Z   00000001400a8c9c f   LIBCMT:ehvecdtr.obj
 0001:000a7d08       ?__ArrayUnwind@@YAXPEAX_K1P6AX0@Z@Z 00000001400a8d08 f   LIBCMT:ehvecdtr.obj
 0001:000a7ef4       _Init_thread_abort         00000001400a8ef4 f   LIBCMT:thread_safe_statics.obj
 0001:000a7f24       _Init_thread_footer        00000001400a8f24 f   LIBCMT:thread_safe_statics.obj
 0001:000a7f84       _Init_thread_header        00000001400a8f84 f   LIBCMT:thread_safe_statics.obj
 0001:000a7fec       _Init_thread_notify        00000001400a8fec f   LIBCMT:thread_safe_statics.obj
 0001:000a803c       _Init_thread_wait          00000001400a903c f   LIBCMT:thread_safe_statics.obj
 0001:000a80b4       ??_V@YAXPEAX_K@Z           00000001400a90b4 f   LIBCMT:delete_array_size.obj
 0001:000a80bc       ??_Gtype_info@@UEAAPEAXI@Z 00000001400a90bc f i LIBCMT:std_type_info_static.obj
 0001:000a80bc       ??_Etype_info@@UEAAPEAXI@Z 00000001400a90bc f i LIBCMT:std_type_info_static.obj
 0001:000a8340       WinMainCRTStartup          00000001400a9340 f   LIBCMT:exe_winmain.obj
 0001:000a8354       __isa_available_init       00000001400a9354 f   LIBCMT:_cpu_disp_.obj
 0001:000a8510       __scrt_is_ucrt_dll_in_use  00000001400a9510 f   LIBCMT:ucrt_detection.obj
 0001:000a851c       __crt_debugger_hook        00000001400a951c f   LIBCMT:utility_desktop.obj
 0001:000a8524       __scrt_fastfail            00000001400a9524 f   LIBCMT:utility_desktop.obj
 0001:000a8670       __scrt_get_show_window_mode 00000001400a9670 f   LIBCMT:utility_desktop.obj
 0001:000a86ac       __scrt_initialize_mta      00000001400a96ac f   LIBCMT:utility_desktop.obj
 0001:000a86b4       __scrt_is_managed_app      00000001400a96b4 f   LIBCMT:utility_desktop.obj
 0001:000a8708       __scrt_set_unhandled_exception_filter 00000001400a9708 f   LIBCMT:utility_desktop.obj
 0001:000a8718       __scrt_unhandled_exception_filter 00000001400a9718 f   LIBCMT:utility_desktop.obj
 0001:000a8750       __security_init_cookie     00000001400a9750 f   LIBCMT:gs_support.obj
 0001:000a87fc       _get_startup_file_mode     00000001400a97fc f   LIBCMT:file_mode.obj
 0001:000a8804       ?__scrt_initialize_type_info@@YAXXZ 00000001400a9804 f   LIBCMT:tncleanup.obj
 0001:000a8814       __scrt_initialize_default_local_stdio_options 00000001400a9814 f   LIBCMT:default_local_stdio_options.obj
 0001:000a8830       __scrt_is_user_matherr_present 00000001400a9830 f   LIBCMT:matherr_detection.obj
 0001:000a883c       __scrt_get_dyn_tls_init_callback 00000001400a983c f   LIBCMT:dyn_tls_init.obj
 0001:000a8844       __scrt_get_dyn_tls_dtor_callback 00000001400a9844 f   LIBCMT:dyn_tls_dtor.obj
 0001:000a884c       _RTC_Initialize            00000001400a984c f   LIBCMT:_initsect_.obj
 0001:000a8888       _RTC_Terminate             00000001400a9888 f   LIBCMT:_initsect_.obj
 0001:000a88d0       ??$_CallSETranslator@V__FrameHandler3@@@@YAHPEAUEHExceptionRecord@@PEA_KPEAU_CONTEXT@@PEAU_xDISPATCHER_CONTEXT@@PEBU_s_FuncInfo@@K1@Z 00000001400a98d0 f i libvcruntime:risctrnsctrl.obj
 0001:000a8924       ?CatchTryBlock@__FrameHandler3@@SAPEBU_s_TryBlockMapEntry@@PEBU_s_FuncInfo@@H@Z 00000001400a9924 f   libvcruntime:risctrnsctrl.obj
 0001:000a897c       ?ExecutionInCatch@__FrameHandler3@@SA_NPEAU_xDISPATCHER_CONTEXT@@PEBU_s_FuncInfo@@@Z 00000001400a997c f   libvcruntime:risctrnsctrl.obj
 0001:000a89a8       ?FrameUnwindToEmptyState@__FrameHandler3@@SAXPEA_KPEAU_xDISPATCHER_CONTEXT@@PEBU_s_FuncInfo@@@Z 00000001400a99a8 f   libvcruntime:risctrnsctrl.obj
 0001:000a8a0c       ?GetEstablisherFrame@__FrameHandler3@@SAPEA_KPEA_KPEAU_xDISPATCHER_CONTEXT@@PEBU_s_FuncInfo@@0@Z 00000001400a9a0c f   libvcruntime:risctrnsctrl.obj
 0001:000a8ad8       ?GetRangeOfTrysToCheck@__FrameHandler3@@SA?AU?$pair@Viterator@TryBlockMap@__FrameHandler3@@V123@@std@@AEAVTryBlockMap@1@HH@Z 00000001400a9ad8 f   libvcruntime:risctrnsctrl.obj
 0001:000a8c34       ?UnwindNestedFrames@__FrameHandler3@@SAXPEA_KPEAUEHExceptionRecord@@PEAU_CONTEXT@@0PEAXPEBU_s_FuncInfo@@HHPEBU_s_HandlerType@@PEAU_xDISPATCHER_CONTEXT@@E@Z 00000001400a9c34 f   libvcruntime:risctrnsctrl.obj
 0001:000a8d58       _CreateFrameInfo           00000001400a9d58 f   libvcruntime:risctrnsctrl.obj
 0001:000a8d94       _FindAndUnlinkFrame        00000001400a9d94 f   libvcruntime:risctrnsctrl.obj
 0001:000a8de8       _GetImageBase              00000001400a9de8 f   libvcruntime:risctrnsctrl.obj
 0001:000a8dfc       _GetThrowImageBase         00000001400a9dfc f   libvcruntime:risctrnsctrl.obj
 0001:000a8e10       _SetImageBase              00000001400a9e10 f   libvcruntime:risctrnsctrl.obj
 0001:000a8e28       _SetThrowImageBase         00000001400a9e28 f   libvcruntime:risctrnsctrl.obj
 0001:000a8e40       __CxxFrameHandler3         00000001400a9e40 f   libvcruntime:risctrnsctrl.obj
 0001:000a8ec0       strrchr                    00000001400a9ec0 f   libvcruntime:strrchr.obj
 0001:000a900c       _purecall                  00000001400aa00c f   libvcruntime:purevirt.obj
 0001:000a903c       strstr                     00000001400aa03c f   libvcruntime:strstr.obj
 0001:000a923c       strchr                     00000001400aa23c f   libvcruntime:strchr.obj
 0001:000a92c8       __C_specific_handler       00000001400aa2c8 f   libvcruntime:_riscchandler_.obj
 0001:000a94f0       memset_repmovs             00000001400aa4f0 f   libvcruntime:memset.obj
 0001:000a9510       memset                     00000001400aa510 f   libvcruntime:memset.obj
 0001:000a96b0       memcpy_repmovs             00000001400aa6b0 f   libvcruntime:memcpy.obj
 0001:000a96d0       memmove                    00000001400aa6d0 f   libvcruntime:memcpy.obj
 0001:000a96d0       memcpy                     00000001400aa6d0 f   libvcruntime:memcpy.obj
 0001:000a9b08       __vcrt_initialize          00000001400aab08 f   libvcruntime:initialization.obj
 0001:000a9b3c       __vcrt_uninitialize        00000001400aab3c f   libvcruntime:initialization.obj
 0001:000a9b5c       __DestructExceptionObject  00000001400aab5c f   libvcruntime:ehhelpers.obj
 0001:000a9bd0       ?_CallMemberFunction0@@YAXQEAX0@Z 00000001400aabd0 f i libvcruntime:ehhelpers.obj
 0001:000a9bd4       _IsExceptionObjectToBeDestroyed 00000001400aabd4 f   libvcruntime:ehhelpers.obj
 0001:000a9c04       __AdjustPointer            00000001400aac04 f   libvcruntime:ehhelpers.obj
 0001:000a9c28       __FrameUnwindFilter        00000001400aac28 f   libvcruntime:ehhelpers.obj
 0001:000a9c74       __std_terminate            00000001400aac74 f   libvcruntime:ehhelpers.obj
 0001:000a9c80       __std_type_info_compare    00000001400aac80 f   libvcruntime:std_type_info.obj
 0001:000a9ca8       __vcrt_freefls             00000001400aaca8 f   libvcruntime:per_thread_data.obj
 0001:000a9cc8       __vcrt_getptd              00000001400aacc8 f   libvcruntime:per_thread_data.obj
 0001:000a9ce4       __vcrt_getptd_noexit       00000001400aace4 f   libvcruntime:per_thread_data.obj
 0001:000a9db0       __vcrt_initialize_ptd      00000001400aadb0 f   libvcruntime:per_thread_data.obj
 0001:000a9e04       __vcrt_uninitialize_ptd    00000001400aae04 f   libvcruntime:per_thread_data.obj
 0001:000a9e28       ?GetCurrentState@__FrameHandler3@@SAHPEA_KPEAU_xDISPATCHER_CONTEXT@@PEBU_s_FuncInfo@@@Z 00000001400aae28 f   libvcruntime:ehstate.obj
 0001:000a9e50       ?GetUnwindTryBlock@__FrameHandler3@@SAHPEA_KPEAU_xDISPATCHER_CONTEXT@@PEBU_s_FuncInfo@@@Z 00000001400aae50 f   libvcruntime:ehstate.obj
 0001:000a9e7c       ?SetState@__FrameHandler3@@SAXPEA_KPEBU_s_FuncInfo@@H@Z 00000001400aae7c f   libvcruntime:ehstate.obj
 0001:000a9e88       ?SetUnwindTryBlock@__FrameHandler3@@SAXPEA_KPEAU_xDISPATCHER_CONTEXT@@PEBU_s_FuncInfo@@H@Z 00000001400aae88 f   libvcruntime:ehstate.obj
 0001:000a9ec4       ?StateFromControlPc@__FrameHandler3@@SAHPEBU_s_FuncInfo@@PEAU_xDISPATCHER_CONTEXT@@@Z 00000001400aaec4 f   libvcruntime:ehstate.obj
 0001:000a9ecc       ?StateFromIp@__FrameHandler3@@SAHPEBU_s_FuncInfo@@PEAU_xDISPATCHER_CONTEXT@@_K@Z 00000001400aaecc f   libvcruntime:ehstate.obj
 0001:000aa958       ??$TypeMatchHelper@$$CBU_s_HandlerType@@@@YAHPEBU_s_HandlerType@@PEBU_s_CatchableType@@PEBU_s_ThrowInfo@@@Z 00000001400ab958 f i libvcruntime:frame.obj
 0001:000aaa9c       ??$__InternalCxxFrameHandler@V__FrameHandler3@@@@YA?AW4_EXCEPTION_DISPOSITION@@PEAUEHExceptionRecord@@PEA_KPEAU_CONTEXT@@PEAU_xDISPATCHER_CONTEXT@@PEBU_s_FuncInfo@@H1E@Z 00000001400aba9c f i libvcruntime:frame.obj
 0001:000aace4       ??0bad_exception@std@@QEAA@AEBV01@@Z 00000001400abce4 f i libvcruntime:frame.obj
 0001:000aad24       ??0bad_exception@std@@QEAA@XZ 00000001400abd24 f i libvcruntime:frame.obj
 0001:000aad44       ??0exception@std@@QEAA@AEBV01@@Z 00000001400abd44 f i libvcruntime:frame.obj
 0001:000aad7c       ??1bad_exception@std@@UEAA@XZ 00000001400abd7c f i libvcruntime:frame.obj
 0001:000aad90       ??_Ebad_exception@std@@UEAAPEAXI@Z 00000001400abd90 f i libvcruntime:frame.obj
 0001:000aad90       ??_Gexception@std@@UEAAPEAXI@Z 00000001400abd90 f i libvcruntime:frame.obj
 0001:000aad90       ??_Gbad_exception@std@@UEAAPEAXI@Z 00000001400abd90 f i libvcruntime:frame.obj
 0001:000aad90       ??_Eexception@std@@UEAAPEAXI@Z 00000001400abd90 f i libvcruntime:frame.obj
 0001:000aadd4       ?CxxCallCatchBlock@__FrameHandler3@@SAPEAXPEAU_EXCEPTION_RECORD@@@Z 00000001400abdd4 f   libvcruntime:frame.obj
 0001:000ab048       ?FrameUnwindToState@__FrameHandler3@@SAXPEA_KPEAU_xDISPATCHER_CONTEXT@@PEBU_s_FuncInfo@@H@Z 00000001400ac048 f   libvcruntime:frame.obj
 0001:000ab1dc       ?GetHandlerSearchState@__FrameHandler3@@SAHPEA_KPEAU_xDISPATCHER_CONTEXT@@PEBU_s_FuncInfo@@@Z 00000001400ac1dc f i libvcruntime:frame.obj
 0001:000ab3e0       ?_CallMemberFunction1@@YAXQEAX00@Z 00000001400ac3e0 f i libvcruntime:frame.obj
 0001:000ab3ec       ?_CallMemberFunction2@@YAXQEAX00H@Z 00000001400ac3ec f i libvcruntime:frame.obj
 0001:000ab3fc       ?what@exception@std@@UEBAPEBDXZ 00000001400ac3fc f i libvcruntime:frame.obj
 0001:000ab410       __vcrt_initialize_pure_virtual_call_handler 00000001400ac410 f   libvcruntime:purevirt_data.obj
 0001:000ab430       _NLG_Notify                00000001400ac430 f   libvcruntime:_notify_.obj
 0001:000ab450       __NLG_Dispatch2            00000001400ac450 f   libvcruntime:_notify_.obj
 0001:000ab460       __NLG_Return2              00000001400ac460 f   libvcruntime:_notify_.obj
 0001:000ab464       __except_validate_context_record 00000001400ac464 f   libvcruntime:jbcxrval.obj
 0001:000ab49c       __vcrt_initialize_locks    00000001400ac49c f   libvcruntime:locks.obj
 0001:000ab4e4       __vcrt_uninitialize_locks  00000001400ac4e4 f   libvcruntime:locks.obj
 0001:000ab6f4       __vcrt_FlsAlloc            00000001400ac6f4 f   libvcruntime:winapi_downlevel.obj
 0001:000ab73c       __vcrt_FlsFree             00000001400ac73c f   libvcruntime:winapi_downlevel.obj
 0001:000ab784       __vcrt_FlsGetValue         00000001400ac784 f   libvcruntime:winapi_downlevel.obj
 0001:000ab7cc       __vcrt_FlsSetValue         00000001400ac7cc f   libvcruntime:winapi_downlevel.obj
 0001:000ab820       __vcrt_InitializeCriticalSectionEx 00000001400ac820 f   libvcruntime:winapi_downlevel.obj
 0001:000ab884       __vcrt_initialize_winapi_thunks 00000001400ac884 f   libvcruntime:winapi_downlevel.obj
 0001:000ab8b4       __vcrt_uninitialize_winapi_thunks 00000001400ac8b4 f   libvcruntime:winapi_downlevel.obj
 0001:000ab910       _CallSettingFrame          00000001400ac910 f   libvcruntime:handlers.obj
 0001:000ab960       _CallSettingFrameEncoded   00000001400ac960 f   libvcruntime:handlers.obj
 0001:000ab9a8       __std_exception_copy       00000001400ac9a8 f   libvcruntime:std_exception.obj
 0001:000aba38       __std_exception_destroy    00000001400aca38 f   libvcruntime:std_exception.obj
 0001:000aba60       _CxxThrowException         00000001400aca60 f   libvcruntime:throw.obj
 0001:000abc6c       _beginthreadex             00000001400acc6c f   libucrt:thread.obj
 0001:000abd40       _endthreadex               00000001400acd40 f   libucrt:thread.obj
 0001:000abd4c       ??$?RV<lambda_aa279a7bcb127014629d5b1d62c7325d>@@AEAV<lambda_0a64b6a4deda75c01876f29c44fc5eb3>@@V<lambda_3323e69fbefe9d1a11713e670d47cdfa>@@@?$__crt_seh_guarded_call@H@@QEAAH$$QEAV<lambda_aa279a7bcb127014629d5b1d62c7325d>@@AEAV<lambda_0a64b6a4deda75c01876f29c44fc5eb3>@@$$QEAV<lambda_3323e69fbefe9d1a11713e670d47cdfa>@@@Z 00000001400acd4c f i libucrt:output.obj
 0001:000abd8c       ??$ensure_buffer_is_big_enough@D@formatting_buffer@__crt_stdio_output@@QEAA_N_K@Z 00000001400acd8c f i libucrt:output.obj
 0001:000abe38       ??$is_wide_character_specifier@D@__crt_stdio_output@@YA_N_KDW4length_modifier@0@@Z 00000001400ace38 f i libucrt:output.obj
 0001:000abe68       ??$type_case_integer_parse_into_buffer@I@?$output_processor@DV?$string_output_adapter@D@__crt_stdio_output@@V?$standard_base@DV?$string_output_adapter@D@__crt_stdio_output@@@2@@__crt_stdio_output@@AEAAXII_N@Z 00000001400ace68 f i libucrt:output.obj
 0001:000abe68       ??$type_case_integer_parse_into_buffer@I@?$output_processor@DV?$stream_output_adapter@D@__crt_stdio_output@@V?$standard_base@DV?$stream_output_adapter@D@__crt_stdio_output@@@2@@__crt_stdio_output@@AEAAXII_N@Z 00000001400ace68 f i libucrt:output.obj
 0001:000abf04       ??$type_case_integer_parse_into_buffer@_K@?$output_processor@DV?$string_output_adapter@D@__crt_stdio_output@@V?$standard_base@DV?$string_output_adapter@D@__crt_stdio_output@@@2@@__crt_stdio_output@@AEAAX_KI_N@Z 00000001400acf04 f i libucrt:output.obj
 0001:000abf04       ??$type_case_integer_parse_into_buffer@_K@?$output_processor@DV?$stream_output_adapter@D@__crt_stdio_output@@V?$standard_base@DV?$stream_output_adapter@D@__crt_stdio_output@@@2@@__crt_stdio_output@@AEAAX_KI_N@Z 00000001400acf04 f i libucrt:output.obj
 0001:000abfa0       ??$write_multiple_characters@V?$stream_output_adapter@D@__crt_stdio_output@@D@__crt_stdio_output@@YAXAEBV?$stream_output_adapter@D@0@DHQEAH@Z 00000001400acfa0 f i libucrt:output.obj
 0001:000ac024       ??$write_multiple_characters@V?$string_output_adapter@D@__crt_stdio_output@@D@__crt_stdio_output@@YAXAEBV?$string_output_adapter@D@0@DHQEAH@Z 00000001400ad024 f i libucrt:output.obj
 0001:000ac080       ??0?$output_processor@DV?$stream_output_adapter@D@__crt_stdio_output@@V?$standard_base@DV?$stream_output_adapter@D@__crt_stdio_output@@@2@@__crt_stdio_output@@QEAA@AEBV?$stream_output_adapter@D@1@_KQEBDQEAU__crt_locale_pointers@@QEAD@Z 00000001400ad080 f i libucrt:output.obj
 0001:000ac080       ??0?$output_processor@DV?$string_output_adapter@D@__crt_stdio_output@@V?$standard_base@DV?$string_output_adapter@D@__crt_stdio_output@@@2@@__crt_stdio_output@@QEAA@AEBV?$string_output_adapter@D@1@_KQEBDQEAU__crt_locale_pointers@@QEAD@Z 00000001400ad080 f i libucrt:output.obj
 0001:000ac0fc       ??0_LocaleUpdate@@QEAA@QEAU__crt_locale_pointers@@@Z 00000001400ad0fc f i libucrt:output.obj
 0001:000ac27c       ?force_decimal_point@__crt_stdio_output@@YAXPEADQEAU__crt_locale_pointers@@@Z 00000001400ad27c f i libucrt:output.obj
 0001:000ac2ec       ?parse_int_from_format_string@?$output_processor@DV?$string_output_adapter@D@__crt_stdio_output@@V?$standard_base@DV?$string_output_adapter@D@__crt_stdio_output@@@2@@__crt_stdio_output@@AEAA_NQEAH@Z 00000001400ad2ec f i libucrt:output.obj
 0001:000ac2ec       ?parse_int_from_format_string@?$output_processor@DV?$stream_output_adapter@D@__crt_stdio_output@@V?$standard_base@DV?$stream_output_adapter@D@__crt_stdio_output@@@2@@__crt_stdio_output@@AEAA_NQEAH@Z 00000001400ad2ec f i libucrt:output.obj
 0001:000ac370       ?process@?$output_processor@DV?$stream_output_adapter@D@__crt_stdio_output@@V?$standard_base@DV?$stream_output_adapter@D@__crt_stdio_output@@@2@@__crt_stdio_output@@QEAAHXZ 00000001400ad370 f i libucrt:output.obj
 0001:000ac580       ?process@?$output_processor@DV?$string_output_adapter@D@__crt_stdio_output@@V?$standard_base@DV?$string_output_adapter@D@__crt_stdio_output@@@2@@__crt_stdio_output@@QEAAHXZ 00000001400ad580 f i libucrt:output.obj
 0001:000ac784       ?state_case_normal@?$output_processor@DV?$stream_output_adapter@D@__crt_stdio_output@@V?$standard_base@DV?$stream_output_adapter@D@__crt_stdio_output@@@2@@__crt_stdio_output@@AEAA_NXZ 00000001400ad784 f i libucrt:output.obj
 0001:000ac7f4       ?state_case_normal@?$output_processor@DV?$string_output_adapter@D@__crt_stdio_output@@V?$standard_base@DV?$string_output_adapter@D@__crt_stdio_output@@@2@@__crt_stdio_output@@AEAA_NXZ 00000001400ad7f4 f i libucrt:output.obj
 0001:000ac868       ?state_case_normal_tchar@?$output_processor@DV?$stream_output_adapter@D@__crt_stdio_output@@V?$standard_base@DV?$stream_output_adapter@D@__crt_stdio_output@@@2@@__crt_stdio_output@@AEAA_ND@Z 00000001400ad868 f i libucrt:output.obj
 0001:000ac8fc       ?state_case_normal_tchar@?$output_processor@DV?$string_output_adapter@D@__crt_stdio_output@@V?$standard_base@DV?$string_output_adapter@D@__crt_stdio_output@@@2@@__crt_stdio_output@@AEAA_ND@Z 00000001400ad8fc f i libucrt:output.obj
 0001:000ac994       ?state_case_size@?$output_processor@DV?$stream_output_adapter@D@__crt_stdio_output@@V?$standard_base@DV?$stream_output_adapter@D@__crt_stdio_output@@@2@@__crt_stdio_output@@AEAA_NXZ 00000001400ad994 f i libucrt:output.obj
 0001:000acb10       ?state_case_size@?$output_processor@DV?$string_output_adapter@D@__crt_stdio_output@@V?$standard_base@DV?$string_output_adapter@D@__crt_stdio_output@@@2@@__crt_stdio_output@@AEAA_NXZ 00000001400adb10 f i libucrt:output.obj
 0001:000acc8c       ?state_case_type@?$output_processor@DV?$stream_output_adapter@D@__crt_stdio_output@@V?$standard_base@DV?$stream_output_adapter@D@__crt_stdio_output@@@2@@__crt_stdio_output@@AEAA_NXZ 00000001400adc8c f i libucrt:output.obj
 0001:000acf08       ?state_case_type@?$output_processor@DV?$string_output_adapter@D@__crt_stdio_output@@V?$standard_base@DV?$string_output_adapter@D@__crt_stdio_output@@@2@@__crt_stdio_output@@AEAA_NXZ 00000001400adf08 f i libucrt:output.obj
 0001:000ad184       ?type_case_Z@?$output_processor@DV?$string_output_adapter@D@__crt_stdio_output@@V?$standard_base@DV?$string_output_adapter@D@__crt_stdio_output@@@2@@__crt_stdio_output@@AEAA_NXZ 00000001400ae184 f i libucrt:output.obj
 0001:000ad184       ?type_case_Z@?$output_processor@DV?$stream_output_adapter@D@__crt_stdio_output@@V?$standard_base@DV?$stream_output_adapter@D@__crt_stdio_output@@@2@@__crt_stdio_output@@AEAA_NXZ 00000001400ae184 f i libucrt:output.obj
 0001:000ad204       ?type_case_a@?$output_processor@DV?$string_output_adapter@D@__crt_stdio_output@@V?$standard_base@DV?$string_output_adapter@D@__crt_stdio_output@@@2@@__crt_stdio_output@@AEAA_NXZ 00000001400ae204 f i libucrt:output.obj
 0001:000ad204       ?type_case_a@?$output_processor@DV?$stream_output_adapter@D@__crt_stdio_output@@V?$standard_base@DV?$stream_output_adapter@D@__crt_stdio_output@@@2@@__crt_stdio_output@@AEAA_NXZ 00000001400ae204 f i libucrt:output.obj
 0001:000ad420       ?type_case_c_tchar@?$output_processor@DV?$stream_output_adapter@D@__crt_stdio_output@@V?$standard_base@DV?$stream_output_adapter@D@__crt_stdio_output@@@2@@__crt_stdio_output@@AEAA_ND@Z 00000001400ae420 f i libucrt:output.obj
 0001:000ad420       ?type_case_c_tchar@?$output_processor@DV?$string_output_adapter@D@__crt_stdio_output@@V?$standard_base@DV?$string_output_adapter@D@__crt_stdio_output@@@2@@__crt_stdio_output@@AEAA_ND@Z 00000001400ae420 f i libucrt:output.obj
 0001:000ad4d4       ?type_case_integer@?$output_processor@DV?$stream_output_adapter@D@__crt_stdio_output@@V?$standard_base@DV?$stream_output_adapter@D@__crt_stdio_output@@@2@@__crt_stdio_output@@AEAA_NI_N@Z 00000001400ae4d4 f i libucrt:output.obj
 0001:000ad4d4       ?type_case_integer@?$output_processor@DV?$string_output_adapter@D@__crt_stdio_output@@V?$standard_base@DV?$string_output_adapter@D@__crt_stdio_output@@@2@@__crt_stdio_output@@AEAA_NI_N@Z 00000001400ae4d4 f i libucrt:output.obj
 0001:000ad674       ?type_case_n@?$output_processor@DV?$stream_output_adapter@D@__crt_stdio_output@@V?$standard_base@DV?$stream_output_adapter@D@__crt_stdio_output@@@2@@__crt_stdio_output@@AEAA_NXZ 00000001400ae674 f i libucrt:output.obj
 0001:000ad674       ?type_case_n@?$output_processor@DV?$string_output_adapter@D@__crt_stdio_output@@V?$standard_base@DV?$string_output_adapter@D@__crt_stdio_output@@@2@@__crt_stdio_output@@AEAA_NXZ 00000001400ae674 f i libucrt:output.obj
 0001:000ad750       ?type_case_s@?$output_processor@DV?$stream_output_adapter@D@__crt_stdio_output@@V?$standard_base@DV?$stream_output_adapter@D@__crt_stdio_output@@@2@@__crt_stdio_output@@AEAA_NXZ 00000001400ae750 f i libucrt:output.obj
 0001:000ad750       ?type_case_s@?$output_processor@DV?$string_output_adapter@D@__crt_stdio_output@@V?$standard_base@DV?$string_output_adapter@D@__crt_stdio_output@@@2@@__crt_stdio_output@@AEAA_NXZ 00000001400ae750 f i libucrt:output.obj
 0001:000ad7e0       ?validate_stream_is_ansi_if_required@?$__acrt_stdio_char_traits@D@@SA_NQEAU_iobuf@@@Z 00000001400ae7e0 f i libucrt:output.obj
 0001:000ad86c       ?write_stored_string_tchar@?$output_processor@DV?$stream_output_adapter@D@__crt_stdio_output@@V?$standard_base@DV?$stream_output_adapter@D@__crt_stdio_output@@@2@@__crt_stdio_output@@AEAA_ND@Z 00000001400ae86c f i libucrt:output.obj
 0001:000ad944       ?write_stored_string_tchar@?$output_processor@DV?$string_output_adapter@D@__crt_stdio_output@@V?$standard_base@DV?$string_output_adapter@D@__crt_stdio_output@@@2@@__crt_stdio_output@@AEAA_ND@Z 00000001400ae944 f i libucrt:output.obj
 0001:000ada1c       ?write_string@?$stream_output_adapter@D@__crt_stdio_output@@QEBAXQEBDHQEAH1@Z 00000001400aea1c f i libucrt:output.obj
 0001:000adb14       ?write_string@?$string_output_adapter@D@__crt_stdio_output@@QEBAXQEBDHQEAH1@Z 00000001400aeb14 f i libucrt:output.obj
 0001:000adbd0       __stdio_common_vfprintf    00000001400aebd0 f   libucrt:output.obj
 0001:000adc5c       __stdio_common_vsprintf    00000001400aec5c f   libucrt:output.obj
 0001:000ade90       strpbrk                    00000001400aee90 f   libucrt:strpbrk.obj
 0001:000adf30       __acrt_initialize_stdio    00000001400aef30 f   libucrt:_file.obj
 0001:000ae050       __acrt_iob_func            00000001400af050 f   libucrt:_file.obj
 0001:000ae064       __acrt_uninitialize_stdio  00000001400af064 f   libucrt:_file.obj
 0001:000ae0c0       _lock_file                 00000001400af0c0 f   libucrt:_file.obj
 0001:000ae0cc       _unlock_file               00000001400af0cc f   libucrt:_file.obj
 0001:000ae0d8       remove                     00000001400af0d8 f   libucrt:unlink.obj
 0001:000ae124       rename                     00000001400af124 f   libucrt:rename.obj
 0001:000ae244       _fclose_nolock             00000001400af244 f   libucrt:fclose.obj
 0001:000ae2c8       fclose                     00000001400af2c8 f   libucrt:fclose.obj
 0001:000ae404       fopen                      00000001400af404 f   libucrt:fopen.obj
 0001:000ae410       ??$?RV<lambda_7a5ef57ff966f610505f1d28a3d40618>@@AEAV<lambda_b721fa326cdb32351d23dfa67958c160>@@V<lambda_5e0fb27672408a07956fe59e48ccb2aa>@@@?$__crt_seh_guarded_call@H@@QEAAH$$QEAV<lambda_7a5ef57ff966f610505f1d28a3d40618>@@AEAV<lambda_b721fa326cdb32351d23dfa67958c160>@@$$QEAV<lambda_5e0fb27672408a07956fe59e48ccb2aa>@@@Z 00000001400af410 f i libucrt:setvbuf.obj
 0001:000ae540       setvbuf                    00000001400af540 f   libucrt:setvbuf.obj
 0001:000ae5e0       ??$?RV<lambda_5d4c3fee44080f75d5d9762853974fe0>@@AEAV<lambda_532e024f4337e6fc7ad266c2bef9f4ed>@@V<lambda_c87bdc10097eb2402edb8ba9bdf0697b>@@@?$__crt_seh_guarded_call@_K@@QEAA_K$$QEAV<lambda_5d4c3fee44080f75d5d9762853974fe0>@@AEAV<lambda_532e024f4337e6fc7ad266c2bef9f4ed>@@$$QEAV<lambda_c87bdc10097eb2402edb8ba9bdf0697b>@@@Z 00000001400af5e0 f i libucrt:fwrite.obj
 0001:000ae684       _fwrite_nolock             00000001400af684 f   libucrt:fwrite.obj
 0001:000ae820       fwrite                     00000001400af820 f   libucrt:fwrite.obj
 0001:000ae8a4       isalpha                    00000001400af8a4 f i libucrt:_ctype.obj
 0001:000ae920       isdigit                    00000001400af920 f i libucrt:_ctype.obj
 0001:000ae994       isspace                    00000001400af994 f i libucrt:_ctype.obj
 0001:000aea08       isxdigit                   00000001400afa08 f i libucrt:_ctype.obj
 0001:000aecb4       __acrt_initialize_thread_local_exit_callback 00000001400afcb4 f   libucrt:exit.obj
 0001:000aecbc       _c_exit                    00000001400afcbc f   libucrt:exit.obj
 0001:000aeccc       _cexit                     00000001400afccc f   libucrt:exit.obj
 0001:000aecdc       _exit                      00000001400afcdc f   libucrt:exit.obj
 0001:000aece8       _register_thread_local_exe_atexit_callback 00000001400afce8 f   libucrt:exit.obj
 0001:000aed2c       exit                       00000001400afd2c f   libucrt:exit.obj
 0001:000aed38       ??$is_overflow_condition@K@__crt_strtox@@YA_NIK@Z 00000001400afd38 f i libucrt:atox.obj
 0001:000aed64       ??$is_overflow_condition@_K@__crt_strtox@@YA_NI_K@Z 00000001400afd64 f i libucrt:atox.obj
 0001:000aed9c       ??$make_c_string_character_source@DPEAPEAD@__crt_strtox@@YA?AV?$c_string_character_source@D@0@QEBDQEAPEAD@Z 00000001400afd9c f i libucrt:strtod.obj
 0001:000aed9c       ??$make_c_string_character_source@D$$T@__crt_strtox@@YA?AV?$c_string_character_source@D@0@QEBD$$T@Z 00000001400afd9c f i libucrt:atox.obj
 0001:000aedb0       ??$parse_integer@KV?$c_string_character_source@D@__crt_strtox@@@__crt_strtox@@YAKQEAU__crt_locale_pointers@@V?$c_string_character_source@D@0@H_N@Z 00000001400afdb0 f i libucrt:atox.obj
 0001:000af0c4       ??$parse_integer@_KV?$c_string_character_source@D@__crt_strtox@@@__crt_strtox@@YA_KQEAU__crt_locale_pointers@@V?$c_string_character_source@D@0@H_N@Z 00000001400b00c4 f i libucrt:atox.obj
 0001:000af3f8       atol                       00000001400b03f8 f   libucrt:atox.obj
 0001:000af3f8       atoi                       00000001400b03f8 f   libucrt:atox.obj
 0001:000af424       ??$make_input_adapter_character_source@V?$string_input_adapter@D@__crt_stdio_input@@@__crt_strtox@@YA?AV?$input_adapter_character_source@V?$string_input_adapter@D@__crt_stdio_input@@@0@QEAV?$string_input_adapter@D@__crt_stdio_input@@_KQEA_N@Z 00000001400b0424 f i libucrt:input.obj
 0001:000af444       ??$parse_floating_point@V?$input_adapter_character_source@V?$string_input_adapter@D@__crt_stdio_input@@@__crt_strtox@@M@__crt_strtox@@YA?AW4SLD_STATUS@@QEAU__crt_locale_pointers@@V?$input_adapter_character_source@V?$string_input_adapter@D@__crt_stdio_input@@@0@QEAM@Z 00000001400b0444 f i libucrt:input.obj
 0001:000af4ec       ??$parse_floating_point@V?$input_adapter_character_source@V?$string_input_adapter@D@__crt_stdio_input@@@__crt_strtox@@N@__crt_strtox@@YA?AW4SLD_STATUS@@QEAU__crt_locale_pointers@@V?$input_adapter_character_source@V?$string_input_adapter@D@__crt_stdio_input@@@0@QEAN@Z 00000001400b04ec f i libucrt:input.obj
 0001:000af594       ??$parse_floating_point_from_source@V?$input_adapter_character_source@V?$string_input_adapter@D@__crt_stdio_input@@@__crt_strtox@@@__crt_strtox@@YA?AW4floating_point_parse_result@0@QEAU__crt_locale_pointers@@AEAV?$input_adapter_character_source@V?$string_input_adapter@D@__crt_stdio_input@@@0@AEAUfloating_point_string@0@@Z 00000001400b0594 f i libucrt:input.obj
 0001:000afd74       ??$parse_floating_point_possible_infinity@DV?$input_adapter_character_source@V?$string_input_adapter@D@__crt_stdio_input@@@__crt_strtox@@_K@__crt_strtox@@YA?AW4floating_point_parse_result@0@AEADAEAV?$input_adapter_character_source@V?$string_input_adapter@D@__crt_stdio_input@@@0@_K@Z 00000001400b0d74 f i libucrt:input.obj
 0001:000aff24       ??$parse_floating_point_possible_nan@DV?$input_adapter_character_source@V?$string_input_adapter@D@__crt_stdio_input@@@__crt_strtox@@_K@__crt_strtox@@YA?AW4floating_point_parse_result@0@AEADAEAV?$input_adapter_character_source@V?$string_input_adapter@D@__crt_stdio_input@@@0@_K@Z 00000001400b0f24 f i libucrt:input.obj
 0001:000b0194       ??$parse_floating_point_possible_nan_is_ind@DV?$input_adapter_character_source@V?$string_input_adapter@D@__crt_stdio_input@@@__crt_strtox@@@__crt_strtox@@YA_NAEADAEAV?$input_adapter_character_source@V?$string_input_adapter@D@__crt_stdio_input@@@0@@Z 00000001400b1194 f i libucrt:input.obj
 0001:000b020c       ??$parse_floating_point_possible_nan_is_snan@DV?$input_adapter_character_source@V?$string_input_adapter@D@__crt_stdio_input@@@__crt_strtox@@@__crt_strtox@@YA_NAEADAEAV?$input_adapter_character_source@V?$string_input_adapter@D@__crt_stdio_input@@@0@@Z 00000001400b120c f i libucrt:input.obj
 0001:000b0284       ??$parse_floating_point_write_result@M@__crt_strtox@@YA?AW4SLD_STATUS@@W4floating_point_parse_result@0@AEBUfloating_point_string@0@QEAM@Z 00000001400b1284 f i libucrt:input.obj
 0001:000b039c       ??$parse_floating_point_write_result@N@__crt_strtox@@YA?AW4SLD_STATUS@@W4floating_point_parse_result@0@AEBUfloating_point_string@0@QEAN@Z 00000001400b139c f i libucrt:input.obj
 0001:000b04c4       ??$parse_integer@_KV?$input_adapter_character_source@V?$string_input_adapter@D@__crt_stdio_input@@@__crt_strtox@@@__crt_strtox@@YA_KQEAU__crt_locale_pointers@@V?$input_adapter_character_source@V?$string_input_adapter@D@__crt_stdio_input@@@0@H_N@Z 00000001400b14c4 f i libucrt:input.obj
 0001:000b0958       ??$process_floating_point_specifier_t@M@?$input_processor@DV?$string_input_adapter@D@__crt_stdio_input@@@__crt_stdio_input@@AEAA_NXZ 00000001400b1958 f i libucrt:input.obj
 0001:000b0a00       ??$process_floating_point_specifier_t@N@?$input_processor@DV?$string_input_adapter@D@__crt_stdio_input@@@__crt_stdio_input@@AEAA_NXZ 00000001400b1a00 f i libucrt:input.obj
 0001:000b0aa8       ??$process_string_specifier_tchar@D@?$input_processor@DV?$string_input_adapter@D@__crt_stdio_input@@@__crt_stdio_input@@AEAA_NW4conversion_mode@1@D@Z 00000001400b1aa8 f i libucrt:input.obj
 0001:000b0c70       ??$process_string_specifier_tchar@_W@?$input_processor@DV?$string_input_adapter@D@__crt_stdio_input@@@__crt_stdio_input@@AEAA_NW4conversion_mode@1@_W@Z 00000001400b1c70 f i libucrt:input.obj
 0001:000b0e70       ??$skip_whitespace@Vstring_input_adapter@__crt_stdio_input@@D@__crt_stdio_input@@YAHAEAV?$string_input_adapter@D@0@QEAU__crt_locale_pointers@@@Z 00000001400b1e70 f i libucrt:input.obj
 0001:000b0f60       ?advance@?$format_string_parser@D@__crt_stdio_input@@QEAA_NXZ 00000001400b1f60 f i libucrt:input.obj
 0001:000b1130       ?as_double@floating_point_value@__crt_strtox@@QEBAAEANXZ 00000001400b2130 f i libucrt:input.obj
 0001:000b116c       ?as_float@floating_point_value@__crt_strtox@@QEBAAEAMXZ 00000001400b216c f i libucrt:input.obj
 0001:000b11a8       ?assemble_floating_point_value@__crt_strtox@@YA?AW4SLD_STATUS@@_KH_N1AEBVfloating_point_value@1@@Z 00000001400b21a8 f i libucrt:input.obj
 0001:000b155c       ?assemble_floating_point_value_from_big_integer@__crt_strtox@@YA?AW4SLD_STATUS@@AEBUbig_integer@1@I_N1AEBVfloating_point_value@1@@Z 00000001400b255c f i libucrt:input.obj
 0001:000b16e8       ?convert_decimal_string_to_floating_type_common@__crt_strtox@@YA?AW4SLD_STATUS@@AEBUfloating_point_string@1@AEBVfloating_point_value@1@@Z 00000001400b26e8 f i libucrt:input.obj
 0001:000b34ac       ?convert_hexadecimal_string_to_floating_type_common@__crt_strtox@@YA?AW4SLD_STATUS@@AEBUfloating_point_string@1@AEBVfloating_point_value@1@@Z 00000001400b44ac f i libucrt:input.obj
 0001:000b3560       ?divide@__crt_strtox@@YA_KAEAUbig_integer@1@AEBU21@@Z 00000001400b4560 f i libucrt:input.obj
 0001:000b3a30       ?length@?$format_string_parser@D@__crt_stdio_input@@QEBA_KXZ 00000001400b4a30 f i libucrt:input.obj
 0001:000b3acc       ?process@?$input_processor@DV?$string_input_adapter@D@__crt_stdio_input@@@__crt_stdio_input@@QEAAHXZ 00000001400b4acc f i libucrt:input.obj
 0001:000b3bbc       ?process_conversion_specifier@?$input_processor@DV?$string_input_adapter@D@__crt_stdio_input@@@__crt_stdio_input@@AEAA_NXZ 00000001400b4bbc f i libucrt:input.obj
 0001:000b3ce0       ?process_floating_point_specifier@?$input_processor@DV?$string_input_adapter@D@__crt_stdio_input@@@__crt_stdio_input@@AEAA_NXZ 00000001400b4ce0 f i libucrt:input.obj
 0001:000b3d50       ?process_integer_specifier@?$input_processor@DV?$string_input_adapter@D@__crt_stdio_input@@@__crt_stdio_input@@AEAA_NI_N@Z 00000001400b4d50 f i libucrt:input.obj
 0001:000b3e00       ?process_literal_character_tchar@?$input_processor@DV?$string_input_adapter@D@__crt_stdio_input@@@__crt_stdio_input@@AEAA_ND@Z 00000001400b4e00 f i libucrt:input.obj
 0001:000b3e8c       ?process_state@?$input_processor@DV?$string_input_adapter@D@__crt_stdio_input@@@__crt_stdio_input@@AEAA_NXZ 00000001400b4e8c f i libucrt:input.obj
 0001:000b3f40       ?process_string_specifier@?$input_processor@DV?$string_input_adapter@D@__crt_stdio_input@@@__crt_stdio_input@@AEAA_NW4conversion_mode@2@@Z 00000001400b4f40 f i libucrt:input.obj
 0001:000b3fcc       ?scan_conversion_specifier@?$format_string_parser@D@__crt_stdio_input@@AEAA_NXZ 00000001400b4fcc f i libucrt:input.obj
 0001:000b4188       ?scan_optional_field_width@?$format_string_parser@D@__crt_stdio_input@@AEAA_NXZ 00000001400b5188 f i libucrt:input.obj
 0001:000b4230       ?scan_optional_length_modifier@?$format_string_parser@D@__crt_stdio_input@@AEAAXXZ 00000001400b5230 f i libucrt:input.obj
 0001:000b435c       ?scan_scanset_range@?$format_string_parser@D@__crt_stdio_input@@AEAA_NXZ 00000001400b535c f i libucrt:input.obj
 0001:000b44f0       ?write_character@?$input_processor@DV?$string_input_adapter@D@__crt_stdio_input@@@__crt_stdio_input@@AEAA_NQEFA_W_KAEAPEFA_WAEA_KD@Z 00000001400b54f0 f i libucrt:input.obj
 0001:000b458c       ?write_integer@?$input_processor@DV?$string_input_adapter@D@__crt_stdio_input@@@__crt_stdio_input@@AEAA_N_K_N@Z 00000001400b558c f i libucrt:input.obj
 0001:000b4610       __stdio_common_vsscanf     00000001400b5610 f   libucrt:input.obj
 0001:000b4878       _time64                    00000001400b5878 f   libucrt:time.obj
 0001:000b4bd4       _localtime64               00000001400b5bd4 f   libucrt:localtime.obj
 0001:000b4c1c       _localtime64_s             00000001400b5c1c f   libucrt:localtime.obj
 0001:000b4c24       _Strftime_l                00000001400b5c24 f   libucrt:strftime.obj
 0001:000b4dcc       strftime                   00000001400b5dcc f   libucrt:strftime.obj
 0001:000b4e88       _tolower_l                 00000001400b5e88 f   libucrt:tolower_toupper.obj
 0001:000b4fc8       _toupper_l                 00000001400b5fc8 f   libucrt:tolower_toupper.obj
 0001:000b5108       tolower                    00000001400b6108 f   libucrt:tolower_toupper.obj
 0001:000b5134       toupper                    00000001400b6134 f   libucrt:tolower_toupper.obj
 0001:000b5170       strncmp                    00000001400b6170 f   libucrt:strncmp.obj
 0001:000b5294       ??$parse_floating_point@V?$c_string_character_source@D@__crt_strtox@@N@__crt_strtox@@YA?AW4SLD_STATUS@@QEAU__crt_locale_pointers@@V?$c_string_character_source@D@0@QEAN@Z 00000001400b6294 f i libucrt:strtod.obj
 0001:000b5334       ??$parse_floating_point_from_source@V?$c_string_character_source@D@__crt_strtox@@@__crt_strtox@@YA?AW4floating_point_parse_result@0@QEAU__crt_locale_pointers@@AEAV?$c_string_character_source@D@0@AEAUfloating_point_string@0@@Z 00000001400b6334 f i libucrt:strtod.obj
 0001:000b5820       ??$parse_floating_point_possible_infinity@DV?$c_string_character_source@D@__crt_strtox@@PEBD@__crt_strtox@@YA?AW4floating_point_parse_result@0@AEADAEAV?$c_string_character_source@D@0@PEBD@Z 00000001400b6820 f i libucrt:strtod.obj
 0001:000b5938       ??$parse_floating_point_possible_nan@DV?$c_string_character_source@D@__crt_strtox@@PEBD@__crt_strtox@@YA?AW4floating_point_parse_result@0@AEADAEAV?$c_string_character_source@D@0@PEBD@Z 00000001400b6938 f i libucrt:strtod.obj
 0001:000b5acc       ??$parse_floating_point_possible_nan_is_ind@DV?$c_string_character_source@D@__crt_strtox@@@__crt_strtox@@YA_NAEADAEAV?$c_string_character_source@D@0@@Z 00000001400b6acc f i libucrt:strtod.obj
 0001:000b5b14       ??$parse_floating_point_possible_nan_is_snan@DV?$c_string_character_source@D@__crt_strtox@@@__crt_strtox@@YA_NAEADAEAV?$c_string_character_source@D@0@@Z 00000001400b6b14 f i libucrt:strtod.obj
 0001:000b5ba8       strtod                     00000001400b6ba8 f   libucrt:strtod.obj
 0001:000b5bb0       __ascii_stricmp            00000001400b6bb0 f   libucrt:stricmp.obj
 0001:000b5bec       _stricmp                   00000001400b6bec f   libucrt:stricmp.obj
 0001:000b5c34       _stricmp_l                 00000001400b6c34 f   libucrt:stricmp.obj
 0001:000b5ce8       strtol                     00000001400b6ce8 f   libucrt:strtox.obj
 0001:000b5d18       strtoul                    00000001400b6d18 f   libucrt:strtox.obj
 0001:000b5d48       strtoull                   00000001400b6d48 f   libucrt:strtox.obj
 0001:000b5d78       _fputc_nolock              00000001400b6d78 f   libucrt:fputc.obj
 0001:000b5d90       fputc                      00000001400b6d90 f   libucrt:fputc.obj
 0001:000b5eb0       strspn                     00000001400b6eb0 f   libucrt:strspn.obj
 0001:000b5f70       strcspn                    00000001400b6f70 f   libucrt:strcspn.obj
 0001:000b6088       atof                       00000001400b7088 f   libucrt:atof.obj
 0001:000b6090       wcsncpy                    00000001400b7090 f   libucrt:wcsncpy.obj
 0001:000b60d8       feof                       00000001400b70d8 f   libucrt:feoferr.obj
 0001:000b662c       _ftelli64                  00000001400b762c f   libucrt:ftell.obj
 0001:000b6634       _ftelli64_nolock           00000001400b7634 f   libucrt:ftell.obj
 0001:000b663c       ftell                      00000001400b763c f   libucrt:ftell.obj
 0001:000b68b8       _fseeki64                  00000001400b78b8 f   libucrt:fseek.obj
 0001:000b68c0       fseek                      00000001400b78c0 f   libucrt:fseek.obj
 0001:000b68c8       _fread_nolock_s            00000001400b78c8 f   libucrt:fread.obj
 0001:000b6b48       fread                      00000001400b7b48 f   libucrt:fread.obj
 0001:000b6b68       fread_s                    00000001400b7b68 f   libucrt:fread.obj
 0001:000b6c10       __acrt_stdio_flush_nolock  00000001400b7c10 f   libucrt:fflush.obj
 0001:000b6c88       _fflush_nolock             00000001400b7c88 f   libucrt:fflush.obj
 0001:000b6cd4       _flushall                  00000001400b7cd4 f   libucrt:fflush.obj
 0001:000b6dc4       fflush                     00000001400b7dc4 f   libucrt:fflush.obj
 0001:000b6e08       _fgetc_nolock              00000001400b7e08 f   libucrt:fgetc.obj
 0001:000b6e4c       _getc_nolock               00000001400b7e4c f   libucrt:fgetc.obj
 0001:000b6e54       fgetc                      00000001400b7e54 f   libucrt:fgetc.obj
 0001:000b7034       fgets                      00000001400b8034 f   libucrt:fgets.obj
 0001:000b703c       ??$?RV<lambda_a81aa23bb2c9577c1e55b9d0b57d9de4>@@AEAV<lambda_9a20e10065b92b5193c3597a66cba9d4>@@V<lambda_cb3a421ff86d8a5f008440ee6b28fa9c>@@@?$__crt_seh_guarded_call@H@@QEAAH$$QEAV<lambda_a81aa23bb2c9577c1e55b9d0b57d9de4>@@AEAV<lambda_9a20e10065b92b5193c3597a66cba9d4>@@$$QEAV<lambda_cb3a421ff86d8a5f008440ee6b28fa9c>@@@Z 00000001400b803c f i libucrt:fputs.obj
 0001:000b70e8       fputs                      00000001400b80e8 f   libucrt:fputs.obj
 0001:000b71e8       malloc                     00000001400b81e8 f   libucrt:malloc.obj
 0001:000b71f0       abort                      00000001400b81f0 f   libucrt:abort.obj
 0001:000b7248       free                       00000001400b8248 f   libucrt:free.obj
 0001:000b7250       _ctime64                   00000001400b8250 f   libucrt:ctime.obj
 0001:000b72e0       strlen                     00000001400b82e0 f   libucrt:strlen.obj
 0001:000b7388       _seh_filter_exe            00000001400b8388 f   libucrt:exception_filter.obj
 0001:000b76d4       __acrt_allocate_buffer_for_argv 00000001400b86d4 f   libucrt:argv_parsing.obj
 0001:000b7738       _configure_narrow_argv     00000001400b8738 f   libucrt:argv_parsing.obj
 0001:000b7bb0       __dcrt_get_or_create_narrow_environment_nolock 00000001400b8bb0 f   libucrt:environment_initialization.obj
 0001:000b7bb8       __dcrt_uninitialize_environments_nolock 00000001400b8bb8 f   libucrt:environment_initialization.obj
 0001:000b7bf0       _initialize_narrow_environment 00000001400b8bf0 f   libucrt:environment_initialization.obj
 0001:000b7bf8       ??$?RV<lambda_b8c45f8f788dd370798f47cfe8ac3a86>@@AEAV<lambda_4e60a939b0d047cfe11ddc22648dfba9>@@V<lambda_332c3edc96d0294ec56c57d38c1cdfd5>@@@?$__crt_seh_guarded_call@H@@QEAAH$$QEAV<lambda_b8c45f8f788dd370798f47cfe8ac3a86>@@AEAV<lambda_4e60a939b0d047cfe11ddc22648dfba9>@@$$QEAV<lambda_332c3edc96d0294ec56c57d38c1cdfd5>@@@Z 00000001400b8bf8 f i libucrt:onexit.obj
 0001:000b7c34       ??$?RV<lambda_e24bbb7b643b32fcea6fa61b31d4c984>@@AEAV<lambda_275893d493268fdec8709772e3fcec0e>@@V<lambda_9d71df4d7cf3f480f8d633942495c3b0>@@@?$__crt_seh_guarded_call@H@@QEAAH$$QEAV<lambda_e24bbb7b643b32fcea6fa61b31d4c984>@@AEAV<lambda_275893d493268fdec8709772e3fcec0e>@@$$QEAV<lambda_9d71df4d7cf3f480f8d633942495c3b0>@@@Z 00000001400b8c34 f i libucrt:onexit.obj
 0001:000b7fb0       _crt_atexit                00000001400b8fb0 f   libucrt:onexit.obj
 0001:000b7fc0       _execute_onexit_table      00000001400b8fc0 f   libucrt:onexit.obj
 0001:000b7ffc       _initialize_onexit_table   00000001400b8ffc f   libucrt:onexit.obj
 0001:000b803c       _register_onexit_function  00000001400b903c f   libucrt:onexit.obj
 0001:000b81b8       __acrt_initialize          00000001400b91b8 f   libucrt:initialization.obj
 0001:000b81cc       __acrt_uninitialize        00000001400b91cc f   libucrt:initialization.obj
 0001:000b81e0       terminate                  00000001400b91e0 f   libucrt:terminate.obj
 0001:000b8208       _query_app_type            00000001400b9208 f   libucrt:report_runtime_error.obj
 0001:000b8210       _set_app_type              00000001400b9210 f   libucrt:report_runtime_error.obj
 0001:000b8218       __acrt_has_user_matherr    00000001400b9218 f   libucrt:matherr.obj
 0001:000b8238       __acrt_initialize_user_matherr 00000001400b9238 f   libucrt:matherr.obj
 0001:000b8240       __acrt_invoke_user_matherr 00000001400b9240 f   libucrt:matherr.obj
 0001:000b8288       __setusermatherr           00000001400b9288 f   libucrt:matherr.obj
 0001:000b82b0       _get_narrow_winmain_command_line 00000001400b92b0 f   libucrt:argv_winmain.obj
 0001:000b8320       _initterm                  00000001400b9320 f   libucrt:initterm.obj
 0001:000b8398       _initterm_e                00000001400b9398 f   libucrt:initterm.obj
 0001:000b83e4       _get_fmode                 00000001400b93e4 f   libucrt:setmode.obj
 0001:000b8414       _set_fmode                 00000001400b9414 f   libucrt:setmode.obj
 0001:000b8454       _setmode_nolock            00000001400b9454 f   libucrt:setmode.obj
 0001:000b8534       __acrt_set_locale_changed  00000001400b9534 f   libucrt:wsetlocale.obj
 0001:000b8540       __acrt_uninitialize_locale 00000001400b9540 f   libucrt:wsetlocale.obj
 0001:000b8588       _configthreadlocale        00000001400b9588 f   libucrt:wsetlocale.obj
 0001:000b85f4       _query_new_mode            00000001400b95f4 f   libucrt:new_mode.obj
 0001:000b85fc       _set_new_mode              00000001400b95fc f   libucrt:new_mode.obj
 0001:000b8628       __p__commode               00000001400b9628 f   libucrt:ncommode.obj
 0001:000b8630       strcpy_s                   00000001400b9630 f   libucrt:strcpy_s.obj
 0001:000b8690       calloc                     00000001400b9690 f   libucrt:calloc.obj
 0001:000b8698       wcsncmp                    00000001400b9698 f   libucrt:wcsncmp.obj
 0001:000b86c4       __acrt_call_reportfault    00000001400b96c4 f   libucrt:invalid_parameter.obj
 0001:000b8820       __acrt_initialize_invalid_parameter_handler 00000001400b9820 f   libucrt:invalid_parameter.obj
 0001:000b8828       _invalid_parameter         00000001400b9828 f   libucrt:invalid_parameter.obj
 0001:000b88d0       _invalid_parameter_noinfo  00000001400b98d0 f   libucrt:invalid_parameter.obj
 0001:000b88f0       _invoke_watson             00000001400b98f0 f   libucrt:invalid_parameter.obj
 0001:000b8938       __acrt_errno_from_os_error 00000001400b9938 f   libucrt:errno.obj
 0001:000b8980       __acrt_errno_map_os_error  00000001400b9980 f   libucrt:errno.obj
 0001:000b89d0       __doserrno                 00000001400b99d0 f   libucrt:errno.obj
 0001:000b89f0       _errno                     00000001400b99f0 f   libucrt:errno.obj
 0001:000b8a10       _calloc_base               00000001400b9a10 f   libucrt:calloc_base.obj
 0001:000b8a88       _free_base                 00000001400b9a88 f   libucrt:free_base.obj
 0001:000b8ac8       ??$?RV<lambda_46352004c1216016012b18bd6f87e700>@@AEAV<lambda_3bd07e1a1191394380780325891bf33f>@@V<lambda_334532d3f185bcaa59b5be82d7d22bff>@@@?$__crt_seh_guarded_call@X@@QEAAX$$QEAV<lambda_46352004c1216016012b18bd6f87e700>@@AEAV<lambda_3bd07e1a1191394380780325891bf33f>@@$$QEAV<lambda_334532d3f185bcaa59b5be82d7d22bff>@@@Z 00000001400b9ac8 f i libucrt:per_thread_data.obj
 0001:000b8b28       ??$?RV<lambda_5e887d1dcbef67a5eb4283622ba103bf>@@AEAV<lambda_4466841279450cc726390878d4a41900>@@V<lambda_341c25c0346d94847f1f3c463c57e077>@@@?$__crt_seh_guarded_call@X@@QEAAX$$QEAV<lambda_5e887d1dcbef67a5eb4283622ba103bf>@@AEAV<lambda_4466841279450cc726390878d4a41900>@@$$QEAV<lambda_341c25c0346d94847f1f3c463c57e077>@@@Z 00000001400b9b28 f i libucrt:per_thread_data.obj
 0001:000b8b70       ??$?RV<lambda_72d1df2b273a38828b1ce30cbf4cdab5>@@AEAV<lambda_876a65b173b8412d3a47c70a915b0cf4>@@V<lambda_41932305e351933ebe8f8be3ed8bb5dc>@@@?$__crt_seh_guarded_call@X@@QEAAX$$QEAV<lambda_72d1df2b273a38828b1ce30cbf4cdab5>@@AEAV<lambda_876a65b173b8412d3a47c70a915b0cf4>@@$$QEAV<lambda_41932305e351933ebe8f8be3ed8bb5dc>@@@Z 00000001400b9b70 f i libucrt:per_thread_data.obj
 0001:000b8bb0       ??$?RV<lambda_fb3a7dec4e47f37f22dae91bb15c9095>@@AEAV<lambda_698284760c8add0bfb0756c19673e34b>@@V<lambda_dfb8eca1e75fef3034a8fb18dd509707>@@@?$__crt_seh_guarded_call@X@@QEAAX$$QEAV<lambda_fb3a7dec4e47f37f22dae91bb15c9095>@@AEAV<lambda_698284760c8add0bfb0756c19673e34b>@@$$QEAV<lambda_dfb8eca1e75fef3034a8fb18dd509707>@@@Z 00000001400b9bb0 f i libucrt:per_thread_data.obj
 0001:000b8e40       __acrt_getptd              00000001400b9e40 f   libucrt:per_thread_data.obj
 0001:000b8ed4       __acrt_getptd_noexit       00000001400b9ed4 f   libucrt:per_thread_data.obj
 0001:000b8f74       __acrt_initialize_ptd      00000001400b9f74 f   libucrt:per_thread_data.obj
 0001:000b8fb0       __acrt_uninitialize_ptd    00000001400b9fb0 f   libucrt:per_thread_data.obj
 0001:000b9174       __acrt_AreFileApisANSI     00000001400ba174 f   libucrt:winapi_thunks.obj
 0001:000b91c0       __acrt_CompareStringEx     00000001400ba1c0 f   libucrt:winapi_thunks.obj
 0001:000b92b0       __acrt_FlsAlloc            00000001400ba2b0 f   libucrt:winapi_thunks.obj
 0001:000b9308       __acrt_FlsFree             00000001400ba308 f   libucrt:winapi_thunks.obj
 0001:000b9360       __acrt_FlsGetValue         00000001400ba360 f   libucrt:winapi_thunks.obj
 0001:000b93b8       __acrt_FlsSetValue         00000001400ba3b8 f   libucrt:winapi_thunks.obj
 0001:000b9420       __acrt_GetDateFormatEx     00000001400ba420 f   libucrt:winapi_thunks.obj
 0001:000b94ec       __acrt_GetSystemTimePreciseAsFileTime 00000001400ba4ec f   libucrt:winapi_thunks.obj
 0001:000b9544       __acrt_GetTimeFormatEx     00000001400ba544 f   libucrt:winapi_thunks.obj
 0001:000b9600       __acrt_InitializeCriticalSectionEx 00000001400ba600 f   libucrt:winapi_thunks.obj
 0001:000b9678       __acrt_LCMapStringEx       00000001400ba678 f   libucrt:winapi_thunks.obj
 0001:000b9768       __acrt_LocaleNameToLCID    00000001400ba768 f   libucrt:winapi_thunks.obj
 0001:000b97d0       __acrt_RoInitialize        00000001400ba7d0 f   libucrt:winapi_thunks.obj
 0001:000b981c       __acrt_RoUninitialize      00000001400ba81c f   libucrt:winapi_thunks.obj
 0001:000b985c       __acrt_initialize_winapi_thunks 00000001400ba85c f   libucrt:winapi_thunks.obj
 0001:000b9894       __acrt_is_packaged_app     00000001400ba894 f   libucrt:winapi_thunks.obj
 0001:000b991c       __acrt_uninitialize_winapi_thunks 00000001400ba91c f   libucrt:winapi_thunks.obj
 0001:000b9960       _malloc_base               00000001400ba960 f   libucrt:malloc_base.obj
 0001:000b99c0       _mbtowc_l                  00000001400ba9c0 f   libucrt:mbtowc.obj
 0001:000b9b08       mbtowc                     00000001400bab08 f   libucrt:mbtowc.obj
 0001:000b9b10       _wctomb_s_l                00000001400bab10 f   libucrt:wctomb.obj
 0001:000b9c94       wctomb_s                   00000001400bac94 f   libucrt:wctomb.obj
 0001:000b9ca8       strnlen                    00000001400baca8 f   libucrt:strnlen.obj
 0001:000b9e04       wcsnlen                    00000001400bae04 f   libucrt:strnlen.obj
 0001:000b9ff4       __acrt_update_locale_info  00000001400baff4 f   libucrt:locale_update.obj
 0001:000ba028       __acrt_update_multibyte_info 00000001400bb028 f   libucrt:locale_update.obj
 0001:000ba05c       ?__acrt_fp_classify@@YA?AW4__acrt_fp_class@@AEBN@Z 00000001400bb05c f i libucrt:cvt.obj
 0001:000baa94       __acrt_fp_format           00000001400bba94 f   libucrt:cvt.obj
 0001:000bacd8       _fileno                    00000001400bbcd8 f   libucrt:fileno.obj
 0001:000bad00       _get_printf_count_output   00000001400bbd00 f   libucrt:printf_count_output.obj
 0001:000bad18       __acrt_stdio_begin_temporary_buffering_nolock 00000001400bbd18 f   libucrt:_sftbuf.obj
 0001:000bade8       __acrt_stdio_end_temporary_buffering_nolock 00000001400bbde8 f   libucrt:_sftbuf.obj
 0001:000bb00c       __acrt_initialize_lowio    00000001400bc00c f   libucrt:ioinit.obj
 0001:000bb048       __acrt_uninitialize_lowio  00000001400bc048 f   libucrt:ioinit.obj
 0001:000bb088       _fcloseall                 00000001400bc088 f   libucrt:closeall.obj
 0001:000bb13c       __acrt_stdio_free_buffer_nolock 00000001400bc13c f   libucrt:_freebuf.obj
 0001:000bb17c       __acrt_copy_path_to_wide_string 00000001400bc17c f   libucrt:string_utilities.obj
 0001:000bb274       _wremove                   00000001400bc274 f   libucrt:wunlink.obj
 0001:000bb29c       _wrename                   00000001400bc29c f   libucrt:wrename.obj
 0001:000bb2cc       ??$?RV<lambda_bfedae4ebbf01fab1bb6dcc6a9e276e0>@@AEAV<lambda_2fe9b910cf3cbf4a0ab98a02ba45b3ec>@@V<lambda_237c231691f317818eb88cc1d5d642d6>@@@?$__crt_seh_guarded_call@H@@QEAAH$$QEAV<lambda_bfedae4ebbf01fab1bb6dcc6a9e276e0>@@AEAV<lambda_2fe9b910cf3cbf4a0ab98a02ba45b3ec>@@$$QEAV<lambda_237c231691f317818eb88cc1d5d642d6>@@@Z 00000001400bc2cc f i libucrt:close.obj
 0001:000bb340       _close                     00000001400bc340 f   libucrt:close.obj
 0001:000bb3e4       _close_nolock              00000001400bc3e4 f   libucrt:close.obj
 0001:000bb4a0       ?__acrt_stdio_allocate_stream@@YA?AV__crt_stdio_stream@@XZ 00000001400bc4a0 f   libucrt:stream.obj
 0001:000bb4fc       ?__acrt_stdio_free_stream@@YAXV__crt_stdio_stream@@@Z 00000001400bc4fc f   libucrt:stream.obj
 0001:000bb62c       ??$__acrt_stdio_parse_mode@D@@YA?AU__acrt_stdio_stream_mode@@QEBD@Z 00000001400bc62c f i libucrt:openfile.obj
 0001:000bb8c8       _openfile                  00000001400bc8c8 f   libucrt:openfile.obj
 0001:000bbf04       _write                     00000001400bcf04 f   libucrt:write.obj
 0001:000bbff0       _write_nolock              00000001400bcff0 f   libucrt:write.obj
 0001:000bc3d8       __acrt_stdio_flush_and_write_narrow_nolock 00000001400bd3d8 f   libucrt:_flsbuf.obj
 0001:000bc4c0       __pctype_func              00000001400bd4c0 f   libucrt:ctype.obj
 0001:000bc4f0       _isctype_l                 00000001400bd4f0 f   libucrt:isctype.obj
 0001:000bc600       __acrt_initialize_locks    00000001400bd600 f   libucrt:locks.obj
 0001:000bc648       __acrt_lock                00000001400bd648 f   libucrt:locks.obj
 0001:000bc664       __acrt_uninitialize_locks  00000001400bd664 f   libucrt:locks.obj
 0001:000bc69c       __acrt_unlock              00000001400bd69c f   libucrt:locks.obj
 0001:000bc6b8       iswctype                   00000001400bd6b8 f   libucrt:iswctype.obj
 0001:000bc728       fegetround                 00000001400bd728 f   libucrt:fegetround.obj
 0001:000bc73c       __acrt_initialize_timeset  00000001400bd73c f   libucrt:timeset.obj
 0001:000bc76c       __daylight                 00000001400bd76c f   libucrt:timeset.obj
 0001:000bc774       __dstbias                  00000001400bd774 f   libucrt:timeset.obj
 0001:000bc77c       __timezone                 00000001400bd77c f   libucrt:timeset.obj
 0001:000bc784       __tzname                   00000001400bd784 f   libucrt:timeset.obj
 0001:000bc78c       _get_daylight              00000001400bd78c f   libucrt:timeset.obj
 0001:000bc7bc       _get_dstbias               00000001400bd7bc f   libucrt:timeset.obj
 0001:000bc7ec       _get_timezone              00000001400bd7ec f   libucrt:timeset.obj
 0001:000bc81c       ??$__crt_time_is_leap_year@H@@YA_NH@Z 00000001400bd81c f i libucrt:gmtime.obj
 0001:000bcaf0       __getgmtimebuf             00000001400bdaf0 f   libucrt:gmtime.obj
 0001:000bcb3c       _gmtime64_s                00000001400bdb3c f   libucrt:gmtime.obj
 0001:000bd580       __tzset                    00000001400be580 f   libucrt:tzset.obj
 0001:000bd5bc       _isindst                   00000001400be5bc f   libucrt:tzset.obj
 0001:000bed38       _Wcsftime_l                00000001400bfd38 f   libucrt:wcsftime.obj
 0001:000beedc       _isleadbyte_l              00000001400bfedc f i libucrt:_wctype.obj
 0001:000bf278       __acrt_LCMapStringA        00000001400c0278 f   libucrt:lcmapstringa.obj
 0001:000bf49c       _lseeki64                  00000001400c049c f   libucrt:lseek.obj
 0001:000bf4a4       _lseeki64_nolock           00000001400c04a4 f   libucrt:lseek.obj
 0001:000bf9dc       _read                      00000001400c09dc f   libucrt:read.obj
 0001:000bfaf4       _read_nolock               00000001400c0af4 f   libucrt:read.obj
 0001:000c0104       __acrt_stdio_refill_and_read_narrow_nolock 00000001400c1104 f   libucrt:_filbuf.obj
 0001:000c010c       ??$?RV<lambda_b521505b218e5242e90febf6bfebc422>@@AEAV<lambda_6978c1fb23f02e42e1d9e99668cc68aa>@@V<lambda_314360699dd331753a4119843814e9a7>@@@?$__crt_seh_guarded_call@H@@QEAAH$$QEAV<lambda_b521505b218e5242e90febf6bfebc422>@@AEAV<lambda_6978c1fb23f02e42e1d9e99668cc68aa>@@$$QEAV<lambda_314360699dd331753a4119843814e9a7>@@@Z 00000001400c110c f i libucrt:commit.obj
 0001:000c0198       _commit                    00000001400c1198 f   libucrt:commit.obj
 0001:000c022c       ??$?RV<lambda_c36588078e9f5dfd39652860aa6b3aaf>@@AEAV<lambda_ec61778202f4f5fc7e7711acc23c3bca>@@V<lambda_dc9d2797ccde5d239b4a0efae8ebd7db>@@@?$__crt_seh_guarded_call@P6AXH@Z@@QEAAP6AXH@Z$$QEAV<lambda_c36588078e9f5dfd39652860aa6b3aaf>@@AEAV<lambda_ec61778202f4f5fc7e7711acc23c3bca>@@$$QEAV<lambda_dc9d2797ccde5d239b4a0efae8ebd7db>@@@Z 00000001400c122c f i libucrt:signal.obj
 0001:000c0274       __acrt_get_sigabrt_handler 00000001400c1274 f   libucrt:signal.obj
 0001:000c02a4       __acrt_initialize_signal_handlers 00000001400c12a4 f   libucrt:signal.obj
 0001:000c02c4       raise                      00000001400c12c4 f   libucrt:signal.obj
 0001:000c07e0       asctime                    00000001400c17e0 f   libucrt:asctime.obj
 0001:000c0d44       ?expand_if_necessary@?$argument_list@D@?A0xca0879c4@@AEAAHXZ 00000001400c1d44 f i libucrt:argv_wildcards.obj
 0001:000c0e0c       __acrt_expand_narrow_argv_wildcards 00000001400c1e0c f   libucrt:argv_wildcards.obj
 0001:000c0e14       ??$?RV<lambda_99476a1ad63dd22509b5d3e65b0ffc95>@@AEAV<lambda_ad1ced32f4ac17aa236e5ef05d6b3b7c>@@V<lambda_f7424dd8d45958661754dc4f2697e9c3>@@@?$__crt_seh_guarded_call@X@@QEAAX$$QEAV<lambda_99476a1ad63dd22509b5d3e65b0ffc95>@@AEAV<lambda_ad1ced32f4ac17aa236e5ef05d6b3b7c>@@$$QEAV<lambda_f7424dd8d45958661754dc4f2697e9c3>@@@Z 00000001400c1e14 f i libucrt:mbctype.obj
 0001:000c1510       __acrt_initialize_multibyte 00000001400c2510 f   libucrt:mbctype.obj
 0001:000c1538       __acrt_update_thread_multibyte_data 00000001400c2538 f   libucrt:mbctype.obj
 0001:000c15f8       _setmbcp_nolock            00000001400c25f8 f   libucrt:mbctype.obj
 0001:000c1918       _ismbblead                 00000001400c2918 f   libucrt:ismbbyte.obj
 0001:000c192c       __acrt_initialize_command_line 00000001400c292c f   libucrt:argv_data.obj
 0001:000c1954       __dcrt_get_narrow_environment_from_os 00000001400c2954 f   libucrt:get_environment_from_os.obj
 0001:000c1e34       __dcrt_set_variable_in_narrow_environment_nolock 00000001400c2e34 f   libucrt:setenv.obj
 0001:000c1e3c       _recalloc                  00000001400c2e3c f   libucrt:recalloc.obj
 0001:000c1e44       _recalloc_base             00000001400c2e44 f   libucrt:recalloc.obj
 0001:000c1edc       __acrt_initialize_heap     00000001400c2edc f   libucrt:heap_handle.obj
 0001:000c1ef8       __acrt_uninitialize_heap   00000001400c2ef8 f   libucrt:heap_handle.obj
 0001:000c1f04       __acrt_execute_initializers 00000001400c2f04 f   libucrt:shared_initialization.obj
 0001:000c1f98       __acrt_execute_uninitializers 00000001400c2f98 f   libucrt:shared_initialization.obj
 0001:000c1fe8       __acrt_initialize_new_handler 00000001400c2fe8 f   libucrt:new_handler.obj
 0001:000c1ff0       _callnewh                  00000001400c2ff0 f   libucrt:new_handler.obj
 0001:000c2030       _query_new_handler         00000001400c3030 f   libucrt:new_handler.obj
 0001:000c2064       __acrt_lowio_create_handle_array 00000001400c3064 f   libucrt:osfinfo.obj
 0001:000c20fc       __acrt_lowio_destroy_handle_array 00000001400c30fc f   libucrt:osfinfo.obj
 0001:000c214c       __acrt_lowio_ensure_fh_exists 00000001400c314c f   libucrt:osfinfo.obj
 0001:000c2204       __acrt_lowio_lock_fh       00000001400c3204 f   libucrt:osfinfo.obj
 0001:000c2228       __acrt_lowio_set_os_handle 00000001400c3228 f   libucrt:osfinfo.obj
 0001:000c22e8       __acrt_lowio_unlock_fh     00000001400c32e8 f   libucrt:osfinfo.obj
 0001:000c230c       _alloc_osfhnd              00000001400c330c f   libucrt:osfinfo.obj
 0001:000c243c       _free_osfhnd               00000001400c343c f   libucrt:osfinfo.obj
 0001:000c24f8       _get_osfhandle             00000001400c34f8 f   libucrt:osfinfo.obj
 0001:000c2570       ___lc_codepage_func        00000001400c3570 f   libucrt:initctype.obj
 0001:000c25a0       __acrt_locale_free_monetary 00000001400c35a0 f   libucrt:initmon.obj
 0001:000c26ac       __acrt_locale_free_numeric 00000001400c36ac f   libucrt:initnum.obj
 0001:000c2770       __acrt_locale_free_time    00000001400c3770 f   libucrt:inittime.obj
 0001:000c2878       __acrt_GetStringTypeA      00000001400c3878 f   libucrt:getstringtypea.obj
 0001:000c2a2c       __acrt_add_locale_ref      00000001400c3a2c f   libucrt:locale_refcounting.obj
 0001:000c2ab8       __acrt_free_locale         00000001400c3ab8 f   libucrt:locale_refcounting.obj
 0001:000c2c30       __acrt_locale_add_lc_time_reference 00000001400c3c30 f   libucrt:locale_refcounting.obj
 0001:000c2c58       __acrt_locale_free_lc_time_if_unreferenced 00000001400c3c58 f   libucrt:locale_refcounting.obj
 0001:000c2c90       __acrt_locale_release_lc_time_reference 00000001400c3c90 f   libucrt:locale_refcounting.obj
 0001:000c2cb8       __acrt_release_locale_ref  00000001400c3cb8 f   libucrt:locale_refcounting.obj
 0001:000c2d60       __acrt_update_thread_locale_data 00000001400c3d60 f   libucrt:locale_refcounting.obj
 0001:000c2dd0       _updatetlocinfoEx_nolock   00000001400c3dd0 f   libucrt:locale_refcounting.obj
 0001:000c2f00       __acrt_DownlevelLocaleNameToLCID 00000001400c3f00 f   libucrt:lcidtoname_downlevel.obj
 0001:000c2f34       __acrt_fp_strflt_to_string 00000001400c3f34 f   libucrt:_fptostr.obj
 0001:000c2ff4       __acrt_fltout              00000001400c3ff4 f   libucrt:cfout.obj
 0001:000c4360       _isatty                    00000001400c5360 f   libucrt:isatty.obj
 0001:000c43c0       __ascii_strnicmp           00000001400c53c0 f   libucrt:strnicmp.obj
 0001:000c4408       _strnicmp                  00000001400c5408 f   libucrt:strnicmp.obj
 0001:000c4458       _strnicmp_l                00000001400c5458 f   libucrt:strnicmp.obj
 0001:000c4b78       _sopen_nolock              00000001400c5b78 f   libucrt:open.obj
 0001:000c4c08       _sopen_s                   00000001400c5c08 f   libucrt:open.obj
 0001:000c4c3c       _wsopen_nolock             00000001400c5c3c f   libucrt:open.obj
 0001:000c502c       _putwch_nolock             00000001400c602c f   libucrt:putwch.obj
 0001:000c5088       __acrt_stdio_allocate_buffer_nolock 00000001400c6088 f   libucrt:_getbuf.obj
 0001:000c50ec       _getfpcontrolword          00000001400c60ec f   libucrt:_fenvutils.obj
 0001:000c5104       _getfpstatusword           00000001400c6104 f   libucrt:_fenvutils.obj
 0001:000c5118       _setfpcontrolword          00000001400c6118 f   libucrt:_fenvutils.obj
 0001:000c5124       _setfpstatusword           00000001400c6124 f   libucrt:_fenvutils.obj
 0001:000c52fc       getenv_s                   00000001400c62fc f   libucrt:getenv.obj
 0001:000c5304       strncpy_s                  00000001400c6304 f   libucrt:strncpy_s.obj
 0001:000c55b4       _mbstowcs_s_l              00000001400c65b4 f   libucrt:mbstowcs.obj
 0001:000c56e4       _wcsicmp                   00000001400c66e4 f   libucrt:wcsicmp.obj
 0001:000c576c       _wcsicmp_l                 00000001400c676c f   libucrt:wcsicmp.obj
 0001:000c585c       __strncnt                  00000001400c685c f   libucrt:strncnt.obj
 0001:000c5950       qsort                      00000001400c6950 f   libucrt:qsort.obj
 0001:000c5c84       _mbsdec                    00000001400c6c84 f   libucrt:mbsdec.obj
 0001:000c5c8c       _mbsdec_l                  00000001400c6c8c f   libucrt:mbsdec.obj
 0001:000c5d3c       _strnicoll                 00000001400c6d3c f   libucrt:strnicol.obj
 0001:000c5d54       _strnicoll_l               00000001400c6d54 f   libucrt:strnicol.obj
 0001:000c5e54       _msize                     00000001400c6e54 f   libucrt:msize.obj
 0001:000c5e90       _realloc_base              00000001400c6e90 f   libucrt:realloc_base.obj
 0001:000c5f14       fegetenv                   00000001400c6f14 f   libucrt:fegetenv.obj
 0001:000c5f34       fesetenv                   00000001400c6f34 f   libucrt:fesetenv.obj
 0001:000c5f80       feholdexcept               00000001400c6f80 f   libucrt:feholdexcept.obj
 0001:000c5fd0       ceil                       00000001400c6fd0 f   libucrt:ceil.obj
 0001:000c60a0       log10                      00000001400c70a0 f   libucrt:log10.obj
 0001:000c664c       _towlower_l                00000001400c764c f   libucrt:towlower.obj
 0001:000c6710       _chsize_nolock             00000001400c7710 f   libucrt:chsize.obj
 0001:000c688c       __dcrt_lowio_initialize_console_output 00000001400c788c f   libucrt:initcon.obj
 0001:000c68c8       __dcrt_terminate_console_output 00000001400c78c8 f   libucrt:initcon.obj
 0001:000c68e8       _clearfp                   00000001400c78e8 f   libucrt:ieee.obj
 0001:000c693c       _controlfp                 00000001400c793c f   libucrt:ieee.obj
 0001:000c6948       _statusfp                  00000001400c7948 f   libucrt:ieee.obj
 0001:000c6c40       _get_fpsr                  00000001400c7c40 f   libucrt:fpsr.obj
 0001:000c6c50       _set_fpsr                  00000001400c7c50 f   libucrt:fpsr.obj
 0001:000c6c5a       _fclrf                     00000001400c7c5a f   libucrt:fpsr.obj
 0001:000c6c6e       _frnd                      00000001400c7c6e f   libucrt:fpsr.obj
 0001:000c7024       __acrt_CompareStringA      00000001400c8024 f   libucrt:comparestringa.obj
 0001:000c71d4       _handle_error              00000001400c81d4 f   libucrt:libm_error.obj
 0001:000c72fc       _handle_errorf             00000001400c82fc f   libucrt:libm_error.obj
 0001:000c7430       _handle_nan                00000001400c8430 f   libucrt:libm_error.obj
 0001:000c744c       _handle_nanf               00000001400c844c f   libucrt:libm_error.obj
 0001:000c7460       __acrt_initialize_fma3     00000001400c8460 f   libucrt:fma3_available.obj
 0001:000c74d0       _log10_special             00000001400c84d0 f   libucrt:log_special.obj
 0001:000c74f0       _log10f_special            00000001400c84f0 f   libucrt:log_special.obj
 0001:000c7510       _log_special               00000001400c8510 f   libucrt:log_special.obj
 0001:000c75c8       _logf_special              00000001400c85c8 f   libucrt:log_special.obj
 0001:000c7684       __acrt_LCMapStringW        00000001400c8684 f   libucrt:lcmapstringw.obj
 0001:000c770c       _raise_exc                 00000001400c870c f   libucrt:fpexcept.obj
 0001:000c7734       _raise_exc_ex              00000001400c8734 f   libucrt:fpexcept.obj
 0001:000c7a3c       _raise_excf                00000001400c8a3c f   libucrt:fpexcept.obj
 0001:000c7a68       _set_errno_from_matherr    00000001400c8a68 f   libucrt:fpexcept.obj
 0001:000c7a98       _clrfp                     00000001400c8a98 f   libucrt:fpctrl.obj
 0001:000c7ab8       _ctrlfp                    00000001400c8ab8 f   libucrt:fpctrl.obj
 0001:000c7b34       _set_statfp                00000001400c8b34 f   libucrt:fpctrl.obj
 0001:000c7b54       _statfp                    00000001400c8b54 f   libucrt:fpctrl.obj
 0001:000c7b65       IsProcessorFeaturePresent  00000001400c8b65 f   kernel32:KERNEL32.dll
 0001:000c7b6c       __GSHandlerCheck           00000001400c8b6c f   LIBCMT:_gshandler_.obj
 0001:000c7b8c       __GSHandlerCheckCommon     00000001400c8b8c f   LIBCMT:_gshandler_.obj
 0001:000c7c00       __security_check_cookie    00000001400c8c00 f   LIBCMT:_amdsecgs_.obj
 0001:000c7c30       _FindPESection             00000001400c8c30 f   LIBCMT:pesect.obj
 0001:000c7c80       _IsNonwritableInCurrentImage 00000001400c8c80 f   LIBCMT:pesect.obj
 0001:000c7cd0       _ValidateImageBase         00000001400c8cd0 f   LIBCMT:pesect.obj
 0001:000c7d00       __raise_securityfailure    00000001400c8d00 f   LIBCMT:gs_report.obj
 0001:000c7d34       __report_gsfailure         00000001400c8d34 f   LIBCMT:gs_report.obj
 0001:000c7e08       __report_rangecheckfailure 00000001400c8e08 f   LIBCMT:gs_report.obj
 0001:000c7e1c       __report_securityfailure   00000001400c8e1c f   LIBCMT:gs_report.obj
 0001:000c7fb0       __chkstk                   00000001400c8fb0 f   LIBCMT:_chkstk_.obj
 0001:000c7fb0       _alloca_probe              00000001400c8fb0 f   LIBCMT:_chkstk_.obj
 0001:000c8004       _local_unwind              00000001400c9004 f   libvcruntime:_jmpuwind_.obj
 0001:000c8040       memcmp                     00000001400c9040 f   libvcruntime:memcmp.obj
 0001:000c8200       ?shouldsaveblendmap@@YAEXZ 00000001400c9200 f   blend.obj
 0001:000c8220       ?saveblendmap@@YAXPEAUstream@@@Z 00000001400c9220 f   blend.obj
 0001:000c8240       ?saveblendmap@@YAXPEAUstream@@EAEAUBlendMapNode@@@Z 00000001400c9240 f   blend.obj
 0001:000c8320       ?loadblendmap@@YA_NPEAUstream@@H@Z 00000001400c9320 f   blend.obj
 0001:000c8350       ?loadblendmap@@YA_NPEAUstream@@AEAEAEAUBlendMapNode@@@Z 00000001400c9350 f   blend.obj
 0001:000c84c0       ?renderblendbrush@@YAXXZ   00000001400c94c0 f   blend.obj
 0001:000c8690       ?run@?$_icmd_moveblendmap@$0DAJ@@@SAXPEAH0@Z 00000001400c9690 f   blend.obj
 0001:000c8850       ?run@?$_icmd_clearblendmap@$0CPK@@@SAXXZ 00000001400c9850 f   blend.obj
 0001:000c88c0       ?showblendmap@@YAXXZ       00000001400c98c0 f   blend.obj
 0001:000c8950       ?invertblendmap@@YAXXZ     00000001400c9950 f   blend.obj
 0001:000c8ac0       ?invertblendmapsel@@YAXXZ  00000001400c9ac0 f   blend.obj
 0001:000c8cb0       ?clearblendmapsel@@YAXXZ   00000001400c9cb0 f   blend.obj
 0001:000c8eb0       ?run@?$_icmd_paintblendmap@$0CMG@@@SAXPEAH@Z 00000001400c9eb0 f   blend.obj
 0001:000c8f00       ?trypaintblendmap@@YAXXZ   00000001400c9f00 f   blend.obj
 0001:000c8f70       ?stoppaintblendmap@@YAXXZ  00000001400c9f70 f   blend.obj
 0001:000c8f90       ?paintblendmap@@YAX_N@Z    00000001400c9f90 f   blend.obj
 0001:000c9130       ?rotateblendbrush@@YAXPEAH@Z 00000001400ca130 f   blend.obj
 0001:000c9330       ?canpaintblendmap@@YA_N_N00@Z 00000001400ca330 f   blend.obj
 0001:000c93f0       ?curblendbrush@@YAXXZ      00000001400ca3f0 f   blend.obj
 0001:000c9410       ?getblendbrushname@@YAXPEAH@Z 00000001400ca410 f   blend.obj
 0001:000c9460       ?setblendbrush@@YAXPEBD@Z  00000001400ca460 f   blend.obj
 0001:000c94d0       ?nextblendbrush@@YAXPEAH@Z 00000001400ca4d0 f   blend.obj
 0001:000c9530       ?addblendbrush@@YAXPEBD0@Z 00000001400ca530 f   blend.obj
 0001:000c9830       ?delblendbrush@@YAXPEBD@Z  00000001400ca830 f   blend.obj
 0001:000c99d0       ?clearblendbrushes@@YAXXZ  00000001400ca9d0 f   blend.obj
 0001:000c9a80       ?cleanupblendmap@@YAXXZ    00000001400caa80 f   blend.obj
 0001:000c9b00       ?moveblendmap@@YAXHH@Z     00000001400cab00 f   blend.obj
 0001:000c9be0       ?moveblendmap@@YAXEAEAUBlendMapNode@@HHHHH@Z 00000001400cabe0 f   blend.obj
 0001:000c9d30       ?shrinkblendmap@@YAXH@Z    00000001400cad30 f   blend.obj
 0001:000c9e20       ?enlargeblendmap@@YAXXZ    00000001400cae20 f   blend.obj
 0001:000c9e90       ?resetblendmap@@YAXXZ      00000001400cae90 f   blend.obj
 0001:000c9f40       ?blitblendmap@@YAXPEAEHHHHH@Z 00000001400caf40 f   blend.obj
 0001:000ca750       ?var_blendpaintmode@@YAXXZ 00000001400cb750 f   blend.obj
 0001:000ca770       ?optimizeblendmap@@YAXXZ   00000001400cb770 f   blend.obj
 0001:000ca8c0       ?invertblendmap@@YAXHHHH@Z 00000001400cb8c0 f   blend.obj
 0001:000cac00       ?fillblendmap@@YAXHHHHE@Z  00000001400cbc00 f   blend.obj
 0001:000cafb0       ?lookupblendmap@@YAEPEAUBlendMapCache@@AEBUvec@@@Z 00000001400cbfb0 f   blend.obj
 0001:000cb320       ?setblendmaporigin@@YA_NPEAUBlendMapCache@@AEBUivec@@H@Z 00000001400cc320 f   blend.obj
 0001:000cb4d0       ?freeblendmapcache@@YAXAEAPEAUBlendMapCache@@@Z 00000001400cc4d0 f   blend.obj
 0001:000cb500       ?newblendmapcache@@YAPEAUBlendMapCache@@XZ 00000001400cc500 f   blend.obj
 0001:000cb540       ?shrink@BlendMapBranch@@QEAAEAEAUBlendMapNode@@H@Z 00000001400cc540 f   blend.obj
 0001:000cb570       ?splitsolid@BlendMapNode@@QEAAXAEAEE@Z 00000001400cc570 f   blend.obj
 0001:000cb610       ?cleanup@BlendMapNode@@QEAAXH@Z 00000001400cc610 f   blend.obj
 0001:000cb8d0       ?dumplms@@YAXXZ            00000001400cc8d0 f   lightmap.obj
 0001:000cba60       ?brightestlight@@YAPEAUentity@@AEBUvec@@0@Z 00000001400cca60 f   lightmap.obj
 0001:000cbe80       ?lightreaching@@YAXAEBUvec@@AEAU1@1_NPEAUextentity@@M@Z 00000001400cce80 f   lightmap.obj
 0001:000cca00       ?initlights@@YAXXZ         00000001400cda00 f   lightmap.obj
 0001:000ccb40       ?lightents@@YAX_N@Z        00000001400cdb40 f   lightmap.obj
 0001:000cccc0       ?lightent@@YAXAEAUextentity@@M@Z 00000001400cdcc0 f   lightmap.obj
 0001:000ccd90       ?clearlights@@YAXXZ        00000001400cdd90 f   lightmap.obj
 0001:000cce70       ?genlightmaptexs@@YAXHH@Z  00000001400cde70 f   lightmap.obj
 0001:000cd5c0       ?var_batchlightmaps@@YAXXZ 00000001400ce5c0 f   lightmap.obj
 0001:000cd5e0       ?var_roundlightmaptex@@YAXXZ 00000001400ce5e0 f   lightmap.obj
 0001:000cd7b0       ?genreservedlightmaptexs@@YAXXZ 00000001400ce7b0 f   lightmap.obj
 0001:000ce2d0       ?fixrotatedlightmaps@@YAXXZ 00000001400cf2d0 f   lightmap.obj
 0001:000ce350       ?fixrotatedlightmaps@@YAXAEAUcube@@AEBUivec@@H@Z 00000001400cf350 f   lightmap.obj
 0001:000ce760       ?fixlightmapnormals@@YAXXZ 00000001400cf760 f   lightmap.obj
 0001:000ce970       ?var_fullbrightlevel@@YAXXZ 00000001400cf970 f   lightmap.obj
 0001:000ceb50       ?var_fullbright@@YAXXZ     00000001400cfb50 f   lightmap.obj
 0001:000ceb80       ?setfullbrightlevel@@YAXH@Z 00000001400cfb80 f   lightmap.obj
 0001:000ced70       ?clearlightmaps@@YAXXZ     00000001400cfd70 f   lightmap.obj
 0001:000cee10       ?patchlight@@YAXPEAH@Z     00000001400cfe10 f   lightmap.obj
 0001:000cf2e0       ?calclight@@YAXPEAH@Z      00000001400d02e0 f   lightmap.obj
 0001:000cfc30       ?setlightmapquality@@YA_NH@Z 00000001400d0c30 f   lightmap.obj
 0001:000cfcc0       ?setupthread@lightmapworker@@QEAA_NXZ 00000001400d0cc0 f   lightmap.obj
 0001:000cfd30       ?reset@lightmapworker@@QEAAXXZ 00000001400d0d30 f   lightmap.obj
 0001:000cfd90       ?cleanupthread@lightmapworker@@QEAAXXZ 00000001400d0d90 f   lightmap.obj
 0001:000cfde0       ??1lightmapworker@@QEAA@XZ 00000001400d0de0 f   lightmap.obj
 0001:000cfed0       ??0lightmapworker@@QEAA@XZ 00000001400d0ed0 f   lightmap.obj
 0001:000d0030       ?resetlightmaps@@YAX_N@Z   00000001400d1030 f   lightmap.obj
 0001:000d01a0       ?cleanuplightmaps@@YAXXZ   00000001400d11a0 f   lightmap.obj
 0001:000d1a90       ?work@lightmapworker@@SAHPEAX@Z 00000001400d2a90 f   lightmap.obj
 0001:000d5a00       ?checklightcache@@YAAEBU?$vector@H@@HH@Z 00000001400d6a00 f   lightmap.obj
 0001:000d5bc0       ?clearlightcache@@YAXH@Z   00000001400d6bc0 f   lightmap.obj
 0001:000d5d20       ?var_lightcachesize@@YAXXZ 00000001400d6d20 f   lightmap.obj
 0001:000da790       ?copy@LightMap@@QEAAXGGPEAEGG@Z 00000001400db790 f   lightmap.obj
 0001:000da850       ?insert@LightMap@@QEAA_NAEAG0PEAEGG@Z 00000001400db850 f   lightmap.obj
 0001:000da8e0       ?insert@PackNode@@QEAA_NAEAG0GG@Z 00000001400db8e0 f   lightmap.obj
 0001:000dabd0       ?show_calclight_progress@@YAXXZ 00000001400dbbd0 f   lightmap.obj
 0001:000daea0       ?check_calclight_canceled@@YAXXZ 00000001400dbea0 f   lightmap.obj
 0001:000daf10       ?setsurface@@YAXAEAUcube@@HAEBUsurfaceinfo@@PEBUvertinfo@@H@Z 00000001400dbf10 f   lightmap.obj
 0001:000db260       ?setsurfaces@@YAXAEAUcube@@PEBUsurfaceinfo@@PEBUvertinfo@@H@Z 00000001400dc260 f   lightmap.obj
 0001:000db300       ?brightencube@@YAXAEAUcube@@@Z 00000001400dc300 f   lightmap.obj
 0001:000db370       ?setupsunlight@@YAXXZ      00000001400dc370 f   lightmap.obj
 0001:000db500       ?setsunlightdir@@YAXXZ     00000001400dc500 f   lightmap.obj
 0001:000db670       ?var_sunlightpitch@@YAXXZ  00000001400dc670 f   lightmap.obj
 0001:000db680       ?var_sunlightyaw@@YAXXZ    00000001400dc680 f   lightmap.obj
 0001:000db690       ?var_sunlightscale@@YAXXZ  00000001400dc690 f   lightmap.obj
 0001:000db6a0       ?var_sunlight@@YAXXZ       00000001400dc6a0 f   lightmap.obj
 0001:000db700       ?var_skylight@@YAXXZ       00000001400dc700 f   lightmap.obj
 0001:000db750       ?var_ambient@@YAXXZ        00000001400dc750 f   lightmap.obj
 0001:000db7a0       ?previewblends@@YAXAEBUivec@@0@Z 00000001400dc7a0 f   lightmap.obj
 0001:000db930       ?updatelerpbounds@@YAXMPEBUlerpvert@@HAEAUlerpbounds@@1@Z 00000001400dc930 f   normal.obj
 0001:000dba20       ?setlerpstep@@YAXMAEAUlerpbounds@@@Z 00000001400dca20 f   normal.obj
 0001:000dbc40       ?addnormals@@YAXAEAUcube@@AEBUivec@@H@Z 00000001400dcc40 f   normal.obj
 0001:000dcd80       ?show_addnormals_progress@@YAXXZ 00000001400ddd80 f   normal.obj
 0001:000dd680       ?initlerpbounds@@YAXMMPEBUlerpvert@@HAEAUlerpbounds@@1@Z 00000001400de680 f   normal.obj
 0001:000dd960       ?lerpnormal@@YAXMMPEBUlerpvert@@HAEAUlerpbounds@@1AEAUvec@@2@Z 00000001400de960 f   normal.obj
 0001:000dddd0       ?calclerpverts@@YAXPEBUvec2@@PEBUvec@@PEAUlerpvert@@AEAH@Z 00000001400dedd0 f   normal.obj
 0001:000ddee0       ?findnormal@@YAXAEBUvec@@0AEAU1@@Z 00000001400deee0 f   normal.obj
 0001:000ddf60       ?calcnormals@@YAX_N@Z      00000001400def60 f   normal.obj
 0001:000de040       ?clearnormals@@YAXXZ       00000001400df040 f   normal.obj
 0001:000de730       ?calcmerges@@YAXXZ         00000001400df730 f   octa.obj
 0001:000de800       ?genmerges@@YAXPEAUcube@@AEBUivec@@H@Z 00000001400df800 f   octa.obj
 0001:000dedc0       ?mergepolys@@YAXHAEBUivec@@0HAEAU?$vector@Upoly@@@@@Z 00000001400dfdc0 f   octa.obj
 0001:000df170       ?addmerges@@YAXHAEBUivec@@0HAEAU?$vector@Upoly@@@@@Z 00000001400e0170 f   octa.obj
 0001:000df250       ?addmerge@@YAXAEAUcube@@HAEBUivec@@1HAEAUpoly@@@Z 00000001400e0250 f   octa.obj
 0001:000df5f0       ?mergepolys@@YA_NHAEAU?$hashset@Uplink@@@@AEAU?$vector@PEAUplink@@@@HAEAUpoly@@2AEBUpedge@@@Z 00000001400e05f0 f   octa.obj
 0001:000dfa40       ?genpoly@@YA_NAEAUcube@@HAEBUivec@@HHAEAU2@AEAHAEAUpoly@@@Z 00000001400e0a40 f   octa.obj
 0001:000e02c0       ?clippoly@@YA_NAEAUpoly@@AEBUfacebounds@@@Z 00000001400e12c0 f   octa.obj
 0001:000e0730       ?mincubeface@@YA_NAEBUcube@@HAEBUivec@@HAEAUfacebounds@@@Z 00000001400e1730 f   octa.obj
 0001:000e0850       ?mincubeface@@YAXAEBUcube@@HAEBUivec@@HAEBUfacebounds@@AEAU3@GG@Z 00000001400e1850 f   octa.obj
 0001:000e0cd0       ?mergefaces@@YAHHPEAUfacebounds@@H@Z 00000001400e1cd0 f   octa.obj
 0001:000e10e0       ?genclipplanes@@YAXAEBUcube@@AEBUivec@@HAEAUclipplanes@@_N@Z 00000001400e20e0 f   octa.obj
 0001:000e1830       ?calcvert@@YAXAEBUcube@@AEBUivec@@HAEAUvec@@H_N@Z 00000001400e2830 f   octa.obj
 0001:000e18c0       ?classifyface@@YAHAEBUcube@@HAEBUivec@@H@Z 00000001400e28c0 f   octa.obj
 0001:000e1c70       ?visibleface@@YA_NAEBUcube@@HAEBUivec@@HGGG@Z 00000001400e2c70 f   octa.obj
 0001:000e23d0       ?collapsedface@@YA_NAEBUcube@@H@Z 00000001400e33d0 f   octa.obj
 0001:000e3970       ?faceedges@@YAIAEBUcube@@H@Z 00000001400e4970 f   octa.obj
 0001:000e3a30       ?faceconvexity@@YAHAEBUcube@@H@Z 00000001400e4a30 f   octa.obj
 0001:000e3b30       ?faceconvexity@@YAHQEBUivec@@AEAH@Z 00000001400e4b30 f   octa.obj
 0001:000e3c60       ?notouchingface@@YA_NAEBUcube@@H@Z 00000001400e4c60 f   octa.obj
 0001:000e3ca0       ?touchingface@@YA_NAEBUcube@@H@Z 00000001400e4ca0 f   octa.obj
 0001:000e3ce0       ?collideface@@YA_NAEBUcube@@H@Z 00000001400e4ce0 f   octa.obj
 0001:000e3da0       ?edgespan2vectorcube@@YAXAEAUcube@@@Z 00000001400e4da0 f   octa.obj
 0001:000e49e0       ?genvertp@@YAXAEAUcube@@AEAUivec@@11AEAUplane@@_N@Z 00000001400e59e0 f   octa.obj
 0001:000e4c80       ?remip_@@YAXXZ             00000001400e5c80 f   octa.obj
 0001:000e4ca0       ?remip@@YA_NAEAUcube@@AEBUivec@@H@Z 00000001400e5ca0 f   octa.obj
 0001:000e5360       ?visibleorient@@YAHAEBUcube@@H@Z 00000001400e6360 f   octa.obj
 0001:000e5420       ?crushededge@@YA_NEH@Z     00000001400e6420 f   octa.obj
 0001:000e5440       ?subdividecube@@YA_NAEAUcube@@_N1@Z 00000001400e6440 f   octa.obj
 0001:000e61e0       ?forcemip@@YAXAEAUcube@@_N@Z 00000001400e71e0 f   octa.obj
 0001:000e6400       ?getmippedtexture@@YAHAEBUcube@@H@Z 00000001400e7400 f   octa.obj
 0001:000e6540       ?neighbourcube@@YAAEBUcube@@AEBU1@HAEBUivec@@HAEAU2@AEAH@Z 00000001400e7540 f   octa.obj
 0001:000e66f0       ?lookupmaterial@@YAHAEBUvec@@@Z 00000001400e76f0 f   octa.obj
 0001:000e67b0       ?lookupcube@@YAAEAUcube@@AEBUivec@@HAEAU2@AEAH@Z 00000001400e77b0 f   octa.obj
 0001:000e6960       ?validatec@@YAXPEAUcube@@H@Z 00000001400e7960 f   octa.obj
 0001:000e6a80       ?isvalidcube@@YA_NAEBUcube@@@Z 00000001400e7a80 f   octa.obj
 0001:000e6b80       ?printcube@@YAXXZ          00000001400e7b80 f   octa.obj
 0001:000e6c30       ?optiface@@YAXPEAEAEAUcube@@@Z 00000001400e7c30 f   octa.obj
 0001:000e6da0       ?setcubevector@@YAXAEAUcube@@HHHHAEBUivec@@@Z 00000001400e7da0 f   octa.obj
 0001:000e6eb0       ?getcubevector@@YAXAEAUcube@@HHHHAEAUivec@@@Z 00000001400e7eb0 f   octa.obj
 0001:000e6f80       ?discardchildren@@YAXAEAUcube@@_NH@Z 00000001400e7f80 f   octa.obj
 0001:000e70b0       ?freecubeext@@YAXAEAUcube@@@Z 00000001400e80b0 f   octa.obj
 0001:000e70e0       ?freeocta@@YAXPEAUcube@@@Z 00000001400e80e0 f   octa.obj
 0001:000e71f0       ?familysize@@YAHAEBUcube@@@Z 00000001400e81f0 f   octa.obj
 0001:000e7260       ?newcubes@@YAPEAUcube@@IH@Z 00000001400e8260 f   octa.obj
 0001:000e72f0       ?newcubeext@@YAPEAUcubeext@@AEAUcube@@H_N@Z 00000001400e82f0 f   octa.obj
 0001:000e73b0       ?growcubeext@@YAPEAUcubeext@@PEAU1@H@Z 00000001400e83b0 f   octa.obj
 0001:000e7430       ?setcubeext@@YAXAEAUcube@@PEAUcubeext@@@Z 00000001400e8430 f   octa.obj
 0001:000e7450       ?calcmergedsize@@YAHHAEBUivec@@HPEBUvertinfo@@H@Z 00000001400e8450 f   octa.obj
 0001:000e75f0       ?flataxisface@@YA_NAEBUcube@@H@Z 00000001400e85f0 f   octa.obj
 0001:000e7630       ?faceconvexity@@YAHPEBUvertinfo@@HH@Z 00000001400e8630 f   octa.obj
 0001:000e7790       ?genfaceverts@@YAXAEBUcube@@HQEAUivec@@@Z 00000001400e8790 f   octa.obj
 0001:000e7b30       ?faceconvexity@@YAHQEBUivec@@@Z 00000001400e8b30 f   octa.obj
 0001:000e7c00       ?visibletris@@YAHAEBUcube@@HAEBUivec@@HGG@Z 00000001400e8c00 f   octa.obj
 0001:000e8240       ?invalidatemerges@@YAXAEAUcube@@AEBUivec@@H_N@Z 00000001400e9240 f   octa.obj
 0001:000e8290       ?mpremip@@YAX_N@Z          00000001400e9290 f   octa.obj
 0001:000e9420       ?rendertexturepanel@@YAXHH@Z 00000001400ea420 f   octaedit.obj
 0001:000ea160       ?showtexgui@@YAXPEAH@Z     00000001400eb160 f   octaedit.obj
 0001:000ea2e0       ?g3d_texturemenu@@YAXXZ    00000001400eb2e0 f   octaedit.obj
 0001:000ea3b0       ?editmat@@YAXPEAD0@Z       00000001400eb3b0 f   octaedit.obj
 0001:000ea590       ?mpeditmat@@YAXHHAEAUselinfo@@_N@Z 00000001400eb590 f   octaedit.obj
 0001:000eaa10       ?setmat@@YAXAEAUcube@@GGGGH@Z 00000001400eba10 f   octaedit.obj
 0001:000eab80       ?rotate@@YAXPEAH@Z         00000001400ebb80 f   octaedit.obj
 0001:000eac90       ?mprotate@@YAXHAEAUselinfo@@_N@Z 00000001400ebc90 f   octaedit.obj
 0001:000eb4d0       ?flip@@YAXXZ               00000001400ec4d0 f   octaedit.obj
 0001:000eb5e0       ?mpflip@@YAXAEAUselinfo@@_N@Z 00000001400ec5e0 f   octaedit.obj
 0001:000ebb70       ?rotatecube@@YAXAEAUcube@@H@Z 00000001400ecb70 f   octaedit.obj
 0001:000ebe20       ?rotatequad@@YAXAEAUcube@@000@Z 00000001400ece20 f   octaedit.obj
 0001:000ebe90       ?flipcube@@YAXAEAUcube@@H@Z 00000001400ece90 f   octaedit.obj
 0001:000ec230       ?mflip@@YAII@Z             00000001400ed230 f   octaedit.obj
 0001:000ec260       ?rflip@@YAII@Z             00000001400ed260 f   octaedit.obj
 0001:000ec270       ?cflip@@YAII@Z             00000001400ed270 f   octaedit.obj
 0001:000ec290       ?dflip@@YAII@Z             00000001400ed290 f   octaedit.obj
 0001:000ec2c0       ?run@?$_icmd_replacesel@$0JKF@@@SAXXZ 00000001400ed2c0 f   octaedit.obj
 0001:000ec2d0       ?run@?$_icmd_replace@$0JKE@@@SAXXZ 00000001400ed2d0 f   octaedit.obj
 0001:000ec2e0       ?replace@@YAX_N@Z          00000001400ed2e0 f   octaedit.obj
 0001:000ec420       ?mpreplacetex@@YA_NHH_NAEAUselinfo@@AEAU?$databuf@E@@@Z 00000001400ed420 f   octaedit.obj
 0001:000ec4c0       ?mpreplacetex@@YAXHH_NAEAUselinfo@@0@Z 00000001400ed4c0 f   octaedit.obj
 0001:000ec940       ?replacetexcube@@YAXAEAUcube@@HH@Z 00000001400ed940 f   octaedit.obj
 0001:000eca00       ?run@?$_icmd_getreptex@$0JHN@@@SAXXZ 00000001400eda00 f   octaedit.obj
 0001:000ecb30       ?gettexname@@YAXPEAH0@Z    00000001400edb30 f   octaedit.obj
 0001:000ecbe0       ?getseltex@@YAXXZ          00000001400edbe0 f   octaedit.obj
 0001:000ecc60       ?getcurtex@@YAXXZ          00000001400edc60 f   octaedit.obj
 0001:000eccd0       ?gettex@@YAXXZ             00000001400edcd0 f   octaedit.obj
 0001:000ecf50       ?edittex_@@YAXPEAH@Z       00000001400edf50 f   octaedit.obj
 0001:000ed150       ?edittex@@YAXH_N@Z         00000001400ee150 f   octaedit.obj
 0001:000ed1c0       ?compactmruvslots@@YAXXZ   00000001400ee1c0 f   octaedit.obj
 0001:000ed320       ?filltexlist@@YAXXZ        00000001400ee320 f   octaedit.obj
 0001:000ed530       ?mpedittex@@YA_NHHAEAUselinfo@@AEAU?$databuf@E@@@Z 00000001400ee530 f   octaedit.obj
 0001:000ed550       ?shouldpacktex@@YAHH@Z     00000001400ee550 f   octaedit.obj
 0001:000ed720       ?mpedittex@@YAXHHAEAUselinfo@@_N@Z 00000001400ee720 f   octaedit.obj
 0001:000edc30       ?vshaderparam@@YAXPEBDPEAM111@Z 00000001400eec30 f   octaedit.obj
 0001:000edea0       ?vreset@@YAXXZ             00000001400eeea0 f   octaedit.obj
 0001:000ee080       ?vcolor@@YAXPEAM00@Z       00000001400ef080 f   octaedit.obj
 0001:000ee2b0       ?valpha@@YAXPEAM0@Z        00000001400ef2b0 f   octaedit.obj
 0001:000ee4c0       ?vlayer@@YAXPEAH@Z         00000001400ef4c0 f   octaedit.obj
 0001:000ee720       ?vscale@@YAXPEAM@Z         00000001400ef720 f   octaedit.obj
 0001:000ee930       ?vscroll@@YAXPEAM0@Z       00000001400ef930 f   octaedit.obj
 0001:000eeb50       ?voffset@@YAXPEAH0@Z       00000001400efb50 f   octaedit.obj
 0001:000eed80       ?vrotate@@YAXPEAH@Z        00000001400efd80 f   octaedit.obj
 0001:000eef90       ?vdelta@@YAXPEAD@Z         00000001400eff90 f   octaedit.obj
 0001:000ef0a0       ?mpeditvslot@@YA_NHHAEAUselinfo@@AEAU?$databuf@E@@@Z 00000001400f00a0 f   octaedit.obj
 0001:000ef1f0       ?mpeditvslot@@YAXHAEAUVSlot@@HAEAUselinfo@@_N@Z 00000001400f01f0 f   octaedit.obj
 0001:000ef850       ?edittexcube@@YAXAEAUcube@@HHAEA_N@Z 00000001400f0850 f   octaedit.obj
 0001:000efe60       ?tofronttex@@YAXXZ         00000001400f0e60 f   octaedit.obj
 0001:000eff40       ?delcube@@YAXXZ            00000001400f0f40 f   octaedit.obj
 0001:000f0050       ?mpdelcube@@YAXAEAUselinfo@@_N@Z 00000001400f1050 f   octaedit.obj
 0001:000f03e0       ?pushsel@@YAXPEAH@Z        00000001400f13e0 f   octaedit.obj
 0001:000f04a0       ?editface@@YAXPEAH0@Z      00000001400f14a0 f   octaedit.obj
 0001:000f0550       ?mpeditface@@YAXHHAEAUselinfo@@_N@Z 00000001400f1550 f   octaedit.obj
 0001:000f0e40       ?linkedpush@@YAXAEAUcube@@HHHHH@Z 00000001400f1e40 f   octaedit.obj
 0001:000f1070       ?pushedge@@YAXAEAEHH@Z     00000001400f2070 f   octaedit.obj
 0001:000f1120       ?bounded@@YAHH@Z           00000001400f2120 f   octaedit.obj
 0001:000f1140       ?edithmap@@YAXHH@Z         00000001400f2140 f   octaedit.obj
 0001:000f1190       ?run@hmap@@YAXHH@Z         00000001400f2190 f   octaedit.obj
 0001:000f1840       ?rippleandset@hmap@@YAXXZ  00000001400f2840 f   octaedit.obj
 0001:000f18b0       ?smooth@hmap@@YAXXZ        00000001400f28b0 f   octaedit.obj
 0001:000f19d0       ?paint@hmap@@YAXXZ         00000001400f29d0 f   octaedit.obj
 0001:000f1bb0       ?ripple@hmap@@YAXHHH_N@Z   00000001400f2bb0 f   octaedit.obj
 0001:000f23b0       ?select@hmap@@YAXHHH@Z     00000001400f33b0 f   octaedit.obj
 0001:000f28d0       ?addpoint@hmap@@YAXHHHH@Z  00000001400f38d0 f   octaedit.obj
 0001:000f2910       ?pushside@hmap@@YAXAEAUcube@@HHHH@Z 00000001400f3910 f   octaedit.obj
 0001:000f2a80       ?getface@hmap@@YAIPEAUcube@@H@Z 00000001400f3a80 f   octaedit.obj
 0001:000f2ac0       ?getcube@hmap@@YAPEAUcube@@Uivec@@H@Z 00000001400f3ac0 f   octaedit.obj
 0001:000f2c20       ?run@?$_icmd_hmapselect@$0GCM@@@SAXXZ 00000001400f3c20 f   octaedit.obj
 0001:000f2d00       ?hmapcancel@@YAXXZ         00000001400f3d00 f   octaedit.obj
 0001:000f2d20       ?brushvert@@YAXPEAH00@Z    00000001400f3d20 f   octaedit.obj
 0001:000f2e50       ?clearbrush@@YAXXZ         00000001400f3e50 f   octaedit.obj
 0001:000f2ea0       ?compacteditvslots@@YAXXZ  00000001400f3ea0 f   octaedit.obj
 0001:000f3090       ?paste@@YAXXZ              00000001400f4090 f   octaedit.obj
 0001:000f31a0       ?pastehilite@@YAXXZ        00000001400f41a0 f   octaedit.obj
 0001:000f3240       ?copy@@YAXXZ               00000001400f4240 f   octaedit.obj
 0001:000f3280       ?mppaste@@YAXAEAPEAUeditinfo@@AEAUselinfo@@_N@Z 00000001400f4280 f   octaedit.obj
 0001:000f33b0       ?mpcopy@@YAXAEAPEAUeditinfo@@AEAUselinfo@@_N@Z 00000001400f43b0 f   octaedit.obj
 0001:000f3660       ?previewprefab@@YAXPEBDAEBUvec@@@Z 00000001400f4660 f   octaedit.obj
 0001:000f3fd0       ?genprefabmesh@@YAXAEAUprefab@@@Z 00000001400f4fd0 f   octaedit.obj
 0001:000f4d40       ?pasteprefab@@YAXPEAD@Z    00000001400f5d40 f   octaedit.obj
 0001:000f4dc0       ?loadprefab@@YAPEAUprefab@@PEBD_N@Z 00000001400f5dc0 f   octaedit.obj
 0001:000f5250       ?pasteblock@@YAXAEAUblock3@@AEAUselinfo@@_N@Z 00000001400f6250 f   octaedit.obj
 0001:000f5590       ?saveprefab@@YAXPEAD@Z     00000001400f6590 f   octaedit.obj
 0001:000f5a70       ?delprefab@@YAXPEAD@Z      00000001400f6a70 f   octaedit.obj
 0001:000f5ba0       ?cleanupprefabs@@YAXXZ     00000001400f6ba0 f   octaedit.obj
 0001:000f5c70       ?packundo@@YA_NHAEAHAEAPEAE0@Z 00000001400f6c70 f   octaedit.obj
 0001:000f5cc0       ?unpackundo@@YA_NPEBEHH@Z  00000001400f6cc0 f   octaedit.obj
 0001:000f5ea0       ?packundo@@YA_NPEAUundoblock@@AEAHAEAPEAE1@Z 00000001400f6ea0 f   octaedit.obj
 0001:000f61c0       ?freeeditinfo@@YAXAEAPEAUeditinfo@@@Z 00000001400f71c0 f   octaedit.obj
 0001:000f6290       ?unpackeditinfo@@YA_NAEAPEAUeditinfo@@PEBEHH@Z 00000001400f7290 f   octaedit.obj
 0001:000f63c0       ?packeditinfo@@YA_NPEAUeditinfo@@AEAHAEAPEAE1@Z 00000001400f73c0 f   octaedit.obj
 0001:000f6d50       ?editredo@@YAXXZ           00000001400f7d50 f   octaedit.obj
 0001:000f6d70       ?editundo@@YAXXZ           00000001400f7d70 f   octaedit.obj
 0001:000f6d90       ?swapundo@@YAXAEAUundolist@@0H@Z 00000001400f7d90 f   octaedit.obj
 0001:000f7490       ?makeundo@@YAXXZ           00000001400f8490 f   octaedit.obj
 0001:000f7570       ?makeundo@@YAXAEAUselinfo@@@Z 00000001400f8570 f   octaedit.obj
 0001:000f75a0       ?addundo@@YAXPEAUundoblock@@@Z 00000001400f85a0 f   octaedit.obj
 0001:000f7690       ?newundocube@@YAPEAUundoblock@@AEAUselinfo@@@Z 00000001400f8690 f   octaedit.obj
 0001:000f7790       ?clearundos@@YAXXZ         00000001400f8790 f   octaedit.obj
 0001:000f77a0       ?pruneundos@@YAXH@Z        00000001400f87a0 f   octaedit.obj
 0001:000f7910       ?pasteundo@@YAXPEAUundoblock@@@Z 00000001400f8910 f   octaedit.obj
 0001:000f7a80       ?pasteundoblock@@YAXPEAUblock3@@PEAE@Z 00000001400f8a80 f   octaedit.obj
 0001:000f7be0       ?freeundo@@YAXPEAUundoblock@@@Z 00000001400f8be0 f   octaedit.obj
 0001:000f7c10       ?selgridmap@@YAXAEAUselinfo@@PEAE@Z 00000001400f8c10 f   octaedit.obj
 0001:000f7e00       ?freeblock@@YAXPEAUblock3@@_N@Z 00000001400f8e00 f   octaedit.obj
 0001:000f7f40       ?blockcopy@@YAPEAUblock3@@AEBU1@H@Z 00000001400f8f40 f   octaedit.obj
 0001:000f7fc0       ?blockcopy@@YAXAEBUblock3@@HPEAU1@@Z 00000001400f8fc0 f   octaedit.obj
 0001:000f8320       ?changed@@YAXAEBUblock3@@_N@Z 00000001400f9320 f   octaedit.obj
 0001:000f8400       ?readychanges@@YAXAEBUivec@@0PEAUcube@@0H@Z 00000001400f9400 f   octaedit.obj
 0001:000f8600       ?tryedit@@YAXXZ            00000001400f9600 f   octaedit.obj
 0001:000f8690       ?rendereditcursor@@YAXXZ   00000001400f9690 f   octaedit.obj
 0001:000f99f0       ?editmoveplane@@YA_NAEBUvec@@0HMAEAU1@1_N@Z 00000001400fa9f0 f   octaedit.obj
 0001:000f9ba0       ?updateselection@@YAXXZ    00000001400faba0 f   octaedit.obj
 0001:000f9c50       ?normalizelookupcube@@YAXAEBUivec@@@Z 00000001400fac50 f   octaedit.obj
 0001:000f9cf0       ?countselchild@@YAXPEAUcube@@AEBUivec@@H@Z 00000001400facf0 f   octaedit.obj
 0001:000f9ec0       ?run@?$_icmd_havesel@$0BAD@@@SAXXZ 00000001400faec0 f   octaedit.obj
 0001:000f9ef0       ?blockcube@@YAAEAUcube@@HHHAEBUblock3@@H@Z 00000001400faef0 f   octaedit.obj
 0001:000f9fc0       ?run@?$_icmd_selswap@$0ON@@@SAXXZ 00000001400fafc0 f   octaedit.obj
 0001:000fa050       ?run@?$_icmd_selrestore@$0OM@@@SAXXZ 00000001400fb050 f   octaedit.obj
 0001:000fa0b0       ?run@?$_icmd_selsave@$0OL@@@SAXXZ 00000001400fb0b0 f   octaedit.obj
 0001:000fa110       ?run@?$_icmd_selmoved@$0OK@@@SAXXZ 00000001400fb110 f   octaedit.obj
 0001:000fa180       ?run@?$_icmd_edittoggle@$0OD@@@SAXXZ 00000001400fb180 f   octaedit.obj
 0001:000fa190       ?selextend@@YAXXZ          00000001400fb190 f   octaedit.obj
 0001:000fa2a0       ?reorient@@YAXXZ           00000001400fb2a0 f   octaedit.obj
 0001:000fa310       ?toggleedit@@YAX_N@Z       00000001400fb310 f   octaedit.obj
 0001:000fa5e0       ?cancelsel@@YAXXZ          00000001400fb5e0 f   octaedit.obj
 0001:000fa620       ?cubecancel@@YAXXZ         00000001400fb620 f   octaedit.obj
 0001:000fa660       ?forcenextundo@@YAXXZ      00000001400fb660 f   octaedit.obj
 0001:000fa680       ?var_hmapedit@@YAXXZ       00000001400fb680 f   octaedit.obj
 0001:000fa6a0       ?var_gridpower@@YAXXZ      00000001400fb6a0 f   octaedit.obj
 0001:000fa710       ?run@?$_icmd_moving@$0HN@@@SAXPEAH@Z 00000001400fb710 f   octaedit.obj
 0001:000fa7d0       ?var_dragging@@YAXXZ       00000001400fb7d0 f   octaedit.obj
 0001:000fa840       ?boxsgrid@@YAXHUvec@@0H@Z  00000001400fb840 f   octaedit.obj
 0001:000fafd0       ?boxs3D@@YAXAEBUvec@@U1@H@Z 00000001400fbfd0 f   octaedit.obj
 0001:000fb050       ?boxs@@YAXHUvec@@AEBU1@@Z  00000001400fc050 f   octaedit.obj
 0001:000fb250       ?boxs@@YAXHUvec@@AEBU1@M@Z 00000001400fc250 f   octaedit.obj
 0001:000fb8d0       ?commitchanges@@YAX_N@Z    00000001400fc8d0 f   octaedit.obj
 0001:000fb9a0       ?noedit@@YA_N_N0@Z         00000001400fc9a0 f   octaedit.obj
 0001:000fc220       ?recalc@@YAXXZ             00000001400fd220 f   octarender.obj
 0001:000fc230       ?precachetextures@@YAXXZ   00000001400fd230 f   octarender.obj
 0001:000fc420       ?findtjoints@@YAXHAEBUedgegroup@@@Z 00000001400fd420 f   octarender.obj
 0001:000fc5d0       ?addtjoint@@YAXAEBUedgegroup@@AEBUcubeedge@@H@Z 00000001400fd5d0 f   octarender.obj
 0001:000fc7c0       ?updateva@@YAHPEAUcube@@AEBUivec@@HH@Z 00000001400fd7c0 f   octarender.obj
 0001:000fd090       ?var_vacubesize@@YAXXZ     00000001400fe090 f   octarender.obj
 0001:000fd0a0       ?var_vafacemin@@YAXXZ      00000001400fe0a0 f   octarender.obj
 0001:000fd0b0       ?var_vafacemax@@YAXXZ      00000001400fe0b0 f   octarender.obj
 0001:000fd2b0       ?setva@@YAXAEAUcube@@AEBUivec@@HH@Z 00000001400fe2b0 f   octarender.obj
 0001:000fdb70       ?calcmatbb@@YAXAEBUivec@@HAEAU1@1@Z 00000001400feb70 f   octarender.obj
 0001:000fdcc0       ?calcgeombb@@YAXAEBUivec@@HAEAU1@1@Z 00000001400fecc0 f   octarender.obj
 0001:000fde40       ?rendercube@@YAXAEAUcube@@AEBUivec@@HHAEAH@Z 00000001400fee40 f   octarender.obj
 0001:000fe110       ?addmergedverts@@YAXHAEBUivec@@@Z 00000001400ff110 f   octarender.obj
 0001:000fe5d0       ?findmergedfaces@@YAHAEAUcube@@AEBUivec@@HHH@Z 00000001400ff5d0 f   octarender.obj
 0001:000fe720       ?genmergedfaces@@YAHAEAUcube@@AEBUivec@@HH@Z 00000001400ff720 f   octarender.obj
 0001:000feb00       ?updatevabb@@YAXPEAUvtxarray@@_N@Z 00000001400ffb00 f   octarender.obj
 0001:000fef20       ?clearvas@@YAXPEAUcube@@@Z 00000001400fff20 f   octarender.obj
 0001:000ff170       ?newva@@YAPEAUvtxarray@@AEBUivec@@H@Z 0000000140100170 f   octarender.obj
 0001:000ff300       ?addskyverts@@YAXAEBUivec@@H@Z 0000000140100300 f   octarender.obj
 0001:000ffb60       ?genskyfaces@@YAXAEAUcube@@AEBUivec@@H@Z 0000000140100b60 f   octarender.obj
 0001:000ffe70       ?minskyface@@YAXAEAUcube@@HAEBUivec@@HAEAUfacebounds@@@Z 0000000140100e70 f   octarender.obj
 0001:001001e0       ?gencubeverts@@YAXAEAUcube@@AEBUivec@@HH@Z 00000001401011e0 f   octarender.obj
 0001:00100b80       ?gencubeedges@@YAXPEAUcube@@AEBUivec@@H@Z 0000000140101b80 f   octarender.obj
 0001:00100cc0       ?gencubeedges@@YAXAEAUcube@@AEBUivec@@H@Z 0000000140101cc0 f   octarender.obj
 0001:001015d0       ?addcubeverts@@YAXAEAUVSlot@@HHPEAUvec@@HGGPEAUvertinfo@@HHGH_NH@Z 00000001401025d0 f   octarender.obj
 0001:00101f40       ?decodenormal@@YA?AUvec@@G@Z 0000000140102f40 f   octarender.obj
 0001:00102150       ?addgrasstri@@YAXHPEAUvertex@@HGG@Z 0000000140103150 f   octarender.obj
 0001:00102a20       ?addtris@@YAXAEBUsortkey@@HPEAUvertex@@PEAHHHHH@Z 0000000140103a20 f   octarender.obj
 0001:00103720       ?var_filltjoints@@YAXXZ    0000000140104720 f   octarender.obj
 0001:00103730       ?calcshadowmask@@YAHPEAUvec@@H@Z 0000000140104730 f   octarender.obj
 0001:00103d70       ?addvbo@@YAPEAEPEAUvtxarray@@HHH@Z 0000000140104d70 f   octarender.obj
 0001:00103e00       ?flushvbo@@YAXH@Z          0000000140104e00 f   octarender.obj
 0001:00103ff0       ?readva@@YA_NPEAUvtxarray@@AEAPEAGAEAPEAUvertex@@@Z 0000000140104ff0 f   octarender.obj
 0001:00104140       ?genvbo@@YAXHPEAXHPEAPEAUvtxarray@@H@Z 0000000140105140 f   octarender.obj
 0001:00104290       ?destroyvbo@@YAXI@Z        0000000140105290 f   octarender.obj
 0001:00104360       ?var_vbosize@@YAXXZ        0000000140105360 f   octarender.obj
 0001:00104370       ?octarender@@YAXXZ         0000000140105370 f   octarender.obj
 0001:00104510       ?updatevabbs@@YAX_N@Z      0000000140105510 f   octarender.obj
 0001:00104570       ?guessnormals@@YAXPEBUvec@@HPEAU1@@Z 0000000140105570 f   octarender.obj
 0001:001049d0       ?reduceslope@@YAXAEAUivec@@@Z 00000001401059d0 f   octarender.obj
 0001:00104b00       ?findtjoints@@YAXXZ        0000000140105b00 f   octarender.obj
 0001:00104c20       ?encodenormal@@YAGAEBUvec@@@Z 0000000140105c20 f   octarender.obj
 0001:00104d00       ?destroyva@@YAXPEAUvtxarray@@_N@Z 0000000140105d00 f   octarender.obj
 0001:00105030       ?allchanged@@YAX_N@Z       0000000140106030 f   octarender.obj
 0001:00109cd0       ?run@?$_icmd_attack@$0IEE@@@SAXPEAH@Z 000000014010acd0 f   physics.obj
 0001:00109d10       ?run@?$_icmd_jump@$0IED@@@SAXPEAH@Z 000000014010ad10 f   physics.obj
 0001:00109d70       ?run@?$_icmd_right@$0IDK@@@SAXPEAH@Z 000000014010ad70 f   physics.obj
 0001:00109db0       ?run@?$_icmd_left@$0IDJ@@@SAXPEAH@Z 000000014010adb0 f   physics.obj
 0001:00109df0       ?run@?$_icmd_forward@$0IDI@@@SAXPEAH@Z 000000014010adf0 f   physics.obj
 0001:00109e30       ?run@?$_icmd_backward@$0IDH@@@SAXPEAH@Z 000000014010ae30 f   physics.obj
 0001:00109e70       ?moveplatform@@YA_NPEAUphysent@@AEBUvec@@@Z 000000014010ae70 f   physics.obj
 0001:0010b100       ?platformcollide@@YA_NPEAUphysent@@0AEBUvec@@M@Z 000000014010c100 f   physics.obj
 0001:0010b1b0       ?updatephysstate@@YAXPEAUphysent@@@Z 000000014010c1b0 f   physics.obj
 0001:0010b3b0       ?bounce@@YA_NPEAUphysent@@MMM@Z 000000014010c3b0 f   physics.obj
 0001:0010b500       ?moveplayer@@YAXPEAUphysent@@H_N@Z 000000014010c500 f   physics.obj
 0001:0010b5f0       ?interppos@@YAXPEAUphysent@@@Z 000000014010c5f0 f   physics.obj
 0001:0010b6a0       ?physicsframe@@YAXXZ       000000014010c6a0 f   physics.obj
 0001:0010b770       ?moveplayer@@YA_NPEAUphysent@@H_NH@Z 000000014010c770 f   physics.obj
 0001:0010bcf0       ?modifygravity@@YAXPEAUphysent@@_NH@Z 000000014010ccf0 f   physics.obj
 0001:0010bf00       ?modifyvelocity@@YAXPEAUphysent@@_N11H@Z 000000014010cf00 f   physics.obj
 0001:0010c3d0       ?vectoyawpitch@@YAXAEBUvec@@AEAM1@Z 000000014010d3d0 f   physics.obj
 0001:0010c4a0       ?vecfromyawpitch@@YAXMMHHAEAUvec@@@Z 000000014010d4a0 f   physics.obj
 0001:0010c5f0       ?phystest@@YAXXZ           000000014010d5f0 f   physics.obj
 0001:0010c780       ?dropenttofloor@@YAXPEAUentity@@@Z 000000014010d780 f   physics.obj
 0001:0010c7d0       ?dropheight@@YAMAEAUentity@@@Z 000000014010d7d0 f   physics.obj
 0001:0010c800       ?droptofloor@@YA_NAEAUvec@@MM@Z 000000014010d800 f   physics.obj
 0001:0010cb40       ?movecamera@@YA_NPEAUphysent@@AEBUvec@@MM@Z 000000014010db40 f   physics.obj
 0001:0010cd20       ?avoidcollision@@YAXPEAUphysent@@AEBUvec@@0M@Z 000000014010dd20 f   physics.obj
 0001:0010cf20       ?bounce@@YA_NPEAUphysent@@MMMM@Z 000000014010df20 f   physics.obj
 0001:0010d5f0       ?spacemove@@YA_NPEAUphysent@@AEAUvec@@@Z 000000014010e5f0 f   physics.obj
 0001:0010dae0       ?move@@YA_NPEAUphysent@@AEAUvec@@@Z 000000014010eae0 f   physics.obj
 0001:0010dff0       ?findfloor@@YA_NPEAUphysent@@_NAEBUvec@@AEA_NAEAU2@@Z 000000014010eff0 f   physics.obj
 0001:0010e2d0       ?landing@@YAXPEAUphysent@@AEAUvec@@AEBU2@_N@Z 000000014010f2d0 f   physics.obj
 0001:0010e340       ?falling@@YAXPEAUphysent@@AEAUvec@@AEBU2@@Z 000000014010f340 f   physics.obj
 0001:0010e440       ?trystepdown@@YA_NPEAUphysent@@AEAUvec@@_N@Z 000000014010f440 f   physics.obj
 0001:0010e570       ?trystepdown@@YA_NPEAUphysent@@AEAUvec@@MMM_N@Z 000000014010f570 f   physics.obj
 0001:0010e970       ?trystepup@@YA_NPEAUphysent@@AEAUvec@@AEBU2@M2@Z 000000014010f970 f   physics.obj
 0001:0010ef90       ?switchfloor@@YAXPEAUphysent@@AEAUvec@@AEBU2@@Z 000000014010ff90 f   physics.obj
 0001:0010f200       ?slideagainst@@YAXPEAUphysent@@AEAUvec@@AEBU2@_N3@Z 0000000140110200 f   physics.obj
 0001:0010f3b0       ?recalcdir@@YAXPEAUphysent@@AEBUvec@@AEAU2@@Z 00000001401103b0 f   physics.obj
 0001:0010f4a0       ?collide@@YA_NPEAUphysent@@AEBUvec@@M_N2@Z 00000001401104a0 f   physics.obj
 0001:0010fc90       ?mmcollide@@YA_NPEAUphysent@@AEBUvec@@AEAUoctaentities@@@Z 0000000140110c90 f   physics.obj
 0001:00110180       ?rotatebb@@YAXAEAUvec@@0H@Z 0000000140111180 f   physics.obj
 0001:00110270       ?plcollide@@YA_NPEAUphysent@@AEBUvec@@_N@Z 0000000140111270 f   physics.obj
 0001:001106a0       ?overlapsdynent@@YA_NAEBUvec@@M@Z 00000001401116a0 f   physics.obj
 0001:00110820       ?updatedynentcache@@YAXPEAUphysent@@@Z 0000000140111820 f   physics.obj
 0001:00110a50       ?checkdynentcache@@YAAEBU?$vector@PEAUphysent@@@@HH@Z 0000000140111a50 f   physics.obj
 0001:00110c10       ?var_dynentsize@@YAXXZ     0000000140111c10 f   physics.obj
 0001:00110c60       ?cleardynentcache@@YAXXZ   0000000140111c60 f   physics.obj
 0001:00110cb0       ?ellipsecollide@@YA_NPEAUphysent@@AEBUvec@@11MMMMM@Z 0000000140111cb0 f   physics.obj
 0001:00111100       ?ellipseboxcollide@@YA_NPEAUphysent@@AEBUvec@@11MMMMM@Z 0000000140112100 f   physics.obj
 0001:001115c0       ?rayfloor@@YAMAEBUvec@@AEAU1@HM@Z 00000001401125c0 f   physics.obj
 0001:00111670       ?raycubelos@@YA_NAEBUvec@@0AEAU1@@Z 0000000140112670 f   physics.obj
 0001:001117a0       ?raycubepos@@YAMAEBUvec@@0AEAU1@MHH@Z 00000001401127a0 f   physics.obj
 0001:00111850       ?raycube@@YAMAEBUvec@@0MHHPEAUextentity@@@Z 0000000140112850 f   physics.obj
 0001:00112fa0       ?entinmap@@YA_NPEAUdynent@@_N@Z 0000000140113fa0 f   physics.obj
 0001:001132e0       ?rayent@@YAMAEBUvec@@0MHHAEAH1@Z 00000001401142e0 f   physics.obj
 0001:001135b0       ?resetclipplanes@@YAXXZ    00000001401145b0 f   physics.obj
 0001:001135f0       ?shadowray@@YAMPEAUShadowRayCache@@AEBUvec@@1MHPEAUextentity@@@Z 00000001401145f0 f   physics.obj
 0001:00113ee0       ?shadowray@@YAMAEBUvec@@0MHPEAUextentity@@@Z 0000000140114ee0 f   physics.obj
 0001:001147f0       ?newshadowraycache@@YAPEAUShadowRayCache@@XZ 00000001401157f0 f   physics.obj
 0001:00114830       ?freeshadowraycache@@YAXAEAPEAUShadowRayCache@@@Z 0000000140115830 f   physics.obj
 0001:00114860       ?resetshadowraycache@@YAXPEAUShadowRayCache@@@Z 0000000140115860 f   physics.obj
 0001:001149b0       ?getnumviewcells@@YAHXZ    00000001401159b0 f   pvs.obj
 0001:001149c0       ?loadpvs@@YAXPEAUstream@@H@Z 00000001401159c0 f   pvs.obj
 0001:00114c90       ?loadviewcells@@YAPEAUviewcellnode@@PEAUstream@@@Z 0000000140115c90 f   pvs.obj
 0001:00114d80       ?savepvs@@YAXPEAUstream@@@Z 0000000140115d80 f   pvs.obj
 0001:00114ef0       ?saveviewcells@@YAXPEAUstream@@AEAUviewcellnode@@@Z 0000000140115ef0 f   pvs.obj
 0001:00114f70       ?waterpvsoccluded@@YA_NH@Z 0000000140115f70 f   pvs.obj
 0001:00114fe0       ?pvsoccludedsphere@@YA_NAEBUvec@@M@Z 0000000140115fe0 f   pvs.obj
 0001:001150a0       ?pvsoccluded@@YA_NAEBUivec@@0@Z 00000001401160a0 f   pvs.obj
 0001:00115440       ?pvsstats@@YAXXZ           0000000140116440 f   pvs.obj
 0001:00115490       ?genpvs@@YAXPEAH@Z         0000000140116490 f   pvs.obj
 0001:00115c20       ?testpvs@@YAXPEAH@Z        0000000140116c20 f   pvs.obj
 0001:00116680       ?clearpvs@@YAXXZ           0000000140117680 f   pvs.obj
 0001:001166f0       ?setviewcell@@YAXAEBUvec@@@Z 00000001401176f0 f   pvs.obj
 0001:001167e0       ?var_lockpvs@@YAXXZ        00000001401177e0 f   pvs.obj
 0001:00117df0       ?getworldsize@@YAHXZ       0000000140118df0 f   world.obj
 0001:00117e00       ?mpeditent@@YAXHAEBUvec@@HHHHHH_N@Z 0000000140118e00 f   world.obj
 0001:00117fb0       ?mapname@@YAXXZ            0000000140118fb0 f   world.obj
 0001:00118030       ?mapenlarge@@YAXXZ         0000000140119030 f   world.obj
 0001:00118070       ?newmap@@YAXPEAH@Z         0000000140119070 f   world.obj
 0001:001180f0       ?shrinkmap@@YAXXZ          00000001401190f0 f   world.obj
 0001:00118440       ?enlargemap@@YA_N_N@Z      0000000140119440 f   world.obj
 0001:001185d0       ?emptymap@@YA_NH_NPEBD0@Z  00000001401195d0 f   world.obj
 0001:00118bb0       ?startmap@@YAXPEBD@Z       0000000140119bb0 f   world.obj
 0001:00118ce0       ?resetmap@@YAXXZ           0000000140119ce0 f   world.obj
 0001:00119030       ?splitocta@@YAXPEAUcube@@H@Z 000000014011a030 f   world.obj
 0001:001190a0       ?findplayerspawn@@YAXPEAUdynent@@HH@Z 000000014011a0a0 f   world.obj
 0001:001192a0       ?findentity@@YAHHHHH@Z     000000014011a2a0 f   world.obj
 0001:00119370       ?entattr@@YAXPEAH00@Z      000000014011a370 f   world.obj
 0001:00119950       ?enttype@@YAXPEADPEAH@Z    000000014011a950 f   world.obj
 0001:00119e10       ?run@?$_icmd_entindex@$0EDH@@@SAXXZ 000000014011ae10 f   world.obj
 0001:00119e30       ?run@?$_icmd_entget@$0EDG@@@SAXXZ 000000014011ae30 f   world.obj
 0001:0011a050       ?run@?$_icmd_insel@$0EDF@@@SAXXZ 000000014011b050 f   world.obj
 0001:0011a090       ?run@?$_icmd_entloop@$0EDE@@@SAXPEAI@Z 000000014011b090 f   world.obj
 0001:0011a3b0       ?run@?$_icmd_entselect@$0EDD@@@SAXPEAI@Z 000000014011b3b0 f   world.obj
 0001:0011a4c0       ?run@?$_icmd_enthavesel@$0EDC@@@SAXXZ 000000014011b4c0 f   world.obj
 0001:0011a570       ?nearestent@@YAXXZ         000000014011b570 f   world.obj
 0001:0011a690       ?printent@@YAXAEAUextentity@@PEADH@Z 000000014011b690 f   world.obj
 0001:0011a830       ?entset@@YAXPEADPEAH1111@Z 000000014011b830 f   world.obj
 0001:0011ade0       ?entpaste@@YAXXZ           000000014011bde0 f   world.obj
 0001:0011b210       ?entcopy@@YAXXZ            000000014011c210 f   world.obj
 0001:0011b3b0       ?newent@@YAXPEADPEAH1111@Z 000000014011c3b0 f   world.obj
 0001:0011b580       ?newentity@@YAXHHHHHH@Z    000000014011c580 f   world.obj
 0001:0011b6f0       ?newentity@@YAPEAUextentity@@_NAEBUvec@@HHHHHHAEAH@Z 000000014011c6f0 f   world.obj
 0001:0011bb00       ?attachent@@YAXXZ          000000014011cb00 f   world.obj
 0001:0011bf90       ?dropent@@YAXXZ            000000014011cf90 f   world.obj
 0001:0011c420       ?dropentity@@YA_NAEAUentity@@H@Z 000000014011d420 f   world.obj
 0001:0011c6b0       ?findtype@@YAHPEAD@Z       000000014011d6b0 f   world.obj
 0001:0011c730       ?delent@@YAXXZ             000000014011d730 f   world.obj
 0001:0011cae0       ?entautoview@@YAXPEAH@Z    000000014011dae0 f   world.obj
 0001:0011cc50       ?entpush@@YAXPEAH@Z        000000014011dc50 f   world.obj
 0001:0011d2e0       ?run@?$_icmd_entmoving@$0DCD@@@SAXPEAH@Z 000000014011e2e0 f   world.obj
 0001:0011d3e0       ?run@?$_icmd_enttoggle@$0DBF@@@SAXXZ 000000014011e3e0 f   world.obj
 0001:0011d470       ?run@?$_icmd_entadd@$0DAP@@@SAXXZ 000000014011e470 f   world.obj
 0001:0011d530       ?enttoggle@@YA_NH@Z        000000014011e530 f   world.obj
 0001:0011dd20       ?renderentradius@@YAXAEAUextentity@@_N@Z 000000014011ed20 f   world.obj
 0001:0011e190       ?renderentcone@@YAXAEBUextentity@@AEBUvec@@MM@Z 000000014011f190 f   world.obj
 0001:0011e830       ?renderentarrow@@YAXAEBUextentity@@AEBUvec@@M@Z 000000014011f830 f   world.obj
 0001:0011ed10       ?renderentattachment@@YAXAEBUextentity@@@Z 000000014011fd10 f   world.obj
 0001:0011ee00       ?renderentsphere@@YAXAEBUextentity@@M@Z 000000014011fe00 f   world.obj
 0001:0011f1c0       ?renderentring@@YAXAEBUextentity@@MH@Z 00000001401201c0 f   world.obj
 0001:0011f530       ?entrotate@@YAXPEAH@Z      0000000140120530 f   world.obj
 0001:0011f980       ?entflip@@YAXXZ            0000000140120980 f   world.obj
 0001:0011fc40       ?getselpos@@YA?AUvec@@XZ   0000000140120c40 f   world.obj
 0001:0011fce0       ?attachentities@@YAXXZ     0000000140120ce0 f   world.obj
 0001:00120000       ?attachentity@@YAXAEAUextentity@@@Z 0000000140121000 f   world.obj
 0001:00120100       ?detachentity@@YAXAEAUextentity@@@Z 0000000140121100 f   world.obj
 0001:00120120       ?makeundoent@@YAXXZ        0000000140121120 f   world.obj
 0001:00120170       ?newundoent@@YAPEAUundoblock@@XZ 0000000140121170 f   world.obj
 0001:00120230       ?entadd@@YAXH@Z            0000000140121230 f   world.obj
 0001:00120290       ?noentedit@@YA_NXZ         0000000140121290 f   world.obj
 0001:001202d0       ?var_entediting@@YAXXZ     00000001401212d0 f   world.obj
 0001:00120300       ?entname@@YAPEADAEAUentity@@@Z 0000000140121300 f   world.obj
 0001:00120370       ?findents@@YAXHH_NAEBUvec@@1AEAU?$vector@H@@@Z 0000000140121370 f   world.obj
 0001:00120d20       ?modifyoctaentity@@YAXHHAEAUextentity@@PEAUcube@@AEBUivec@@H22HPEAUvtxarray@@@Z 0000000140121d20 f   world.obj
 0001:00121370       ?getentboundingbox@@YA_NAEBUextentity@@AEAUivec@@1@Z 0000000140122370 f   world.obj
 0001:00121630       ?entselectionbox@@YAXAEBUentity@@AEAUvec@@1@Z 0000000140122630 f   world.obj
 0001:001218c0       ?pointinsel@@YA_NAEBUselinfo@@AEBUvec@@@Z 00000001401228c0 f   world.obj
 0001:00121960       ?entcancel@@YAXXZ          0000000140122960 f   world.obj
 0001:00121980       ?haveselent@@YA_NXZ        0000000140122980 f   world.obj
 0001:001219a0       ?entdrag@@YAXAEBUvec@@@Z   00000001401229a0 f   world.obj
 0001:00121e40       ?hoveringonent@@YA_NHH@Z   0000000140122e40 f   world.obj
 0001:00121ed0       ?renderentselection@@YAXAEBUvec@@0_N@Z 0000000140122ed0 f   world.obj
 0001:00122500       ?entitiesinoctanodes@@YAXXZ 0000000140123500 f   world.obj
 0001:00122790       ?pasteundoents@@YAXPEAUundoblock@@@Z 0000000140123790 f   world.obj
 0001:001228c0       ?copyundoents@@YAPEAUundoblock@@PEAU1@@Z 00000001401238c0 f   world.obj
 0001:00122a10       ?pasteundoent@@YAXHAEBUentity@@@Z 0000000140123a10 f   world.obj
 0001:00122c60       ?freeoctaentities@@YAXAEAUcube@@@Z 0000000140123c60 f   world.obj
 0001:00123200       ?writeobj@@YAXPEAD@Z       0000000140124200 f   worldio.obj
 0001:00124260       ?savemap@@YAXPEAD@Z        0000000140125260 f   worldio.obj
 0001:00124270       ?savecurrentmap@@YAXXZ     0000000140125270 f   worldio.obj
 0001:00124290       ?load_world@@YA_NPEBD0@Z   0000000140125290 f   worldio.obj
 0001:00125650       ?getmapcrc@@YAIXZ          0000000140126650 f   worldio.obj
 0001:00125660       ?save_world@@YA_NPEBD_N@Z  0000000140126660 f   worldio.obj
 0001:00126210       ?loadvslots@@YAXPEAUstream@@H@Z 0000000140127210 f   worldio.obj
 0001:001265f0       ?loadvslot@@YAXPEAUstream@@AEAUVSlot@@H@Z 00000001401275f0 f   worldio.obj
 0001:001269a0       ?savevslots@@YAXPEAUstream@@H@Z 00000001401279a0 f   worldio.obj
 0001:00126b20       ?savevslot@@YAXPEAUstream@@AEAUVSlot@@H@Z 0000000140127b20 f   worldio.obj
 0001:00126de0       ?loadchildren@@YAPEAUcube@@PEAUstream@@AEBUivec@@HAEA_N@Z 0000000140127de0 f   worldio.obj
 0001:00126eb0       ?loadc@@YAXPEAUstream@@AEAUcube@@AEBUivec@@HAEA_N@Z 0000000140127eb0 f   worldio.obj
 0001:001280e0       ?convertoldsurfaces@@YAXAEAUcube@@AEBUivec@@HPEAUsurfacecompat@@HPEAUnormalscompat@@HPEAUmergecompat@@H@Z 00000001401290e0 f   worldio.obj
 0001:00129400       ?savec@@YAXPEAUcube@@AEBUivec@@HPEAUstream@@_N@Z 000000014012a400 f   worldio.obj
 0001:00129fb0       ?backup@@YAXPEAD0@Z        000000014012afb0 f   worldio.obj
 0001:0012a040       ?mapcfgname@@YAXXZ         000000014012b040 f   worldio.obj
 0001:0012a110       ?setmapfilenames@@YAXPEBD0@Z 000000014012b110 f   worldio.obj
 0001:0012a200       ?loadents@@YA_NPEBDAEAU?$vector@Uentity@@@@PEAI@Z 000000014012b200 f   worldio.obj
 0001:0012a930       ?getmapfilenames@@YAXPEBD0PEAD11@Z 000000014012b930 f   worldio.obj
 0001:0012ab70       ?fixmapname@@YAXPEAD@Z     000000014012bb70 f   worldio.obj
 0001:0012ac00       ?validmapname@@YAXPEADPEBD11_K@Z 000000014012bc00 f   worldio.obj
 0001:0012ace0       ?clearmapcrc@@YAXXZ        000000014012bce0 f   worldio.obj
 0001:0012acf0       ?gets2c@@YAXXZ             000000014012bcf0 f   client.obj
 0001:0012af50       ?clientkeepalive@@YAXXZ    000000014012bf50 f   client.obj
 0001:0012af70       ?localservertoclient@@YAXHPEAU_ENetPacket@@@Z 000000014012bf70 f   client.obj
 0001:0012b020       ?neterr@@YAXPEBD_N@Z       000000014012c020 f   client.obj
 0001:0012b030       ?flushclient@@YAXXZ        000000014012c030 f   client.obj
 0001:0012b050       ?sendclientpacket@@YAXPEAU_ENetPacket@@H@Z 000000014012c050 f   client.obj
 0001:0012b0c0       ?run@?$_icmd_localdisconnect@$0LM@@@SAXXZ 000000014012c0c0 f   client.obj
 0001:0012b0e0       ?run@?$_icmd_localconnect@$0LL@@@SAXXZ 000000014012c0e0 f   client.obj
 0001:0012b100       ?run@?$_icmd_disconnect@$0LK@@@SAXPEAH@Z 000000014012c100 f   client.obj
 0001:0012b180       ?run@?$_icmd_lanconnect@$0LI@@@SAXPEAHPEAD@Z 000000014012c180 f   client.obj
 0001:0012b1a0       ?run@?$_icmd_connect@$0LH@@@SAXPEADPEAH0@Z 000000014012c1a0 f   client.obj
 0001:0012b1b0       ?trydisconnect@@YAX_N@Z    000000014012c1b0 f   client.obj
 0001:0012b230       ?disconnect@@YAX_N0@Z      000000014012c230 f   client.obj
 0001:0012b300       ?reconnect@@YAXPEBD@Z      000000014012c300 f   client.obj
 0001:0012b340       ?connectserv@@YAXPEBDH0@Z  000000014012c340 f   client.obj
 0001:0012b560       ?abortconnect@@YAXXZ       000000014012c560 f   client.obj
 0001:0012b5d0       ?run@?$_icmd_connectedport@$0DM@@@SAXXZ 000000014012c5d0 f   client.obj
 0001:0012b620       ?run@?$_icmd_connectedip@$0DG@@@SAXXZ 000000014012c620 f   client.obj
 0001:0012b680       ?connectedpeer@@YAPEBU_ENetAddress@@XZ 000000014012c680 f   client.obj
 0001:0012b6a0       ?run@?$_icmd_isconnected@$0CK@@@SAXPEAH0@Z 000000014012c6a0 f   client.obj
 0001:0012b700       ?throttle@@YAXXZ           000000014012c700 f   client.obj
 0001:0012b730       ?var_throttle_decel@@YAXXZ 000000014012c730 f   client.obj
 0001:0012b760       ?var_throttle_accel@@YAXXZ 000000014012c760 f   client.obj
 0001:0012b790       ?var_throttle_interval@@YAXXZ 000000014012c790 f   client.obj
 0001:0012b7c0       ?var_rate@@YAXXZ           000000014012c7c0 f   client.obj
 0001:0012b7f0       ?setrate@@YAXH@Z           000000014012c7f0 f   client.obj
 0001:0012b820       ?isconnected@@YA_N_N0@Z    000000014012c820 f   client.obj
 0001:0012b860       ?multiplayer@@YA_N_N@Z     000000014012c860 f   client.obj
 0001:0012b960       ?serveroption@@YA_NPEAD@Z  000000014012c960 f   server.obj
 0001:0012ba50       ?stoplistenserver@@YAXXZ   000000014012ca50 f   server.obj
 0001:0012bab0       ?startlistenserver@@YAXPEAH@Z 000000014012cab0 f   server.obj
 0001:0012bb30       ?initserver@@YAX_N0@Z      000000014012cb30 f   server.obj
 0001:0012bbc0       ?setuplistenserver@@YA_N_N@Z 000000014012cbc0 f   server.obj
 0001:0012be10       ?servererror@@YA_N_NPEBD@Z 000000014012ce10 f   server.obj
 0001:0012be50       ?rundedicatedserver@@YAXXZ 000000014012ce50 f   server.obj
 0001:0012bf00       ?isdedicatedserver@@YA_NXZ 000000014012cf00 f   server.obj
 0001:0012bf10       ?logoutfv@@YAXPEBDPEAD@Z   000000014012cf10 f   server.obj
 0001:0012c090       WinMain                    000000014012d090 f   server.obj
 0001:0012ccf0       ?flushserver@@YAX_N@Z      000000014012dcf0 f   server.obj
 0001:0012cd20       ?serverslice@@YAX_NI@Z     000000014012dd20 f   server.obj
 0001:0012d2e0       ?updatetime@@YAXXZ         000000014012e2e0 f   server.obj
 0001:0012d330       ?updatemasterserver@@YAXXZ 000000014012e330 f   server.obj
 0001:0012d3a0       ?var_serverport@@YAXXZ     000000014012e3a0 f   server.obj
 0001:0012d3c0       ?checkserversockets@@YAXXZ 000000014012e3c0 f   server.obj
 0001:0012d670       ?sendserverinforeply@@YAXAEAU?$databuf@E@@@Z 000000014012e670 f   server.obj
 0001:0012d6b0       ?flushmasterinput@@YAXXZ   000000014012e6b0 f   server.obj
 0001:0012d8d0       ?flushmasteroutput@@YAXXZ  000000014012e8d0 f   server.obj
 0001:0012d990       ?processmasterinput@@YAXXZ 000000014012e990 f   server.obj
 0001:0012db20       ?requestmasterf@@YA_NPEBDZZ 000000014012eb20 f   server.obj
 0001:0012dc40       ?requestmaster@@YA_NPEBD@Z 000000014012ec40 f   server.obj
 0001:0012dd00       ?connectmaster@@YA_K_N@Z   000000014012ed00 f   server.obj
 0001:0012df90       ?var_masterport@@YAXXZ     000000014012ef90 f   server.obj
 0001:0012dfa0       ?var_mastername@@YAXXZ     000000014012efa0 f   server.obj
 0001:0012dfb0       ?disconnectmaster@@YAXXZ   000000014012efb0 f   server.obj
 0001:0012e060       ?process@@YAXPEAU_ENetPacket@@HH@Z 000000014012f060 f   server.obj
 0001:0012e100       ?kicknonlocalclients@@YAXH@Z 000000014012f100 f   server.obj
 0001:0012e230       ?disconnect_client@@YAXHH@Z 000000014012f230 f   server.obj
 0001:0012e340       ?sendfile@@YAPEAU_ENetPacket@@HHPEAUstream@@PEBDZZ 000000014012f340 f   server.obj
 0001:0012e5f0       ?sendf@@YAPEAU_ENetPacket@@HHPEBDZZ 000000014012f5f0 f   server.obj
 0001:0012e970       ?sendpacket@@YAXHHPEAU_ENetPacket@@H@Z 000000014012f970 f   server.obj
 0001:0012eac0       ?getclientip@@YAIH@Z       000000014012fac0 f   server.obj
 0001:0012eaf0       ?getclientpeer@@YAPEAU_ENetPeer@@H@Z 000000014012faf0 f   server.obj
 0001:0012eb20       ?getclientinfo@@YAPEAXH@Z  000000014012fb20 f   server.obj
 0001:0012eb50       ?getservermtu@@YAHXZ       000000014012fb50 f   server.obj
 0001:0012eb70       ?var_maxdupclients@@YAXXZ  000000014012fb70 f   server.obj
 0001:0012eba0       ?var_maxclients@@YAXXZ     000000014012fba0 f   server.obj
 0001:0012ebc0       ?cleanupserver@@YAXXZ      000000014012fbc0 f   server.obj
 0001:0012ec30       ?delclient@@YAXPEAUclient@@@Z 000000014012fc30 f   server.obj
 0001:0012ecc0       ?addclient@@YAAEAUclient@@H@Z 000000014012fcc0 f   server.obj
 0001:0012f110       ?logoutf@@YAXPEBDZZ        0000000140130110 f   server.obj
 0001:0012f290       ?setlogfile@@YAXPEBD@Z     0000000140130290 f   server.obj
 0001:0012f320       ?getlogfile@@YAPEAU_iobuf@@XZ 0000000140130320 f   server.obj
 0001:0012f330       ?closelogfile@@YAXXZ       0000000140130330 f   server.obj
 0001:0012f360       ?hasnonlocalclients@@YA_NXZ 0000000140130360 f   server.obj
 0001:0012f380       ?haslocalclients@@YA_NXZ   0000000140130380 f   server.obj
 0001:0012f3a0       ?localdisconnect@@YAX_N@Z  00000001401303a0 f   server.obj
 0001:0012f470       ?localconnect@@YAXXZ       0000000140130470 f   server.obj
 0001:0012f590       ?localclienttoserver@@YAXHPEAU_ENetPacket@@@Z 0000000140130590 f   server.obj
 0001:0012f680       ?disconnectreason@@YAPEBDH@Z 0000000140130680 f   server.obj
 0001:0012fb90       ?writeservercfg@@YAXXZ     0000000140130b90 f   serverbrowser.obj
 0001:0012fe40       ?run@?$_icmd_clearservers@$0CLL@@@SAXPEAH@Z 0000000140130e40 f   serverbrowser.obj
 0001:0012fe60       ?run@?$_icmd_keepserver@$0CLK@@@SAXPEBDPEAH0@Z 0000000140130e60 f   serverbrowser.obj
 0001:0012fe80       ?run@?$_icmd_addserver@$0CLJ@@@SAXPEBDPEAH0@Z 0000000140130e80 f   serverbrowser.obj
 0001:0012fea0       ?initservers@@YAXXZ        0000000140130ea0 f   serverbrowser.obj
 0001:0012fed0       ?updatefrommaster@@YAXXZ   0000000140130ed0 f   serverbrowser.obj
 0001:0012ff50       ?retrieveservers@@YAXAEAU?$vector@D@@@Z 0000000140130f50 f   serverbrowser.obj
 0001:001301e0       ?clearservers@@YAX_N@Z     00000001401311e0 f   serverbrowser.obj
 0001:00130400       ?connectselected@@YAXXZ    0000000140131400 f   serverbrowser.obj
 0001:00130440       ?showservers@@YAPEBDPEAUg3d_gui@@PEAIHH@Z 0000000140131440 f   serverbrowser.obj
 0001:00130890       ?refreshservers@@YAXXZ     0000000140131890 f   serverbrowser.obj
 0001:00130980       ?sortservers@@YAXXZ        0000000140131980 f   serverbrowser.obj
 0001:001309a0       ?checkpings@@YAXXZ         00000001401319a0 f   serverbrowser.obj
 0001:00130e60       ?checkresolver@@YAXXZ      0000000140131e60 f   serverbrowser.obj
 0001:001310d0       ?pingservers@@YAXXZ        00000001401320d0 f   serverbrowser.obj
 0001:00131680       ?resolvercheck@@YA_NPEAPEBDPEAU_ENetAddress@@@Z 0000000140132680 f   serverbrowser.obj
 0001:00131770       ?resolverquery@@YAXPEBD@Z  0000000140132770 f   serverbrowser.obj
 0001:001317d0       ?resolverclear@@YAXXZ      00000001401327d0 f   serverbrowser.obj
 0001:001318e0       ?resolverstop@@YAXAEAUresolverthread@@@Z 00000001401328e0 f   serverbrowser.obj
 0001:00131960       ?resolverinit@@YAXXZ       0000000140132960 f   serverbrowser.obj
 0001:00131b10       ?resolverloop@@YAHPEAX@Z   0000000140132b10 f   serverbrowser.obj
 0001:00131d60       ?connectwithtimeout@@YAH_KPEBDAEBU_ENetAddress@@@Z 0000000140132d60 f   serverbrowser.obj
 0001:00131ef0       ?addserver@@YAXPEBDH0_N@Z  0000000140132ef0 f   serverbrowser.obj
 0001:00132040       ?resolverwait@@YA_NPEBDPEAU_ENetAddress@@@Z 0000000140133040 f   serverbrowser.obj
 0001:00133f60       ?consolebox@@YAXHHHH@Z     0000000140134f60 f   3dgui.obj
 0001:00134210       ?g3d_render@@YAXXZ         0000000140135210 f   3dgui.obj
 0001:00134790       ?g3d_limitscale@@YAXM@Z    0000000140135790 f   3dgui.obj
 0001:001347a0       ?g3d_movecursor@@YA_NHH@Z  00000001401357a0 f   3dgui.obj
 0001:00134850       ?g3d_resetcursor@@YAXXZ    0000000140135850 f   3dgui.obj
 0001:00134870       ?g3d_cursorpos@@YAXAEAM0@Z 0000000140135870 f   3dgui.obj
 0001:001348b0       ?g3d_key@@YA_NH_N@Z        00000001401358b0 f   3dgui.obj
 0001:00134ef0       ?g3d_input@@YA_NPEBDH@Z    0000000140135ef0 f   3dgui.obj
 0001:00134f50       ?run@?$_icmd_textexec@$0CPO@@@SAXPEAH@Z 0000000140135f50 f   3dgui.obj
 0001:00135090       ?run@?$_icmd_textcurrentline@$0CPI@@@SAXXZ 0000000140136090 f   3dgui.obj
 0001:001350f0       ?run@?$_icmd_textclear@$0CPH@@@SAXXZ 00000001401360f0 f   3dgui.obj
 0001:00135130       ?run@?$_icmd_textselectall@$0CPG@@@SAXXZ 0000000140136130 f   3dgui.obj
 0001:00135180       ?run@?$_icmd_textmark@$0CPF@@@SAXPEAH@Z 0000000140136180 f   3dgui.obj
 0001:00135210       ?run@?$_icmd_textpaste@$0CPB@@@SAXXZ 0000000140136210 f   3dgui.obj
 0001:00135280       ?run@?$_icmd_textcopy@$0CPA@@@SAXXZ 0000000140136280 f   3dgui.obj
 0001:001352f0       ?run@?$_icmd_textinit@$0COM@@@SAXPEAD00@Z 00000001401362f0 f   3dgui.obj
 0001:00135420       ?run@?$_icmd_textload@$0COC@@@SAXPEAD@Z 0000000140136420 f   3dgui.obj
 0001:001354b0       ?run@?$_icmd_textsave@$0CNK@@@SAXPEAD@Z 00000001401364b0 f   3dgui.obj
 0001:001355c0       ?run@?$_icmd_textmode@$0CNG@@@SAXPEAH@Z 00000001401365c0 f   3dgui.obj
 0001:00135610       ?run@?$_icmd_textprev@$0CNC@@@SAXXZ 0000000140136610 f   3dgui.obj
 0001:001356b0       ?run@?$_icmd_textfocus@$0CNB@@@SAXPEADPEAH@Z 00000001401366b0 f   3dgui.obj
 0001:00135720       ?run@?$_icmd_textshow@$0CMN@@@SAXXZ 0000000140136720 f   3dgui.obj
 0001:001357b0       ?run@?$_icmd_textlist@$0CMH@@@SAXXZ 00000001401367b0 f   3dgui.obj
 0001:00135ea0       ?g3d_windowhit@@YA_N_N0@Z  0000000140136ea0 f   3dgui.obj
 0001:00135f50       ?g3d_addgui@@YAXPEAUg3d_callback@@AEAUvec@@H@Z 0000000140136f50 f   3dgui.obj
 0001:00136300       ??1BIH@@QEAA@XZ            0000000140137300 f   bih.obj
 0001:00136350       ??0BIH@@QEAA@AEAU?$vector@Umesh@BIH@@@@@Z 0000000140137350 f   bih.obj
 0001:001374a0       ?build@BIH@@QEAAXAEAUmesh@1@PEAGHAEBUivec@@2@Z 00000001401384a0 f   bih.obj
 0001:00137b90       ?triintersect@BIH@@QEAA_NAEBUmesh@1@HAEBUvec@@1MAEAMH@Z 0000000140138b90 f   bih.obj
 0001:001380f0       ?mmintersect@@YA_NAEBUextentity@@AEBUvec@@1MHAEAM@Z 00000001401390f0 f   bih.obj
 0001:001386e0       ?cleanupblobs@@YAXXZ       00000001401396e0 f   blob.obj
 0001:00138790       ?flushblobs@@YAXXZ         0000000140139790 f   blob.obj
 0001:001388a0       ?renderblob@@YAXHAEBUvec@@MM@Z 00000001401398a0 f   blob.obj
 0001:00138910       ?initblobs@@YAXH@Z         0000000140139910 f   blob.obj
 0001:00138990       ?var_blobdyntris@@YAXXZ    0000000140139990 f   blob.obj
 0001:001389c0       ?var_blobstattris@@YAXXZ   00000001401399c0 f   blob.obj
 0001:001389f0       ?var_blobmargin@@YAXXZ     00000001401399f0 f   blob.obj
 0001:00138a10       ?var_blobfadehigh@@YAXXZ   0000000140139a10 f   blob.obj
 0001:00138a30       ?var_blobfadelow@@YAXXZ    0000000140139a30 f   blob.obj
 0001:00138a50       ?var_blobheight@@YAXXZ     0000000140139a50 f   blob.obj
 0001:00138a70       ?var_blobintensity@@YAXXZ  0000000140139a70 f   blob.obj
 0001:00138a90       ?resetblobs@@YAXXZ         0000000140139a90 f   blob.obj
 0001:00138d40       ?adddecal@@YAXHAEBUvec@@0MAEBUbvec@@H@Z 0000000140139d40 f   decal.obj
 0001:00138de0       ?renderdecals@@YAX_N@Z     0000000140139de0 f   decal.obj
 0001:001390d0       ?cleanupdecals@@YAXXZ      000000014013a0d0 f   decal.obj
 0001:00139130       ?initdecals@@YAXXZ         000000014013a130 f   decal.obj
 0001:00139250       ?var_maxdecaltris@@YAXXZ   000000014013a250 f   decal.obj
 0001:00139260       ?cleardecals@@YAXXZ        000000014013a260 f   decal.obj
 0001:00139320       ?setdynlights@@YAHPEAUvtxarray@@@Z 000000014013a320 f   dynlight.obj
 0001:00139620       ?calcdynlightmask@@YAXPEAUvtxarray@@@Z 000000014013a620 f   dynlight.obj
 0001:00139760       ?dynlightreaching@@YAXAEBUvec@@AEAU1@1_N@Z 000000014013a760 f   dynlight.obj
 0001:00139c20       ?finddynlights@@YAHXZ      000000014013ac20 f   dynlight.obj
 0001:0013a180       ?updatedynlights@@YAXXZ    000000014013b180 f   dynlight.obj
 0001:0013a860       ?removetrackeddynlights@@YAXPEAUphysent@@@Z 000000014013b860 f   dynlight.obj
 0001:0013a960       ?cleardynlights@@YAXXZ     000000014013b960 f   dynlight.obj
 0001:0013aa60       ?adddynlight@@YAXAEBUvec@@M0HHHM0PEAUphysent@@@Z 000000014013ba60 f   dynlight.obj
 0001:0013af10       ?addglare@@YAXXZ           000000014013bf10 f   glare.obj
 0001:0013b020       ?drawglaretex@@YAXXZ       000000014013c020 f   glare.obj
 0001:0013b080       ?viewglaretex@@YAXXZ       000000014013c080 f   glare.obj
 0001:0013b0b0       ?var_glaresize@@YAXXZ      000000014013c0b0 f   glare.obj
 0001:0013b1b0       ?cleanupglare@@YAXXZ       000000014013c1b0 f   glare.obj
 0001:0013ba10       ?cleanupgrass@@YAXXZ       000000014013ca10 f   grass.obj
 0001:0013ba60       ?rendergrass@@YAXXZ        000000014013ca60 f   grass.obj
 0001:0013be30       ?generategrass@@YAXXZ      000000014013ce30 f   grass.obj
 0001:0013d830       ?var_grasscolour@@YAXXZ    000000014013e830 f   grass.obj
 0001:0013e400       ?rendermaterials@@YAXXZ    000000014013f400 f   material.obj
 0001:0013f5c0       ?var_waterfallenv@@YAXXZ   00000001401405c0 f   material.obj
 0001:00141280       ?getglasscolor@@YAAEBUbvec@@H@Z 0000000140142280 f   material.obj
 0001:001412c0       ?var_glass4colour@@YAXXZ   00000001401422c0 f   material.obj
 0001:00141300       ?var_glass3colour@@YAXXZ   0000000140142300 f   material.obj
 0001:00141340       ?var_glass2colour@@YAXXZ   0000000140142340 f   material.obj
 0001:00141380       ?var_glasscolour@@YAXXZ    0000000140142380 f   material.obj
 0001:001413c0       ?rendermatgrid@@YAXAEAU?$vector@PEAUmaterialsurface@@@@@Z 00000001401423c0 f   material.obj
 0001:001415c0       ?sortmaterials@@YAXAEAU?$vector@PEAUmaterialsurface@@@@@Z 00000001401425c0 f   material.obj
 0001:00141c00       ?var_optmats@@YAXXZ        0000000140142c00 f   material.obj
 0001:00142110       ?visiblematerial@@YAHAEBUcube@@HAEBUivec@@HG@Z 0000000140143110 f   material.obj
 0001:001421d0       ?getmaterialdesc@@YAPEBDHPEBD@Z 00000001401431d0 f   material.obj
 0001:00142620       ?findmaterialname@@YAPEBDH@Z 0000000140143620 f   material.obj
 0001:001444d0       ?optimizematsurfs@@YAHPEAUmaterialsurface@@H@Z 00000001401454d0 f   material.obj
 0001:00144940       ?genmatsurfs@@YAXAEBUcube@@AEBUivec@@HAEAU?$vector@Umaterialsurface@@@@@Z 0000000140145940 f   material.obj
 0001:00144ae0       ?setupmaterials@@YAXHH@Z   0000000140145ae0 f   material.obj
 0001:001458f0       ?findmaterial@@YAHPEBD@Z   00000001401468f0 f   material.obj
 0001:00145ee0       ?cleanupgl@@YAXXZ          0000000140146ee0 f   rendergl.obj
 0001:00145fe0       ?gl_drawhud@@YAXXZ         0000000140146fe0 f   rendergl.obj
 0001:001472d0       ?drawcrosshair@@YAXHH@Z    00000001401482d0 f   rendergl.obj
 0001:001475e0       ?writecrosshairs@@YAXPEAUstream@@@Z 00000001401485e0 f   rendergl.obj
 0001:001478d0       ?run@?$_icmd_getcrosshair@$0IEP@@@SAXPEAH@Z 00000001401488d0 f   rendergl.obj
 0001:00147950       ?loadcrosshair_@@YAXPEBDPEAH@Z 0000000140148950 f   rendergl.obj
 0001:00147960       ?loadcrosshair@@YAXPEBDH@Z 0000000140148960 f   rendergl.obj
 0001:00147a00       ?drawdamagescreen@@YAXHH@Z 0000000140148a00 f   rendergl.obj
 0001:00147b50       ?damageblend@@YAXH@Z       0000000140148b50 f   rendergl.obj
 0001:00147bb0       ?var_damagescreen@@YAXXZ   0000000140148bb0 f   rendergl.obj
 0001:00147bd0       ?drawdamagecompass@@YAXHH@Z 0000000140148bd0 f   rendergl.obj
 0001:00148120       ?damagecompass@@YAXHAEBUvec@@@Z 0000000140149120 f   rendergl.obj
 0001:001482e0       ?gl_drawmainmenu@@YAXXZ    00000001401492e0 f   rendergl.obj
 0001:00148330       ?gl_drawframe@@YAXXZ       0000000140149330 f   rendergl.obj
 0001:00148af0       ?addmotionblur@@YAXXZ      0000000140149af0 f   rendergl.obj
 0001:00148e50       ?var_motionblur@@YAXXZ     0000000140149e50 f   rendergl.obj
 0001:00148eb0       ?cleanupmotionblur@@YAXXZ  0000000140149eb0 f   rendergl.obj
 0001:00148f00       ?drawminimap@@YAXXZ        0000000140149f00 f   rendergl.obj
 0001:00149930       ?clipminimap@@YAXAEAUivec@@0PEAUcube@@AEBU1@H@Z 000000014014a930 f   rendergl.obj
 0001:00149a70       ?bindminimap@@YAXXZ        000000014014aa70 f   rendergl.obj
 0001:00149a90       ?var_minimapsize@@YAXXZ    000000014014aa90 f   rendergl.obj
 0001:00149ab0       ?var_minimapcolour@@YAXXZ  000000014014aab0 f   rendergl.obj
 0001:00149af0       ?clearminimap@@YAXXZ       000000014014aaf0 f   rendergl.obj
 0001:00149b30       ?drawcubemap@@YAXHAEBUvec@@MMAEBUcubemapside@@@Z 000000014014ab30 f   rendergl.obj
 0001:0014a190       ?drawreflection@@YAXM_NHAEBUbvec@@@Z 000000014014b190 f   rendergl.obj
 0001:0014ad00       ?rendergame@@YAX_N@Z       000000014014bd00 f   rendergl.obj
 0001:0014ad30       ?drawfogoverlay@@YAXHMH@Z  000000014014bd30 f   rendergl.obj
 0001:0014b200       ?popfogdist@@YAXXZ         000000014014c200 f   rendergl.obj
 0001:0014b230       ?pushfogdist@@YAXMM@Z      000000014014c230 f   rendergl.obj
 0001:0014b270       ?resetfogdist@@YAXXZ       000000014014c270 f   rendergl.obj
 0001:0014b290       ?clearfogdist@@YAXXZ       000000014014c290 f   rendergl.obj
 0001:0014b2b0       ?setfogdist@@YAXMM@Z       000000014014c2b0 f   rendergl.obj
 0001:0014b370       ?popfogcolor@@YAXXZ        000000014014c370 f   rendergl.obj
 0001:0014b3a0       ?pushfogcolor@@YAXAEBUvec@@@Z 000000014014c3a0 f   rendergl.obj
 0001:0014b3f0       ?setfogcolor@@YAXAEBUvec@@@Z 000000014014c3f0 f   rendergl.obj
 0001:0014b870       ?var_fogcolour@@YAXXZ      000000014014c870 f   rendergl.obj
 0001:0014b8b0       ?screenquadflipped@@YAXMM@Z 000000014014c8b0 f   rendergl.obj
 0001:0014b950       ?screenquad@@YAXXZ         000000014014c950 f   rendergl.obj
 0001:0014bb50       ?calcspherescissor@@YAXAEBUvec@@MAEAM111@Z 000000014014cb50 f   rendergl.obj
 0001:0014bf30       ?renderavatar@@YAXXZ       000000014014cf30 f   rendergl.obj
 0001:0014c160       ?calcavatarpos@@YA?AUvec@@AEBU1@M@Z 000000014014d160 f   rendergl.obj
 0001:0014c4a0       ?recomputecamera@@YAXXZ    000000014014d4a0 f   rendergl.obj
 0001:0014d2e0       ?mousemove@@YAXHH@Z        000000014014e2e0 f   rendergl.obj
 0001:0014d580       ?fixcamerarange@@YAXXZ     000000014014e580 f   rendergl.obj
 0001:0014d690       ?isthirdperson@@YA_NXZ     000000014014e690 f   rendergl.obj
 0001:0014d6c0       ?computezoom@@YAXXZ        000000014014e6c0 f   rendergl.obj
 0001:0014d810       ?disablezoom@@YAXXZ        000000014014e810 f   rendergl.obj
 0001:0014d830       ?setcamprojmatrix@@YAX_N0@Z 000000014014e830 f   rendergl.obj
 0001:0014dae0       ?setcammatrix@@YAXXZ       000000014014eae0 f   rendergl.obj
 0001:0014df50       ?run@?$_icmd_getcampos@$0CHH@@@SAXXZ 000000014014ef50 f   rendergl.obj
 0001:0014e020       ?run@?$_icmd_getcamroll@$0CHC@@@SAXXZ 000000014014f020 f   rendergl.obj
 0001:0014e050       ?run@?$_icmd_getcampitch@$0CHB@@@SAXXZ 000000014014f050 f   rendergl.obj
 0001:0014e080       ?run@?$_icmd_getcamyaw@$0CHA@@@SAXXZ 000000014014f080 f   rendergl.obj
 0001:0014e0b0       ?gl_init@@YAXXZ            000000014014f0b0 f   rendergl.obj
 0001:0014e320       ?gl_resize@@YAXXZ          000000014014f320 f   rendergl.obj
 0001:0014e340       ?glext@@YAXPEAD@Z          000000014014f340 f   rendergl.obj
 0001:0014e370       ?gl_checkextensions@@YAXXZ 000000014014f370 f   rendergl.obj
 0001:0014f5c0       ?hasext@@YA_NPEBD@Z        00000001401505c0 f   rendergl.obj
 0001:0014f650       ?parseglexts@@YAXXZ        0000000140150650 f   rendergl.obj
 0001:0014f8c0       ?getprocaddress@@YAPEAXPEBD@Z 00000001401508c0 f   rendergl.obj
 0001:0014f8d0       ?screenquad@@YAXMM@Z       00000001401508d0 f   rendergl.obj
 0001:0014f920       ?hudquad@@YAXMMMMMMMM@Z    0000000140150920 f   rendergl.obj
 0001:0014fb70       ?drawglare@@YAXXZ          0000000140150b70 f   rendergl.obj
 0001:0014fcc0       ?zerofogcolor@@YAXXZ       0000000140150cc0 f   rendergl.obj
 0001:0014fcf0       ?resetfogcolor@@YAXXZ      0000000140150cf0 f   rendergl.obj
 0001:0014fd10       ?start@modelpreview@@YAXHHHH_N@Z 0000000140150d10 f   rendergl.obj
 0001:00150030       ?end@modelpreview@@YAXXZ   0000000140151030 f   rendergl.obj
 0001:00150120       ?resethudmatrix@@YAXXZ     0000000140151120 f   rendergl.obj
 0001:001501e0       ?drawtextures@@YAXXZ       00000001401511e0 f   rendergl.obj
 0001:00150300       ?enablepolygonoffset@@YAXI@Z 0000000140151300 f   rendergl.obj
 0001:001503d0       ?disablepolygonoffset@@YAXI@Z 00000001401513d0 f   rendergl.obj
 0001:00150420       ?invalidatepostfx@@YAXXZ   0000000140151420 f   rendergl.obj
 0001:00150430       ?calcmodelpreviewpos@@YA?AUvec@@AEBU1@AEAM@Z 0000000140151430 f   rendergl.obj
 0001:00150570       ?pushhudmatrix@@YAXXZ      0000000140151570 f   rendergl.obj
 0001:001505d0       ?flushhudmatrix@@YAX_N@Z   00000001401515d0 f   rendergl.obj
 0001:001506a0       ?pophudmatrix@@YAX_N0@Z    00000001401516a0 f   rendergl.obj
 0001:00151ce0       ?setbbfrommodel@@YAXPEAUdynent@@PEBD@Z 0000000140152ce0 f   rendermodel.obj
 0001:00151e00       ?renderclient@@YAXPEAUdynent@@PEBDPEAUmodelattach@@HHHHHM_N@Z 0000000140152e00 f   rendermodel.obj
 0001:00152180       ?loadskin@@YAXPEBD0AEAPEAUTexture@@1@Z 0000000140153180 f   rendermodel.obj
 0001:001526b0       ?run@?$_icmd_findanims@$0DPM@@@SAXPEAD@Z 00000001401536b0 f   rendermodel.obj
 0001:00152a00       ?findanims@@YAXPEBDAEAU?$vector@H@@@Z 0000000140153a00 f   rendermodel.obj
 0001:00152b20       ?matchanim@@YA_NPEBD0@Z    0000000140153b20 f   rendermodel.obj
 0001:00152bf0       ?abovemodel@@YAXAEAUvec@@PEBD@Z 0000000140153bf0 f   rendermodel.obj
 0001:00153320       ?endmodelquery@@YAXXZ      0000000140154320 f   rendermodel.obj
 0001:001534c0       ?startmodelquery@@YAXPEAUoccludequery@@@Z 00000001401544c0 f   rendermodel.obj
 0001:001534d0       ?endmodelbatches@@YAXXZ    00000001401544d0 f   rendermodel.obj
 0001:00153c40       ?renderbatchedmodel@@YAXPEAUmodel@@AEAUbatchedmodel@@@Z 0000000140154c40 f   rendermodel.obj
 0001:00153dc0       ?addbatchedmodel@@YAAEAUmodelbatch@@PEAUmodel@@@Z 0000000140154dc0 f   rendermodel.obj
 0001:00153f70       ?startmodelbatches@@YAXXZ  0000000140154f70 f   rendermodel.obj
 0001:00153f90       ?renderellipse@@YAXAEAUvec@@MMM@Z 0000000140154f90 f   rendermodel.obj
 0001:00154340       ?render3dbox@@YAXAEAUvec@@MMMM@Z 0000000140155340 f   rendermodel.obj
 0001:001544b0       ?render2dbox@@YAXAEAUvec@@MMM@Z 00000001401554b0 f   rendermodel.obj
 0001:00154630       ?modeloccluded@@YA_NAEBUvec@@M@Z 0000000140155630 f   rendermodel.obj
 0001:00154700       ?clearmodel@@YAXPEAD@Z     0000000140155700 f   rendermodel.obj
 0001:001548e0       ?cleanupmodels@@YAXXZ      00000001401558e0 f   rendermodel.obj
 0001:00154950       ?clear_mdls@@YAXXZ         0000000140155950 f   rendermodel.obj
 0001:001549d0       ?preloadmodelshaders@@YAX_N@Z 00000001401559d0 f   rendermodel.obj
 0001:00154a60       ?preloadmodel@@YAXPEBD@Z   0000000140155a60 f   rendermodel.obj
 0001:00154ab0       ?run@?$_icmd_nummapmodels@$0BGA@@@SAXXZ 0000000140155ab0 f   rendermodel.obj
 0001:00154ad0       ?run@?$_icmd_mapmodelname@$0BFP@@@SAXPEAH@Z 0000000140155ad0 f   rendermodel.obj
 0001:00154b20       ?mapmodelname@@YAPEBDH@Z   0000000140155b20 f   rendermodel.obj
 0001:00154b50       ?getmminfo@@YAPEAUmapmodelinfo@@H@Z 0000000140155b50 f   rendermodel.obj
 0001:00154b80       ?mapmodelreset@@YAXPEAH@Z  0000000140155b80 f   rendermodel.obj
 0001:00154bd0       ?mapmodelcompat@@YAXPEAH00PEAD1@Z 0000000140155bd0 f   rendermodel.obj
 0001:00154be0       ?mmodel@@YAXPEAD@Z         0000000140155be0 f   rendermodel.obj
 0001:00154d30       ?rdanimjoints@@YAXPEAH@Z   0000000140155d30 f   rendermodel.obj
 0001:00154e40       ?rdlimitrot@@YAXPEAH0PEAM1111@Z 0000000140155e40 f   rendermodel.obj
 0001:001550c0       ?rdlimitdist@@YAXPEAH0PEAM1@Z 00000001401560c0 f   rendermodel.obj
 0001:001552d0       ?rdjoint@@YAXPEAH0000@Z    00000001401562d0 f   rendermodel.obj
 0001:00155500       ?rdtri@@YAXPEAH00@Z        0000000140156500 f   rendermodel.obj
 0001:001556f0       ?rdeye@@YAXPEAH@Z          00000001401566f0 f   rendermodel.obj
 0001:00155800       ?rdvert@@YAXPEAM000@Z      0000000140156800 f   rendermodel.obj
 0001:00155a30       ?mdlname@@YAXXZ            0000000140156a30 f   rendermodel.obj
 0001:00155a80       ?mdlextendbb@@YAXPEAM00@Z  0000000140156a80 f   rendermodel.obj
 0001:00155ae0       ?mdlbb@@YAXPEAM00@Z        0000000140156ae0 f   rendermodel.obj
 0001:00155b20       ?mdlshadow@@YAXPEAH@Z      0000000140156b20 f   rendermodel.obj
 0001:00155b50       ?mdlpitch@@YAXPEAM@Z       0000000140156b50 f   rendermodel.obj
 0001:00155b80       ?mdlyaw@@YAXPEAM@Z         0000000140156b80 f   rendermodel.obj
 0001:00155bb0       ?mdltrans@@YAXPEAM00@Z     0000000140156bb0 f   rendermodel.obj
 0001:00155c10       ?mdlscale@@YAXPEAH@Z       0000000140156c10 f   rendermodel.obj
 0001:00155c60       ?mdlspin@@YAXPEAM0@Z       0000000140156c60 f   rendermodel.obj
 0001:00155c90       ?mdlshader@@YAXPEAD@Z      0000000140156c90 f   rendermodel.obj
 0001:00155cf0       ?mdlfullbright@@YAXPEAM@Z  0000000140156cf0 f   rendermodel.obj
 0001:00155d30       ?mdlenvmap@@YAXPEAM0PEAD@Z 0000000140156d30 f   rendermodel.obj
 0001:00155db0       ?mdlglare@@YAXPEAM0@Z      0000000140156db0 f   rendermodel.obj
 0001:00155df0       ?mdlglow@@YAXPEAH0PEAM@Z   0000000140156df0 f   rendermodel.obj
 0001:00155e80       ?mdldepthoffset@@YAXPEAH@Z 0000000140156e80 f   rendermodel.obj
 0001:00155eb0       ?mdlalphadepth@@YAXPEAH@Z  0000000140156eb0 f   rendermodel.obj
 0001:00155ee0       ?mdlalphablend@@YAXPEAH@Z  0000000140156ee0 f   rendermodel.obj
 0001:00155f20       ?mdlalphatest@@YAXPEAM@Z   0000000140156f20 f   rendermodel.obj
 0001:00155f60       ?mdlambient@@YAXPEAH@Z     0000000140156f60 f   rendermodel.obj
 0001:00155fc0       ?mdlspec@@YAXPEAH@Z        0000000140156fc0 f   rendermodel.obj
 0001:00156020       ?mdlellipsecollide@@YAXPEAH@Z 0000000140157020 f   rendermodel.obj
 0001:00156050       ?mdlcollide@@YAXPEAH@Z     0000000140157050 f   rendermodel.obj
 0001:00156080       ?mdlcullface@@YAXPEAH@Z    0000000140157080 f   rendermodel.obj
 0001:001564e0       ?var_bumpmodels@@YAXXZ     00000001401574e0 f   rendermodel.obj
 0001:001564f0       ?var_envmapmodels@@YAXXZ   00000001401574f0 f   rendermodel.obj
 0001:00156500       ?cleanragdoll@@YAXPEAUdynent@@@Z 0000000140157500 f   rendermodel.obj
 0001:00156540       ?moveragdoll@@YAXPEAUdynent@@@Z 0000000140157540 f   rendermodel.obj
 0001:00156710       ?move@ragdolldata@@QEAAXPEAUdynent@@M@Z 0000000140157710 f   rendermodel.obj
 0001:00156e50       ?constrain@ragdolldata@@QEAAXXZ 0000000140157e50 f   rendermodel.obj
 0001:00156eb0       ?updatepos@ragdolldata@@QEAAXXZ 0000000140157eb0 f   rendermodel.obj
 0001:00157190       ?tryunstick@ragdolldata@@QEAAXM@Z 0000000140158190 f   rendermodel.obj
 0001:001573d0       ?applyrotfriction@ragdolldata@@QEAAXM@Z 00000001401583d0 f   rendermodel.obj
 0001:00157910       ?calcrotfriction@ragdolldata@@QEAAXXZ 0000000140158910 f   rendermodel.obj
 0001:00157b40       ?constrainrot@ragdolldata@@QEAAXXZ 0000000140158b40 f   rendermodel.obj
 0001:00157f10       ?constraindist@ragdolldata@@QEAAXXZ 0000000140158f10 f   rendermodel.obj
 0001:00158180       ?rendermodel@@YAXPEAUentitylight@@PEBDHAEBUvec@@MMHPEAUdynent@@PEAUmodelattach@@HHM@Z 0000000140159180 f   rendermodel.obj
 0001:00158e30       ?flushpreloadedmodels@@YAX_N@Z 0000000140159e30 f   rendermodel.obj
 0001:00158f10       ?preloadusedmapmodels@@YAX_N0@Z 0000000140159f10 f   rendermodel.obj
 0001:001590f0       ?loadmodel@@YAPEAUmodel@@PEBDH_N@Z 000000014015a0f0 f   rendermodel.obj
 0001:00159f00       ?updateparticles@@YAXXZ    000000014015af00 f   renderparticles.obj
 0001:0015aed0       ?regular_particle_flame@@YAXHAEBUvec@@MMHHMMMH@Z 000000014015bed0 f   renderparticles.obj
 0001:0015b1f0       ?regularshape@@YAXHHHHHHAEBUvec@@MHH@Z 000000014015c1f0 f   renderparticles.obj
 0001:0015be10       ?particle_fireball@@YAXAEBUvec@@MHHHM@Z 000000014015ce10 f   renderparticles.obj
 0001:0015beb0       ?particle_flare@@YAXAEBUvec@@0HHHMPEAUphysent@@@Z 000000014015ceb0 f   renderparticles.obj
 0001:0015bf10       ?particle_meter@@YAXAEBUvec@@MHHHHM@Z 000000014015cf10 f   renderparticles.obj
 0001:0015bff0       ?particle_icon@@YAXAEBUvec@@HHHHHMH@Z 000000014015cff0 f   renderparticles.obj
 0001:0015c080       ?particle_textcopy@@YAXAEBUvec@@PEBDHHHMH@Z 000000014015d080 f   renderparticles.obj
 0001:0015c1a0       ?particle_text@@YAXAEBUvec@@PEBDHHHMH@Z 000000014015d1a0 f   renderparticles.obj
 0001:0015c2a0       ?particle_trail@@YAXHHAEBUvec@@0HMH@Z 000000014015d2a0 f   renderparticles.obj
 0001:0015c5e0       ?particle_splash@@YAXHHHAEBUvec@@HMHH@Z 000000014015d5e0 f   renderparticles.obj
 0001:0015c630       ?regular_particle_splash@@YAXHHHAEBUvec@@HMHHH@Z 000000014015d630 f   renderparticles.obj
 0001:0015c6c0       ?canaddparticles@@YA_NXZ   000000014015d6c0 f   renderparticles.obj
 0001:0015cb90       ?removetrackedparticles@@YAXPEAUphysent@@@Z 000000014015db90 f   renderparticles.obj
 0001:0015cbe0       ?cleanupparticles@@YAXXZ   000000014015dbe0 f   renderparticles.obj
 0001:0015cc20       ?initparticles@@YAXXZ      000000014015dc20 f   renderparticles.obj
 0001:0015ccf0       ?var_fewparticles@@YAXXZ   000000014015dcf0 f   renderparticles.obj
 0001:0015cd00       ?var_maxparticles@@YAXXZ   000000014015dd00 f   renderparticles.obj
 0001:0015d890       ?cleanup@sphere@@YAXXZ     000000014015e890 f   renderparticles.obj
 0001:0015d8f0       ?disable@sphere@@YAXXZ     000000014015e8f0 f   renderparticles.obj
 0001:0015d930       ?draw@sphere@@YAXXZ        000000014015e930 f   renderparticles.obj
 0001:0015d990       ?enable@sphere@@YAXXZ      000000014015e990 f   renderparticles.obj
 0001:0015da80       ?init@sphere@@YAXHH@Z      000000014015ea80 f   renderparticles.obj
 0001:0015dea0       ?binddepthfxparams@@YAXMM_NPEAX@Z 000000014015eea0 f   renderparticles.obj
 0001:0015e150       ?binddepthfxtex@@YA_NXZ    000000014015f150 f   renderparticles.obj
 0001:0015e1c0       ?cleanupdepthfx@@YAXXZ     000000014015f1c0 f   renderparticles.obj
 0001:0015e2c0       ?var_depthfxsize@@YAXXZ    000000014015f2c0 f   renderparticles.obj
 0001:0015e3c0       ?var_fpdepthfx@@YAXXZ      000000014015f3c0 f   renderparticles.obj
 0001:0015ebc0       ?addparticleemitters@@YAXXZ 000000014015fbc0 f   renderparticles.obj
 0001:0015edd0       ?finddepthfxranges@@YAXXZ  000000014015fdd0 f   renderparticles.obj
 0001:0015f070       ?renderparticles@@YAX_N@Z  0000000140160070 f   renderparticles.obj
 0001:0015f520       ?drawdepthfxtex@@YAXXZ     0000000140160520 f   renderparticles.obj
 0001:0015f580       ?viewdepthfxtex@@YAXXZ     0000000140160580 f   renderparticles.obj
 0001:0015f5b0       ?debugparticles@@YAXXZ     00000001401605b0 f   renderparticles.obj
 0001:0015f7c0       ?clearparticleemitters@@YAXXZ 00000001401607c0 f   renderparticles.obj
 0001:0015f7e0       ?printparticles@@YA_NAEAUextentity@@PEADH@Z 00000001401607e0 f   renderparticles.obj
 0001:0015f980       ?clearparticles@@YAXXZ     0000000140160980 f   renderparticles.obj
 0001:0015f9d0       ?seedparticles@@YAXXZ      00000001401609d0 f   renderparticles.obj
 0001:001609e0       ?drawskyoutline@@YAXXZ     00000001401619e0 f   rendersky.obj
 0001:00160b40       ?drawskylimits@@YA_N_N@Z   0000000140161b40 f   rendersky.obj
 0001:00160bd0       ?cleanupsky@@YAXXZ         0000000140161bd0 f   rendersky.obj
 0001:00160c30       ?draw@fogdome@@YAXXZ       0000000140161c30 f   rendersky.obj
 0001:00160ed0       ?cleanup@fogdome@@YAXXZ    0000000140161ed0 f   rendersky.obj
 0001:00160f30       ?init@fogdome@@YAXAEBUbvec@@MMMMHH@Z 0000000140161f30 f   rendersky.obj
 0001:00161e30       ?sortcap@fogdome@@YAHGG@Z  0000000140162e30 f   rendersky.obj
 0001:00161e90       ?subdivide@fogdome@@YAXHH@Z 0000000140162e90 f   rendersky.obj
 0001:00162270       ?genface@fogdome@@YAXHHHH@Z 0000000140163270 f   rendersky.obj
 0001:001622b0       ?var_fogdomecolour@@YAXXZ  00000001401632b0 f   rendersky.obj
 0001:001622f0       ?drawenvoverlay@@YAXHPEAUTexture@@MM@Z 00000001401632f0 f   rendersky.obj
 0001:00162830       ?drawenvbox@@YAXHMMHPEAPEAUTexture@@@Z 0000000140163830 f   rendersky.obj
 0001:00162cf0       ?drawenvboxface@@YAXMMHHHMMHHHMMHHHMMHHHPEAUTexture@@@Z 0000000140163cf0 f   rendersky.obj
 0001:00163010       ?var_cloudlayer@@YAXXZ     0000000140164010 f   rendersky.obj
 0001:00163190       ?var_cloudbox@@YAXXZ       0000000140164190 f   rendersky.obj
 0001:001631b0       ?var_skybox@@YAXXZ         00000001401641b0 f   rendersky.obj
 0001:001631d0       ?loadskyoverlay@@YAPEAUTexture@@PEBD@Z 00000001401641d0 f   rendersky.obj
 0001:00163330       ?loadsky@@YAXPEBDQEAPEAUTexture@@@Z 0000000140164330 f   rendersky.obj
 0001:001635f0       ?drawskybox@@YAXH_N@Z      00000001401645f0 f   rendersky.obj
 0001:00164380       ?limitsky@@YA_NXZ          0000000140165380 f   rendersky.obj
 0001:00164660       ?reloadfonts@@YAXXZ        0000000140165660 f   rendertext.obj
 0001:00165160       ?tabify@@YAXPEBDPEAH@Z     0000000140166160 f   rendertext.obj
 0001:00165280       ?popfont@@YA_NXZ           0000000140166280 f   rendertext.obj
 0001:001652c0       ?pushfont@@YAXXZ           00000001401662c0 f   rendertext.obj
 0001:001653c0       ?setfont@@YA_NPEBD@Z       00000001401663c0 f   rendertext.obj
 0001:00165400       ?fontalias@@YAXPEBD0@Z     0000000140166400 f   rendertext.obj
 0001:00165600       ?fontskip@@YAXPEAH@Z       0000000140166600 f   rendertext.obj
 0001:001656b0       ?fontchar@@YAXPEAH000000@Z 00000001401666b0 f   rendertext.obj
 0001:001657b0       ?fonttex@@YAXPEAD@Z        00000001401667b0 f   rendertext.obj
 0001:00165860       ?fontscale@@YAXPEAH@Z      0000000140166860 f   rendertext.obj
 0001:00165880       ?fontoffset@@YAXPEAD@Z     0000000140166880 f   rendertext.obj
 0001:001658a0       ?newfont@@YAXPEAD0PEAH1@Z  00000001401668a0 f   rendertext.obj
 0001:00165a00       ?gettextres@@YAXAEAH0@Z    0000000140166a00 f   rendertext.obj
 0001:00165a60       ?draw_textf@@YAXPEBDHHZZ   0000000140166a60 f   rendertext.obj
 0001:00165b10       ?text_posf@@YAXPEBDHAEAM1H@Z 0000000140166b10 f   rendertext.obj
 0001:00165e20       ?text_visible@@YAHPEBDMMH@Z 0000000140166e20 f   rendertext.obj
 0001:00166130       ?text_boundsf@@YAXPEBDAEAM1H@Z 0000000140167130 f   rendertext.obj
 0001:001663b0       ?draw_text@@YAXPEBDHHHHHHHH@Z 00000001401673b0 f   rendertext.obj
 0001:001669f0       ?text_widthf@@YAMPEBD@Z    00000001401679f0 f   rendertext.obj
 0001:00166f40       ?renderreflectedskyvas@@YAXAEAU?$vector@PEAUvtxarray@@@@H@Z 0000000140167f40 f   renderva.obj
 0001:001670c0       ?renderskyva@@YAXPEAUvtxarray@@_N@Z 00000001401680c0 f   renderva.obj
 0001:00167230       ?findreflectedvas@@YAXAEAU?$vector@PEAUvtxarray@@@@H@Z 0000000140168230 f   renderva.obj
 0001:00167590       ?cleanupgeom@@YAXAEAUrenderstate@@@Z 0000000140168590 f   renderva.obj
 0001:00167610       ?setupgeom@@YAXAEAUrenderstate@@@Z 0000000140168610 f   renderva.obj
 0001:001678a0       ?setupcaustics@@YAXM@Z     00000001401688a0 f   renderva.obj
 0001:00167d60       ?var_caustics@@YAXXZ       0000000140168d60 f   renderva.obj
 0001:00167d70       ?cleanupva@@YAXXZ          0000000140168d70 f   renderva.obj
 0001:00167eb0       ?renderva@@YAXAEAUrenderstate@@PEAUvtxarray@@H_N2@Z 0000000140168eb0 f   renderva.obj
 0001:00168420       ?renderfoggedvas@@YAXAEAUrenderstate@@_N@Z 0000000140169420 f   renderva.obj
 0001:00168640       ?renderzpass@@YAXAEAUrenderstate@@PEAUvtxarray@@@Z 0000000140169640 f   renderva.obj
 0001:0016a0b0       ?rendershadowmapreceivers@@YAXXZ 000000014016b0b0 f   renderva.obj
 0001:0016a510       ?rendermapmodel@@YAXAEAUextentity@@@Z 000000014016b510 f   renderva.obj
 0001:0016a600       ?findvisiblemms@@YAXAEBU?$vector@PEAUextentity@@@@_N@Z 000000014016b600 f   renderva.obj
 0001:0016ac20       ?clearqueries@@YAXXZ       000000014016bc20 f   renderva.obj
 0001:0016acc0       ?flipqueries@@YAXXZ        000000014016bcc0 f   renderva.obj
 0001:0016adb0       ?restorevfcP@@YAXXZ        000000014016bdb0 f   renderva.obj
 0001:0016ae10       ?savevfcP@@YAXXZ           000000014016be10 f   renderva.obj
 0001:0016ae60       ?setvfcP@@YAXMAEBUvec@@0@Z 000000014016be60 f   renderva.obj
 0001:0016b3c0       ?calcvfcD@@YAXXZ           000000014016c3c0 f   renderva.obj
 0001:0016b490       ?findvisiblevas@@YAXAEAU?$vector@PEAUvtxarray@@@@_N@Z 000000014016c490 f   renderva.obj
 0001:0016b760       ?sortvisiblevas@@YAXXZ     000000014016c760 f   renderva.obj
 0001:0016ba90       ?addvisibleva@@YAXPEAUvtxarray@@@Z 000000014016ca90 f   renderva.obj
 0001:0016bb30       ?vadist@@YAMPEAUvtxarray@@AEBUvec@@@Z 000000014016cb30 f   renderva.obj
 0001:0016bb50       ?isvisiblecube@@YAHAEBUivec@@H@Z 000000014016cb50 f   renderva.obj
 0001:0016bec0       ?rendersky@@YA_N_N@Z       000000014016cec0 f   renderva.obj
 0001:0016c060       ?renderdepthobstacles@@YAXAEBUvec@@0MPEAMH@Z 000000014016d060 f   renderva.obj
 0001:0016ca40       ?bboccluded@@YA_NAEBUivec@@0@Z 000000014016da40 f   renderva.obj
 0001:0016cc80       ?endquery@@YAXPEAUoccludequery@@@Z 000000014016dc80 f   renderva.obj
 0001:0016cca0       ?startquery@@YAXPEAUoccludequery@@@Z 000000014016dca0 f   renderva.obj
 0001:0016ccc0       ?startbb@@YAX_N@Z          000000014016dcc0 f   renderva.obj
 0001:0016ce00       ?newquery@@YAPEAUoccludequery@@PEAX@Z 000000014016de00 f   renderva.obj
 0001:0016ce90       ?drawbb@@YAXAEBUivec@@0@Z  000000014016de90 f   renderva.obj
 0001:0016d320       ?endbb@@YAX_N@Z            000000014016e320 f   renderva.obj
 0001:0016d380       ?checkquery@@YA_NPEAUoccludequery@@_N@Z 000000014016e380 f   renderva.obj
 0001:0016d3f0       ?rendergeom@@YAXM_N@Z      000000014016e3f0 f   renderva.obj
 0001:0016e4a0       ?renderreflectedmapmodels@@YAXXZ 000000014016f4a0 f   renderva.obj
 0001:0016e7b0       ?renderalphageom@@YAX_N@Z  000000014016f7b0 f   renderva.obj
 0001:0016ef70       ?renderreflectedgeom@@YAX_N0@Z 000000014016ff70 f   renderva.obj
 0001:0016efc0       ?visiblecubes@@YAX_N@Z     000000014016ffc0 f   renderva.obj
 0001:0016f110       ?rendermapmodels@@YAXXZ    0000000140170110 f   renderva.obj
 0001:0016f540       ?renderoutline@@YAXXZ      0000000140170540 f   renderva.obj
 0001:0016f8c0       ?getnumqueries@@YAHXZ      00000001401708c0 f   renderva.obj
 0001:0016f8e0       ?loadcaustics@@YAX_N@Z     00000001401708e0 f   renderva.obj
 0001:0016f9c0       ?isfoggedsphere@@YA_NMAEBUvec@@@Z 00000001401709c0 f   renderva.obj
 0001:0016faa0       ?resetqueries@@YAXXZ       0000000140170aa0 f   renderva.obj
 0001:0016fb10       ?isvisiblesphere@@YAHMAEBUvec@@@Z 0000000140170b10 f   renderva.obj
 0001:0016fbe0       ?renderblendbrush@@YAXIMMMM@Z 0000000140170be0 f   renderva.obj
 0001:001703e0       ?reloadshaders@@YAXXZ      00000001401713e0 f   shader.obj
 0001:001705c0       ?cleanupshaders@@YAXXZ     00000001401715c0 f   shader.obj
 0001:00170700       ?run@?$_icmd_setpostfx@$0FKA@@@SAXPEADPEAM111@Z 0000000140171700 f   shader.obj
 0001:001707a0       ?run@?$_icmd_addpostfx@$0FJK@@@SAXPEADPEAH10PEAM222@Z 00000001401717a0 f   shader.obj
 0001:001708e0       ?clearpostfx@@YAXXZ        00000001401718e0 f   shader.obj
 0001:00170b60       ?cleanuppostfx@@YAX_N@Z    0000000140171b60 f   shader.obj
 0001:00170e80       ?run@?$_icmd_defuniformparam@$0EOK@@@SAXPEADPEAM111@Z 0000000140171e80 f   shader.obj
 0001:00170eb0       ?run@?$_icmd_setshaderparam@$0EOJ@@@SAXPEADPEAM111@Z 0000000140171eb0 f   shader.obj
 0001:00170ee0       ?run@?$_icmd_setuniformparam@$0EOI@@@SAXPEADPEAM111@Z 0000000140171ee0 f   shader.obj
 0001:00170f10       ?addslotparam@@YAXPEBDMMMM@Z 0000000140171f10 f   shader.obj
 0001:00171020       ?run@?$_icmd_isshaderdefined@$0EMK@@@SAXPEAD@Z 0000000140172020 f   shader.obj
 0001:00171070       ?run@?$_icmd_forceshader@$0EMI@@@SAXPEBD@Z 0000000140172070 f   shader.obj
 0001:001710c0       ?fastshader@@YAXPEAD0PEAH@Z 00000001401720c0 f   shader.obj
 0001:00171210       ?altshader@@YAXPEAD0@Z     0000000140172210 f   shader.obj
 0001:00171270       ?linkvslotshader@@YAXAEAUVSlot@@_N@Z 0000000140172270 f   shader.obj
 0001:00171440       ?linkslotshader@@YAXAEAUSlot@@_N@Z 0000000140172440 f   shader.obj
 0001:001715a0       ?setslotshader@@YAXAEAUSlot@@@Z 00000001401725a0 f   shader.obj
 0001:00171660       ?resetslotshader@@YAXXZ    0000000140172660 f   shader.obj
 0001:00171690       ?setshader@@YAXPEAD@Z      0000000140172690 f   shader.obj
 0001:001716f0       ?variantshader@@YAXPEAHPEAD011@Z 00000001401726f0 f   shader.obj
 0001:00171a60       ?shader@@YAXPEAHPEAD11@Z   0000000140172a60 f   shader.obj
 0001:00171db0       ?fixdetailshader@Shader@@QEAAX_N0@Z 0000000140172db0 f   shader.obj
 0001:00171f80       ?var_shaderdetail@@YAXXZ   0000000140172f80 f   shader.obj
 0001:00172050       ?fixshaderdetail@@YAXXZ    0000000140173050 f   shader.obj
 0001:00172120       ?force@Shader@@QEAAXXZ     0000000140173120 f   shader.obj
 0001:00172220       ?defershader@@YAXPEAHPEBD1@Z 0000000140173220 f   shader.obj
 0001:00174580       ?newshader@@YAPEAUShader@@HPEBD00PEAU1@H@Z 0000000140175580 f   shader.obj
 0001:001750c0       ?cleanup@Shader@@QEAAX_N@Z 00000001401760c0 f   shader.obj
 0001:00175230       ?compile@Shader@@QEAA_NXZ  0000000140176230 f   shader.obj
 0001:001764f0       ?loadshaders@@YAXXZ        00000001401774f0 f   shader.obj
 0001:00176730       ?setslotparams@Shader@@QEAAXAEAUSlot@@AEAUVSlot@@@Z 0000000140177730 f   shader.obj
 0001:00176ea0       ?generateshader@@YAPEAUShader@@PEBD0ZZ 0000000140177ea0 f   shader.obj
 0001:00176fa0       ?uniformlocversion@Shader@@SAHXZ 0000000140177fa0 f   shader.obj
 0001:00177040       ?setupshaders@@YAXXZ       0000000140178040 f   shader.obj
 0001:00177180       ?renderpostfx@@YAXXZ       0000000140178180 f   shader.obj
 0001:00177ae0       ?getlocalparam@@YAHPEBD@Z  0000000140178ae0 f   shader.obj
 0001:00177b90       ?setupblurkernel@@YAXHMPEAM0@Z 0000000140178b90 f   shader.obj
 0001:00178110       ?setblurshader@@YAXHHHPEAM0@Z 0000000140179110 f   shader.obj
 0001:001783e0       ?minimizedynlighttcusage@@YA_NXZ 00000001401793e0 f   shader.obj
 0001:00178410       ?allocparams@Shader@@QEAAXPEAUSlot@@@Z 0000000140179410 f   shader.obj
 0001:00178740       ?bindprograms@Shader@@QEAAXXZ 0000000140179740 f   shader.obj
 0001:00178780       ?useshaderbyname@@YAPEAUShader@@PEBD@Z 0000000140179780 f   shader.obj
 0001:001787d0       ?resetversions@GlobalShaderParamState@@QEAAXXZ 00000001401797d0 f   shader.obj
 0001:00178950       ?getglobalparam@@YAPEAUGlobalShaderParamState@@PEBD@Z 0000000140179950 f   shader.obj
 0001:00178a40       ?lookupshaderbyname@@YAPEAUShader@@PEBD@Z 0000000140179a40 f   shader.obj
 0001:00178a70       ?getshaderparamname@@YAPEBDPEBD_N@Z 0000000140179a70 f   shader.obj
 0001:00178c30       ?calcshadowmapbb@@YAXAEBUvec@@MMAEAM111@Z 0000000140179c30 f   shadowmap.obj
 0001:00178eb0       ?cleanshadowmap@@YAXXZ     0000000140179eb0 f   shadowmap.obj
 0001:00178fb0       ?var_shadowmapangle@@YAXXZ 0000000140179fb0 f   shadowmap.obj
 0001:00179040       ?setshadowdir@@YAXH@Z      000000014017a040 f   shadowmap.obj
 0001:001790d0       ?var_shadowmapambient@@YAXXZ 000000014017a0d0 f   shadowmap.obj
 0001:00179120       ?var_shadowmapprecision@@YAXXZ 000000014017a120 f   shadowmap.obj
 0001:00179220       ?var_fpshadowmap@@YAXXZ    000000014017a220 f   shadowmap.obj
 0001:00179320       ?var_shadowmapsize@@YAXXZ  000000014017a320 f   shadowmap.obj
 0001:00179420       ?isshadowmapreceiver@@YA_NPEAUvtxarray@@@Z 000000014017a420 f   shadowmap.obj
 0001:00179730       ?rendershadowmap@@YAXXZ    000000014017a730 f   shadowmap.obj
 0001:00179790       ?pushshadowmap@@YAXXZ      000000014017a790 f   shadowmap.obj
 0001:00179b10       ?popshadowmap@@YAXXZ       000000014017ab10 f   shadowmap.obj
 0001:00179b20       ?isshadowmapcaster@@YA_NAEBUvec@@M@Z 000000014017ab20 f   shadowmap.obj
 0001:00179c50       ?addshadowmapcaster@@YA_NAEBUvec@@MM@Z 000000014017ac50 f   shadowmap.obj
 0001:00179d30       ?viewshadowmap@@YAXXZ      000000014017ad30 f   shadowmap.obj
 0001:00179d60       ?guessshadowdir@@YAXXZ     000000014017ad60 f   shadowmap.obj
 0001:0017db50       ?mergenormalmaps@@YAXPEAD0@Z 000000014017eb50 f   texture.obj
 0001:0017df60       ?flipnormalmapy@@YAXPEAD0@Z 000000014017ef60 f   texture.obj
 0001:0017e180       ?screenshot@@YAXPEAD@Z     000000014017f180 f   texture.obj
 0001:0017e540       ?saveimage@@YAXPEBDHAEAUImageData@@_N@Z 000000014017f540 f   texture.obj
 0001:0017e8d0       ?guessimageformat@@YAHPEBDH@Z 000000014017f8d0 f   texture.obj
 0001:0017e980       ?savetga@@YAXPEBDAEAUImageData@@_N@Z 000000014017f980 f   texture.obj
 0001:0017ece0       ?writepngchunk@@YAXPEAUstream@@PEBDPEAEI@Z 000000014017fce0 f   texture.obj
 0001:0017edb0       ?gendds@@YAXPEAD0@Z        000000014017fdb0 f   texture.obj
 0001:0017f3f0       ?loaddds@@YA_NPEBDAEAUImageData@@H@Z 00000001401803f0 f   texture.obj
 0001:00180e70       ?reloadtextures@@YAXXZ     0000000140181e70 f   texture.obj
 0001:00181030       ?reloadtex@@YAXPEAD@Z      0000000140182030 f   texture.obj
 0001:001811d0       ?reloadtexture@@YA_NPEBD@Z 00000001401821d0 f   texture.obj
 0001:001812c0       ?cleanuptextures@@YAXXZ    00000001401822c0 f   texture.obj
 0001:001819e0       ?cleanuptexture@@YAXPEAUTexture@@@Z 00000001401829e0 f   texture.obj
 0001:00181b00       ?genenvmap@@YAIAEBUvec@@HH@Z 0000000140182b00 f   texture.obj
 0001:00181e80       ?clearenvmaps@@YAXXZ       0000000140182e80 f   texture.obj
 0001:00181f10       ?cubemaploadwildcard@@YAPEAUTexture@@PEAU1@PEBD_N22@Z 0000000140182f10 f   texture.obj
 0001:00182a90       ?var_envmapsize@@YAXXZ     0000000140183a90 f   texture.obj
 0001:00182aa0       ?forcecubemapload@@YAXI@Z  0000000140183aa0 f   texture.obj
 0001:001843b0       ?texcolor@@YAXPEAM00@Z     00000001401853b0 f   texture.obj
 0001:00184440       ?texalpha@@YAXPEAM0@Z      0000000140185440 f   texture.obj
 0001:001844b0       ?texlayer@@YAXPEAHPEAD0PEAM@Z 00000001401854b0 f   texture.obj
 0001:00184580       ?texscale@@YAXPEAM@Z       0000000140185580 f   texture.obj
 0001:001845d0       ?texrotate_@@YAXPEAH@Z     00000001401855d0 f   texture.obj
 0001:00184620       ?texoffset_@@YAXPEAH0@Z    0000000140185620 f   texture.obj
 0001:00184680       ?texscroll@@YAXPEAM0@Z     0000000140185680 f   texture.obj
 0001:001846e0       ?autograss@@YAXPEAD@Z      00000001401856e0 f   texture.obj
 0001:00184760       ?texture@@YAXPEAD0PEAH11PEAM@Z 0000000140185760 f   texture.obj
 0001:00184d10       ?findslottex@@YAHPEBD@Z    0000000140185d10 f   texture.obj
 0001:00184d90       ?run@?$_icmd_fixinsidefaces@$0HNE@@@SAXPEAH@Z 0000000140185d90 f   texture.obj
 0001:00185020       ?packvslot@@YAXAEAU?$vector@E@@PEBUVSlot@@@Z 0000000140186020 f   texture.obj
 0001:00185080       ?packvslot@@YAXAEAU?$vector@E@@H@Z 0000000140186080 f   texture.obj
 0001:00185900       ?run@?$_icmd_compactvslots@$0GIO@@@SAXXZ 0000000140186900 f   texture.obj
 0001:001859f0       ?materialreset@@YAXXZ      00000001401869f0 f   texture.obj
 0001:00185a60       ?texturereset@@YAXPEAH@Z   0000000140186a60 f   texture.obj
 0001:00185bc0       ?settexture@@YA_NPEBDH@Z   0000000140186bc0 f   texture.obj
 0001:00187020       ?loadsurface@@YAPEAUSDL_Surface@@PEBD@Z 0000000140188020 f   texture.obj
 0001:00187250       ?canloadsurface@@YA_NPEBD@Z 0000000140188250 f   texture.obj
 0001:001872b0       ?scaleimage@@YAXAEAUImageData@@HH@Z 00000001401882b0 f   texture.obj
 0001:00187410       ?texblur@@YAXAEAUImageData@@HH@Z 0000000140188410 f   texture.obj
 0001:001875a0       ?texnormal@@YAXAEAUImageData@@H@Z 00000001401885a0 f   texture.obj
 0001:001878b0       ?texflip@@YAXAEAUImageData@@@Z 00000001401888b0 f   texture.obj
 0001:00187a30       ?fixsurfaceformat@@YAPEAUSDL_Surface@@PEAU1@@Z 0000000140188a30 f   texture.obj
 0001:00187b90       ?checkgrayscale@@YA_NPEAUSDL_Surface@@@Z 0000000140188b90 f   texture.obj
 0001:00187c20       ?creatergbasurface@@YAPEAUSDL_Surface@@PEAU1@@Z 0000000140188c20 f   texture.obj
 0001:00187cb0       ?creatergbsurface@@YAPEAUSDL_Surface@@PEAU1@@Z 0000000140188cb0 f   texture.obj
 0001:00187d30       ?wrapsurface@@YAPEAUSDL_Surface@@PEAXHHH@Z 0000000140188d30 f   texture.obj
 0001:00188420       ?createcompressedtexture@@YAXHHHPEAEHHHHHII_N@Z 0000000140189420 f   texture.obj
 0001:00188870       ?swizzlemask@@YAPEBHI@Z    0000000140189870 f   texture.obj
 0001:001888a0       ?uncompressedformat@@YAII@Z 00000001401898a0 f   texture.obj
 0001:00188940       ?textarget@@YAII@Z         0000000140189940 f   texture.obj
 0001:00188960       ?uploadcompressedtexture@@YAXIIIHHPEAEHHH_N@Z 0000000140189960 f   texture.obj
 0001:00188b10       ?uploadtexture@@YAXIIHHIIPEAXHHH_N@Z 0000000140189b10 f   texture.obj
 0001:00188ee0       ?resizetexture@@YAXHH_N0IHAEAH1@Z 0000000140189ee0 f   texture.obj
 0001:00189070       ?var_usenp2@@YAXXZ         000000014018a070 f   texture.obj
 0001:001890a0       ?formatsize@@YAHI@Z        000000014018a0a0 f   texture.obj
 0001:001890f0       ?compressedformat@@YAIIHHH@Z 000000014018a0f0 f   texture.obj
 0001:00189260       ?var_aniso@@YAXXZ          000000014018a260 f   texture.obj
 0001:00189290       ?var_bilinear@@YAXXZ       000000014018a290 f   texture.obj
 0001:001892c0       ?var_trilinear@@YAXXZ      000000014018a2c0 f   texture.obj
 0001:001892f0       ?var_texcompressquality@@YAXXZ 000000014018a2f0 f   texture.obj
 0001:00189340       ?var_texcompress@@YAXXZ    000000014018a340 f   texture.obj
 0001:00189370       ?var_texreduce@@YAXXZ      000000014018a370 f   texture.obj
 0001:001893a0       ?var_reducefilter@@YAXXZ   000000014018a3a0 f   texture.obj
 0001:001893d0       ?var_maxtexsize@@YAXXZ     000000014018a3d0 f   texture.obj
 0001:00189400       ?texagrad@@YAXAEAUImageData@@MMMM@Z 000000014018a400 f   texture.obj
 0001:001895c0       ?texpremul@@YAXAEAUImageData@@@Z 000000014018a5c0 f   texture.obj
 0001:00189710       ?texgrey@@YAXAEAUImageData@@@Z 000000014018a710 f   texture.obj
 0001:00189920       ?texmix@@YAXAEAUImageData@@HHHH@Z 000000014018a920 f   texture.obj
 0001:00189b20       ?texdup@@YAXAEAUImageData@@HH@Z 000000014018ab20 f   texture.obj
 0001:00189bc0       ?texcolormask@@YAXAEAUImageData@@AEBUvec@@1@Z 000000014018abc0 f   texture.obj
 0001:00189e60       ?texcolorify@@YAXAEAUImageData@@AEBUvec@@U2@@Z 000000014018ae60 f   texture.obj
 0001:00189fc0       ?texmad@@YAXAEAUImageData@@AEBUvec@@1@Z 000000014018afc0 f   texture.obj
 0001:0018a200       ?texoffset@@YAXAEAUImageData@@HH@Z 000000014018b200 f   texture.obj
 0001:0018a3e0       ?texrotate@@YAXAEAUImageData@@HH@Z 000000014018b3e0 f   texture.obj
 0001:0018a430       ?texreorient@@YAXAEAUImageData@@_N11H@Z 000000014018b430 f   texture.obj
 0001:0018aa00       ?swizzleimage@@YAXAEAUImageData@@@Z 000000014018ba00 f   texture.obj
 0001:0018acf0       ?forcergbimage@@YAXAEAUImageData@@@Z 000000014018bcf0 f   texture.obj
 0001:0018c6f0       ?linkslotshaders@@YAXXZ    000000014018d6f0 f   texture.obj
 0001:0018c840       ?reloadtexture@@YA_NAEAUTexture@@@Z 000000014018d840 f   texture.obj
 0001:0018c9d0       ?cubemapload@@YAPEAUTexture@@PEBD_N11@Z 000000014018d9d0 f   texture.obj
 0001:0018cb30       ?setuptexcompress@@YAXXZ   000000014018db30 f   texture.obj
 0001:0018cb80       ?setuptexparameters@@YAXHPEAXHHII_N@Z 000000014018db80 f   texture.obj
 0001:0018cd30       ?genenvmaps@@YAXXZ         000000014018dd30 f   texture.obj
 0001:0018ce30       ?closestenvmap@@YAGAEBUvec@@@Z 000000014018de30 f   texture.obj
 0001:0018cef0       ?lookupmaterialslot@@YAAEAUMSlot@@H_N@Z 000000014018def0 f   texture.obj
 0001:0018cf50       ?lookupenvmap@@YAIAEAUSlot@@@Z 000000014018df50 f   texture.obj
 0001:0018cfc0       ?lookupenvmap@@YAIG@Z      000000014018dfc0 f   texture.obj
 0001:0018d010       ?loadalphamask@@YAPEAEPEAUTexture@@@Z 000000014018e010 f   texture.obj
 0001:0018d1b0       ?compactvslots@@YAHXZ      000000014018e1b0 f   texture.obj
 0001:0018d6a0       ?textureload@@YAPEAUTexture@@PEBDH_N1@Z 000000014018e6a0 f   texture.obj
 0001:0018d890       ?clearslots@@YAXXZ         000000014018e890 f   texture.obj
 0001:0018d9c0       ?closestenvmap@@YAGHAEBUivec@@H@Z 000000014018e9c0 f   texture.obj
 0001:0018da70       ?initenvmaps@@YAXXZ        000000014018ea70 f   texture.obj
 0001:0018dcb0       ?packvslot@@YAXAEAU?$vector@E@@AEBUVSlot@@@Z 000000014018ecb0 f   texture.obj
 0001:0018e160       ?lookupslot@@YAAEAUSlot@@H_N@Z 000000014018f160 f   texture.obj
 0001:0018e1a0       ?unpackvslot@@YA_NAEAU?$databuf@E@@AEAUVSlot@@_N@Z 000000014018f1a0 f   texture.obj
 0001:0018e4e0       ?editvslot@@YAPEAUVSlot@@AEBU1@0@Z 000000014018f4e0 f   texture.obj
 0001:0018e600       ?compactvslot@@YAXAEAH@Z   000000014018f600 f   texture.obj
 0001:0018e650       ?compactvslot@@YAXAEAUVSlot@@@Z 000000014018f650 f   texture.obj
 0001:0018e6a0       ?compactvslots@@YAXPEAUcube@@H@Z 000000014018f6a0 f   texture.obj
 0001:0018e7f0       ?mergevslot@@YAXAEAUVSlot@@AEBU1@1@Z 000000014018f7f0 f   texture.obj
 0001:0018e8f0       ?findvslot@@YAPEAUVSlot@@AEAUSlot@@AEBU1@1@Z 000000014018f8f0 f   texture.obj
 0001:0018eab0       ?loadthumbnail@@YAPEAUTexture@@AEAUSlot@@@Z 000000014018fab0 f   texture.obj
 0001:0018fb10       ?texalign@@YAHPEBXHH@Z     0000000140190b10 f   texture.obj
 0001:0018fb30       ?blurtexture@@YAXHHHHPEAEPEBEH@Z 0000000140190b30 f   texture.obj
 0001:0018fbf0       ?blurnormals@@YAXHHHPEAUbvec@@PEBU1@H@Z 0000000140190bf0 f   texture.obj
 0001:0018fc70       ?lookupvslot@@YAAEAUVSlot@@H_N@Z 0000000140190c70 f   texture.obj
 0001:0018fd00       ?loadlayermasks@@YAXXZ     0000000140190d00 f   texture.obj
 0001:0018fde0       ?savepng@@YAXPEBDAEAUImageData@@_N@Z 0000000140190de0 f   texture.obj
 0001:001902f0       ?createtexture@@YAXHHHPEAXHHIIHHH_NI1@Z 00000001401912f0 f   texture.obj
 0001:00190540       ?loadimage@@YA_NPEBDAEAUImageData@@@Z 0000000140191540 f   texture.obj
 0001:00191010       ?maskreflection@@YAXAEAUReflection@@M_N1@Z 0000000140192010 f   water.obj
 0001:00191250       ?queryreflection@@YAXAEAUReflection@@_N@Z 0000000140192250 f   water.obj
 0001:00191c60       ?addreflection@@YAXAEAUmaterialsurface@@@Z 0000000140192c60 f   water.obj
 0001:00191dd0       ?addwaterfallrefraction@@YAXAEAUmaterialsurface@@@Z 0000000140192dd0 f   water.obj
 0001:00191e50       ?genwatertex@@YAXAEAI00_N@Z 0000000140192e50 f   water.obj
 0001:00192180       ?var_reflectsize@@YAXXZ    0000000140193180 f   water.obj
 0001:00192190       ?cleanreflection@@YAXAEAUReflection@@@Z 0000000140193190 f   water.obj
 0001:001921f0       ?var_waterfade@@YAXXZ      00000001401931f0 f   water.obj
 0001:00192210       ?setprojtexmatrix@@YAXAEAUReflection@@@Z 0000000140193210 f   water.obj
 0001:00192360       ?var_lava4colour@@YAXXZ    0000000140193360 f   water.obj
 0001:001923a0       ?var_lava3colour@@YAXXZ    00000001401933a0 f   water.obj
 0001:001923e0       ?var_lava2colour@@YAXXZ    00000001401933e0 f   water.obj
 0001:00192420       ?var_lavacolour@@YAXXZ     0000000140193420 f   water.obj
 0001:00192460       ?getwaterspec@@YAHH@Z      0000000140193460 f   water.obj
 0001:001924a0       ?var_water4fallcolour@@YAXXZ 00000001401934a0 f   water.obj
 0001:001924e0       ?var_water4colour@@YAXXZ   00000001401934e0 f   water.obj
 0001:00192520       ?var_water3fallcolour@@YAXXZ 0000000140193520 f   water.obj
 0001:00192560       ?var_water3colour@@YAXXZ   0000000140193560 f   water.obj
 0001:001925a0       ?var_water2fallcolour@@YAXXZ 00000001401935a0 f   water.obj
 0001:001925e0       ?var_water2colour@@YAXXZ   00000001401935e0 f   water.obj
 0001:00192620       ?var_waterfallcolour@@YAXXZ 0000000140193620 f   water.obj
 0001:00192660       ?var_watercolour@@YAXXZ    0000000140193660 f   water.obj
 0001:001928d0       ?var_vertwater@@YAXXZ      00000001401938d0 f   water.obj
 0001:001928e0       ?renderflatwater@@YAXHHHHHH@Z 00000001401938e0 f   water.obj
 0001:00192aa0       ?renderwaterlod@@YAHHHHHH@Z 0000000140193aa0 f   water.obj
 0001:00192cc0       ?calcwatersubdiv@@YAHHHHH@Z 0000000140193cc0 f   water.obj
 0001:00192dd0       ?rendervertwater@@YAXHHHHHH@Z 0000000140193dd0 f   water.obj
 0001:00193ff0       ?var_waterfallrefract@@YAXXZ 0000000140194ff0 f   water.obj
 0001:00194010       ?var_waterenvmap@@YAXXZ    0000000140195010 f   water.obj
 0001:00194030       ?var_waterrefract@@YAXXZ   0000000140195030 f   water.obj
 0001:00194050       ?var_waterreflect@@YAXXZ   0000000140195050 f   water.obj
 0001:00194070       ?getlavacolor@@YAAEBUbvec@@H@Z 0000000140195070 f   water.obj
 0001:001940b0       ?getlavafog@@YAHH@Z        00000001401950b0 f   water.obj
 0001:001940f0       ?renderwater@@YAXXZ        00000001401950f0 f   water.obj
 0001:00195510       ?queryreflections@@YAXXZ   0000000140196510 f   water.obj
 0001:00195c90       ?drawreflections@@YAXXZ    0000000140196c90 f   water.obj
 0001:00196510       ?preloadwatershaders@@YAX_N@Z 0000000140197510 f   water.obj
 0001:00196710       ?getwaterfallcolor@@YAAEBUbvec@@H@Z 0000000140197710 f   water.obj
 0001:00196750       ?getwatercolor@@YAAEBUbvec@@H@Z 0000000140197750 f   water.obj
 0001:00196790       ?getwaterfog@@YAHH@Z       0000000140197790 f   water.obj
 0001:001967d0       ?renderlava@@YAXAEBUmaterialsurface@@PEAUTexture@@M@Z 00000001401977d0 f   water.obj
 0001:00196840       ?setupwaterfallrefract@@YAXXZ 0000000140197840 f   water.obj
 0001:00196880       ?cleanreflections@@YAXXZ   0000000140197880 f   water.obj
 0001:00197e40       ?clearsleep_@@YAXPEAH@Z    0000000140198e40 f   command.obj
 0001:00197e70       ?checksleep@@YAXH@Z        0000000140198e70 f   command.obj
 0001:00197fc0       ?addsleep@@YAXPEAHPEAD@Z   0000000140198fc0 f   command.obj
 0001:00198120       ?run@?$_stdcmd@$0MFJ@@@SAXPEAH@Z 0000000140199120 f   command.obj
 0001:00198150       ?strsplice@@YAXPEBD0PEAH1@Z 0000000140199150 f   command.obj
 0001:00198270       ?run@?$_stdcmd@$0MEI@@@SAXPEAD00@Z 0000000140199270 f   command.obj
 0001:001982a0       ?strreplace@@YAPEADPEBD00@Z 00000001401992a0 f   command.obj
 0001:00198640       ?run@?$_stdcmd@$0MCO@@@SAXPEAD@Z 0000000140199640 f   command.obj
 0001:001986e0       ?run@?$_stdcmd@$0MCN@@@SAXPEAD@Z 00000001401996e0 f   command.obj
 0001:00198780       ?run@?$_stdcmd@$0MCB@@@SAXPEAH@Z 0000000140199780 f   command.obj
 0001:00198800       ?run@?$_stdcmd@$0MCA@@@SAXPEADPEAH@Z 0000000140199800 f   command.obj
 0001:00198870       ?run@?$_stdcmd@$0MBP@@@SAXPEAH@Z 0000000140199870 f   command.obj
 0001:001988c0       ?run@?$_stdcmd@$0MBO@@@SAXPEADPEAH@Z 00000001401998c0 f   command.obj
 0001:00198920       ?run@?$_stdcmd@$0MBN@@@SAXPEAD@Z 0000000140199920 f   command.obj
 0001:00198950       ?run@?$_stdcmd@$0MBM@@@SAXPEAD0@Z 0000000140199950 f   command.obj
 0001:00198990       ?run@?$_stdcmd@$0MBL@@@SAXPEAD@Z 0000000140199990 f   command.obj
 0001:001989b0       ?run@?$_stdcmd@$0MBK@@@SAXPEAD@Z 00000001401999b0 f   command.obj
 0001:001989d0       ?run@?$_stdcmd@$0MBJ@@@SAXPEAD0@Z 00000001401999d0 f   command.obj
 0001:00198a10       ?run@?$_stdcmd@$0MBI@@@SAXPEAD0@Z 0000000140199a10 f   command.obj
 0001:00198a50       ?run@?$_stdcmd@$0MBH@@@SAXPEAD0@Z 0000000140199a50 f   command.obj
 0001:00198a90       ?run@?$_stdcmd@$0MBG@@@SAXPEAD0@Z 0000000140199a90 f   command.obj
 0001:00198ae0       ?run@?$_stdcmd@$0MBF@@@SAXPEAD0@Z 0000000140199ae0 f   command.obj
 0001:00198b20       ?run@?$_stdcmd@$0MBE@@@SAXPEAD0@Z 0000000140199b20 f   command.obj
 0001:00198b60       ?run@?$_stdcmd@$0MBD@@@SAXPEAD0@Z 0000000140199b60 f   command.obj
 0001:00198ba0       ?run@?$_stdcmd@$0MBC@@@SAXPEAH0@Z 0000000140199ba0 f   command.obj
 0001:00198bf0       ?run@?$_stdcmd@$0MBA@@@SAXPEAUtagval@@H@Z 0000000140199bf0 f   command.obj
 0001:00198d10       ?run@?$_stdcmd@$0MAP@@@SAXPEAUtagval@@H@Z 0000000140199d10 f   command.obj
 0001:00198e60       ?run@?$_stdcmd@$0MAO@@@SAXPEAUtagval@@H@Z 0000000140199e60 f   command.obj
 0001:00198f60       ?run@?$_stdcmd@$0LPP@@@SAXPEAUtagval@@H@Z 0000000140199f60 f   command.obj
 0001:00199050       ?run@?$_stdcmd@$0LOL@@@SAXPEAM@Z 000000014019a050 f   command.obj
 0001:00199080       ?run@?$_stdcmd@$0LOK@@@SAXPEAH@Z 000000014019a080 f   command.obj
 0001:001990a0       ?run@?$_stdcmd@$0LOJ@@@SAXPEAUtagval@@H@Z 000000014019a0a0 f   command.obj
 0001:001991e0       ?run@?$_stdcmd@$0LOD@@@SAXPEAUtagval@@H@Z 000000014019a1e0 f   command.obj
 0001:00199320       ?run@?$_stdcmd@$0LNN@@@SAXPEAUtagval@@H@Z 000000014019a320 f   command.obj
 0001:001993f0       ?run@?$_stdcmd@$0LNH@@@SAXPEAUtagval@@H@Z 000000014019a3f0 f   command.obj
 0001:001994c0       ?run@?$_stdcmd@$0LNB@@@SAXPEAM@Z 000000014019a4c0 f   command.obj
 0001:001994f0       ?run@?$_stdcmd@$0LNA@@@SAXPEAM@Z 000000014019a4f0 f   command.obj
 0001:00199520       ?run@?$_stdcmd@$0LMP@@@SAXPEAM@Z 000000014019a520 f   command.obj
 0001:00199560       ?run@?$_stdcmd@$0LMO@@@SAXPEAM@Z 000000014019a560 f   command.obj
 0001:00199590       ?run@?$_stdcmd@$0LMN@@@SAXPEAM0@Z 000000014019a590 f   command.obj
 0001:001995c0       ?run@?$_stdcmd@$0LMM@@@SAXPEAM@Z 000000014019a5c0 f   command.obj
 0001:001995e0       ?run@?$_stdcmd@$0LML@@@SAXPEAM0@Z 000000014019a5e0 f   command.obj
 0001:00199630       ?run@?$_stdcmd@$0LMK@@@SAXPEAM@Z 000000014019a630 f   command.obj
 0001:00199670       ?run@?$_stdcmd@$0LMJ@@@SAXPEAM@Z 000000014019a670 f   command.obj
 0001:001996b0       ?run@?$_stdcmd@$0LMI@@@SAXPEAM@Z 000000014019a6b0 f   command.obj
 0001:001996f0       ?run@?$_stdcmd@$0LMH@@@SAXPEAM@Z 000000014019a6f0 f   command.obj
 0001:00199730       ?run@?$_stdcmd@$0LMG@@@SAXPEAM@Z 000000014019a730 f   command.obj
 0001:00199770       ?run@?$_stdcmd@$0LMF@@@SAXPEAM@Z 000000014019a770 f   command.obj
 0001:001997b0       ?run@?$_stdcmd@$0LME@@@SAXPEAM0@Z 000000014019a7b0 f   command.obj
 0001:001997f0       ?run@?$_stdcmd@$0LMD@@@SAXPEAM0@Z 000000014019a7f0 f   command.obj
 0001:00199820       ?run@?$_stdcmd@$0LMC@@@SAXPEAH0@Z 000000014019a820 f   command.obj
 0001:00199860       ?run@?$_stdcmd@$0LMB@@@SAXPEAH0@Z 000000014019a860 f   command.obj
 0001:001998a0       ?run@?$_stdcmd@$0LLP@@@SAXPEAUtagval@@H@Z 000000014019a8a0 f   command.obj
 0001:00199a40       ?run@?$_stdcmd@$0LLF@@@SAXPEAUtagval@@H@Z 000000014019aa40 f   command.obj
 0001:00199be0       ?run@?$_stdcmd@$0LKL@@@SAXPEAH0@Z 000000014019abe0 f   command.obj
 0001:00199c10       ?run@?$_stdcmd@$0LKK@@@SAXPEAH0@Z 000000014019ac10 f   command.obj
 0001:00199c40       ?run@?$_stdcmd@$0LKJ@@@SAXPEAH0@Z 000000014019ac40 f   command.obj
 0001:00199c70       ?run@?$_stdcmd@$0LKI@@@SAXPEAH0@Z 000000014019ac70 f   command.obj
 0001:00199ca0       ?run@?$_stdcmd@$0LKH@@@SAXPEAH0@Z 000000014019aca0 f   command.obj
 0001:00199cd0       ?run@?$_stdcmd@$0LKG@@@SAXPEAH@Z 000000014019acd0 f   command.obj
 0001:00199cf0       ?run@?$_stdcmd@$0LKF@@@SAXPEAH0@Z 000000014019acf0 f   command.obj
 0001:00199d10       ?run@?$_stdcmd@$0LKE@@@SAXPEAH0@Z 000000014019ad10 f   command.obj
 0001:00199d30       ?run@?$_stdcmd@$0LKD@@@SAXPEAUtagval@@@Z 000000014019ad30 f   command.obj
 0001:00199d60       ?run@?$_stdcmd@$0LKC@@@SAXPEAH0@Z 000000014019ad60 f   command.obj
 0001:00199d80       ?run@?$_stdcmd@$0LKB@@@SAXPEAM0@Z 000000014019ad80 f   command.obj
 0001:00199db0       ?run@?$_stdcmd@$0LKA@@@SAXPEAM0@Z 000000014019adb0 f   command.obj
 0001:00199de0       ?run@?$_stdcmd@$0LJP@@@SAXPEAM0@Z 000000014019ade0 f   command.obj
 0001:00199e10       ?run@?$_stdcmd@$0LJO@@@SAXPEAM0@Z 000000014019ae10 f   command.obj
 0001:00199e40       ?run@?$_stdcmd@$0LJN@@@SAXPEAM0@Z 000000014019ae40 f   command.obj
 0001:00199e80       ?run@?$_stdcmd@$0LJM@@@SAXPEAM0@Z 000000014019ae80 f   command.obj
 0001:00199ec0       ?run@?$_stdcmd@$0LJL@@@SAXPEAH0@Z 000000014019aec0 f   command.obj
 0001:00199ef0       ?run@?$_stdcmd@$0LJK@@@SAXPEAH0@Z 000000014019aef0 f   command.obj
 0001:00199f20       ?run@?$_stdcmd@$0LJJ@@@SAXPEAH0@Z 000000014019af20 f   command.obj
 0001:00199f50       ?run@?$_stdcmd@$0LJI@@@SAXPEAH0@Z 000000014019af50 f   command.obj
 0001:00199f80       ?run@?$_stdcmd@$0LJH@@@SAXPEAH0@Z 000000014019af80 f   command.obj
 0001:00199fb0       ?run@?$_stdcmd@$0LJG@@@SAXPEAH0@Z 000000014019afb0 f   command.obj
 0001:00199fe0       ?run@?$_stdcmd@$0LJF@@@SAXPEAM0@Z 000000014019afe0 f   command.obj
 0001:0019a010       ?run@?$_stdcmd@$0LJE@@@SAXPEAM0@Z 000000014019b010 f   command.obj
 0001:0019a040       ?run@?$_stdcmd@$0LJD@@@SAXPEAM0@Z 000000014019b040 f   command.obj
 0001:0019a070       ?run@?$_stdcmd@$0LJC@@@SAXPEAH0@Z 000000014019b070 f   command.obj
 0001:0019a090       ?run@?$_stdcmd@$0LJB@@@SAXPEAH0@Z 000000014019b090 f   command.obj
 0001:0019a0b0       ?run@?$_stdcmd@$0LJA@@@SAXPEAH0@Z 000000014019b0b0 f   command.obj
 0001:0019a0d0       ?sortlist@@YAXPEADPEAUident@@1PEAI@Z 000000014019b0d0 f   command.obj
 0001:0019a4d0       ?findfile_@@YAXPEAD@Z      000000014019b4d0 f   command.obj
 0001:0019a640       ?run@?$_stdcmd@$0LDJ@@@SAXPEAUident@@PEAD1PEAI@Z 000000014019b640 f   command.obj
 0001:0019a820       ?listsplice@@YAXPEBD0PEAH1@Z 000000014019b820 f   command.obj
 0001:0019ad60       ?run@?$_stdcmd@$0KPM@@@SAXPEAD0@Z 000000014019bd60 f   command.obj
 0001:0019ad90       ?listdel@@YAPEADPEBD0@Z    000000014019bd90 f   command.obj
 0001:0019b050       ?run@?$_stdcmd@$0KOM@@@SAXPEAD0@Z 000000014019c050 f   command.obj
 0001:0019b090       ?listincludes@@YAHPEBD0H@Z 000000014019c090 f   command.obj
 0001:0019b440       ?prettylist@@YAXPEBD0@Z    000000014019c440 f   command.obj
 0001:0019b860       ?listfilter@@YAXPEAUident@@PEBDPEBI@Z 000000014019c860 f   command.obj
 0001:0019bc30       ?run@?$_stdcmd@$0KLB@@@SAXPEAUident@@PEADPEAI@Z 000000014019cc30 f   command.obj
 0001:0019bc40       ?run@?$_stdcmd@$0KLA@@@SAXPEAUident@@PEADPEAI@Z 000000014019cc40 f   command.obj
 0001:0019bc50       ?looplistconc@@YAXPEAUident@@PEBDPEBI_N@Z 000000014019cc50 f   command.obj
 0001:0019c080       ?looplist@@YAXPEAUident@@PEBDPEBI@Z 000000014019d080 f   command.obj
 0001:0019c290       ?listfind@@YAXPEAUident@@PEBDPEBI@Z 000000014019d290 f   command.obj
 0001:0019c610       ?run@?$_stdcmd@$0KGD@@@SAXPEAD@Z 000000014019d610 f   command.obj
 0001:0019c6c0       ?sublist@@YAXPEBDPEAH11@Z  000000014019d6c0 f   command.obj
 0001:0019c840       ?substr@@YAXPEADPEAH11@Z   000000014019d840 f   command.obj
 0001:0019c8b0       ?at@@YAXPEAUtagval@@H@Z    000000014019d8b0 f   command.obj
 0001:0019ca50       ?run@?$_stdcmd@$0KDK@@@SAXPEAD@Z 000000014019da50 f   command.obj
 0001:0019ca80       ?listlen@@YAHPEBD@Z        000000014019da80 f   command.obj
 0001:0019ce10       ?indexlist@@YAPEADPEBDH@Z  000000014019de10 f   command.obj
 0001:0019d210       ?format@@YAXPEAUtagval@@H@Z 000000014019e210 f   command.obj
 0001:0019d5b0       ?run@?$_stdcmd@$0JNM@@@SAXPEAUtagval@@@Z 000000014019e5b0 f   command.obj
 0001:0019d5d0       ?result@@YAXAEAUtagval@@@Z 000000014019e5d0 f   command.obj
 0001:0019d5f0       ?run@?$_stdcmd@$0JMG@@@SAXPEAUident@@PEAUtagval@@@Z 000000014019e5f0 f   command.obj
 0001:0019d600       ?run@?$_stdcmd@$0JMF@@@SAXPEAUident@@PEAUtagval@@@Z 000000014019e600 f   command.obj
 0001:0019d610       ?append@@YAXPEAUident@@PEAUtagval@@_N@Z 000000014019e610 f   command.obj
 0001:0019d730       ?concatword@@YAXPEAUtagval@@H@Z 000000014019e730 f   command.obj
 0001:0019d770       ?concat@@YAXPEAUtagval@@H@Z 000000014019e770 f   command.obj
 0001:0019d7b0       ?run@?$_stdcmd@$0JKF@@@SAXPEAUident@@PEAHPEAI@Z 000000014019e7b0 f   command.obj
 0001:0019d7f0       ?run@?$_stdcmd@$0JKA@@@SAXPEAUident@@PEAHPEAI@Z 000000014019e7f0 f   command.obj
 0001:0019d830       ?loopconc@@YAPEADPEAUident@@HPEAI_N@Z 000000014019e830 f   command.obj
 0001:0019dc40       ?run@?$_stdcmd@$0JIH@@@SAXPEAI0@Z 000000014019ec40 f   command.obj
 0001:0019dcd0       ?run@?$_stdcmd@$0JIG@@@SAXPEAUident@@PEAHPEAI2@Z 000000014019ecd0 f   command.obj
 0001:0019de70       ?run@?$_stdcmd@$0JHK@@@SAXPEAUident@@PEAHPEAI@Z 000000014019ee70 f   command.obj
 0001:0019e0b0       ?run@?$_stdcmd@$0JEG@@@SAXPEAUident@@PEAUtagval@@PEAI@Z 000000014019f0b0 f   command.obj
 0001:0019e190       ?run@?$_stdcmd@$0JDI@@@SAXPEAUtagval@@00@Z 000000014019f190 f   command.obj
 0001:0019e1d0       ?run@?$_stdcmd@$0JDH@@@SAXPEAUtagval@@PEAI1@Z 000000014019f1d0 f   command.obj
 0001:0019e220       ?run@?$_stdcmd@$0JDG@@@SAXPEAI@Z 000000014019f220 f   command.obj
 0001:0019e240       ?changedvars@@YAXXZ        000000014019f240 f   command.obj
 0001:0019e410       ?writecfg@@YAXPEBD@Z       000000014019f410 f   command.obj
 0001:0019e930       ?validateblock@@YA_NPEBD@Z 000000014019f930 f   command.obj
 0001:0019eab0       ?run@?$_icmd_unescape@$0IMF@@@SAXPEAD@Z 000000014019fab0 f   command.obj
 0001:0019eb30       ?run@?$_icmd_escape@$0ILO@@@SAXPEAD@Z 000000014019fb30 f   command.obj
 0001:0019eb60       ?run@?$_icmd_exec@$0IKH@@@SAXPEADPEAH@Z 000000014019fb60 f   command.obj
 0001:0019ed50       ?executeret@@YAXPEBDAEAUtagval@@@Z 000000014019fd50 f   command.obj
 0001:0019ee60       ?executeret@@YAXPEBIAEAUtagval@@@Z 000000014019fe60 f   command.obj
 0001:001a2440       ?printvar@@YAXPEAUident@@@Z 00000001401a3440 f   command.obj
 0001:001a24e0       ?printsvar@@YAXPEAUident@@PEBD@Z 00000001401a34e0 f   command.obj
 0001:001a2530       ?printfvar@@YAXPEAUident@@M@Z 00000001401a3530 f   command.obj
 0001:001a2560       ?printvar@@YAXPEAUident@@H@Z 00000001401a3560 f   command.obj
 0001:001a2600       ?freecode@@YAXPEAI@Z       00000001401a3600 f   command.obj
 0001:001a2680       ?compilecode@@YAPEAIPEBD@Z 00000001401a3680 f   command.obj
 0001:001a57c0       ?unescapestring@@YAHPEADPEBD1@Z 00000001401a67c0 f   command.obj
 0001:001a5830       ?parsestring@@YAPEBDPEBD@Z 00000001401a6830 f   command.obj
 0001:001a5870       ?addkeyword@@YA_NHPEBD@Z   00000001401a6870 f   command.obj
 0001:001a58c0       ?setsvarchecked@@YAXPEAUident@@PEBD@Z 00000001401a68c0 f   command.obj
 0001:001a59e0       ?setfvarchecked@@YAXPEAUident@@M@Z 00000001401a69e0 f   command.obj
 0001:001a5b30       ?clampfvar@@YAMPEAUident@@MMM@Z 00000001401a6b30 f   command.obj
 0001:001a5bc0       ?setvarchecked@@YAXPEAUident@@H@Z 00000001401a6bc0 f   command.obj
 0001:001a5cc0       ?clampvar@@YAHPEAUident@@HHH@Z 00000001401a6cc0 f   command.obj
 0001:001a5d40       ?run@?$_icmd_getalias@$0CFI@@@SAXPEAD@Z 00000001401a6d40 f   command.obj
 0001:001a5d70       ?getalias@@YAPEBDPEBD@Z    00000001401a6d70 f   command.obj
 0001:001a5e00       ?run@?$_icmd_getfvarmax@$0CEA@@@SAXPEAD@Z 00000001401a6e00 f   command.obj
 0001:001a5e50       ?run@?$_icmd_getfvarmin@$0CDP@@@SAXPEAD@Z 00000001401a6e50 f   command.obj
 0001:001a5ea0       ?run@?$_icmd_getvarmax@$0CDO@@@SAXPEAD@Z 00000001401a6ea0 f   command.obj
 0001:001a5ee0       ?run@?$_icmd_getvarmin@$0CDN@@@SAXPEAD@Z 00000001401a6ee0 f   command.obj
 0001:001a5f20       ?getfvarmax@@YAMPEBD@Z     00000001401a6f20 f   command.obj
 0001:001a5f60       ?getfvarmin@@YAMPEBD@Z     00000001401a6f60 f   command.obj
 0001:001a5fa0       ?getvarmax@@YAHPEBD@Z      00000001401a6fa0 f   command.obj
 0001:001a5fe0       ?getvarmin@@YAHPEBD@Z      00000001401a6fe0 f   command.obj
 0001:001a6020       ?run@?$_icmd_alias@$0BOB@@@SAXPEBDPEAUtagval@@@Z 00000001401a7020 f   command.obj
 0001:001a6050       ?alias@@YAXPEBD0@Z         00000001401a7050 f   command.obj
 0001:001a6330       ?resetvar@@YAXPEAD@Z       00000001401a7330 f   command.obj
 0001:001a6380       ?readident@@YAPEAUident@@PEBD@Z 00000001401a7380 f   command.obj
 0001:001a63c0       ?writeident@@YAPEAUident@@PEBDH@Z 00000001401a73c0 f   command.obj
 0001:001a6480       ?newident@@YAPEAUident@@PEBDH@Z 00000001401a7480 f   command.obj
 0001:001a6640       ?run@?$_icmd_push@$0BFH@@@SAXPEAUident@@PEAUtagval@@PEAI@Z 00000001401a7640 f   command.obj
 0001:001a6800       ?run@?$_icmd_nodebug@$0BDD@@@SAXPEAI@Z 00000001401a7800 f   command.obj
 0001:001a6f00       ?clearoverride@@YAXAEAUident@@@Z 00000001401a7f00 f   command.obj
 0001:001a6fe0       ?clear_command@@YAXXZ      00000001401a7fe0 f   command.obj
 0001:001a74e0       ?stringret@@YAXPEAD@Z      00000001401a84e0 f   command.obj
 0001:001a7500       ?explodelist@@YAXPEBDAEAU?$vector@PEAD@@H@Z 00000001401a8500 f   command.obj
 0001:001a7660       ?floatret@@YAXM@Z          00000001401a8660 f   command.obj
 0001:001a7680       ?floatstr@@YAPEBDM@Z       00000001401a8680 f   command.obj
 0001:001a7710       ?executestr@@YAPEADPEBD@Z  00000001401a8710 f   command.obj
 0001:001a7730       ?identexists@@YA_NPEBD@Z   00000001401a8730 f   command.obj
 0001:001a7760       ?intstr@@YAPEBDH@Z         00000001401a8760 f   command.obj
 0001:001a77d0       ?escapestring@@YAPEBDPEBD@Z 00000001401a87d0 f   command.obj
 0001:001a7a50       ?escapeid@@YAPEBDPEBD@Z    00000001401a8a50 f   command.obj
 0001:001a7a90       ?setsvar@@YAXPEBD0_N@Z     00000001401a8a90 f   command.obj
 0001:001a7b80       ?getident@@YAPEAUident@@PEBD@Z 00000001401a8b80 f   command.obj
 0001:001a7ba0       ?setfvar@@YAXPEBDM_N1@Z    00000001401a8ba0 f   command.obj
 0001:001a7c60       ?svariable@@YAPEADPEBD0PEAPEADP6AXXZH@Z 00000001401a8c60 f   command.obj
 0001:001a7cb0       ?executebool@@YA_NPEBI@Z   00000001401a8cb0 f   command.obj
 0001:001a7d10       ?execute@@YAHPEBI@Z        00000001401a8d10 f   command.obj
 0001:001a7db0       ?clearoverrides@@YAXXZ     00000001401a8db0 f   command.obj
 0001:001a7f40       ?clearsleep@@YAX_N@Z       00000001401a8f40 f   command.obj
 0001:001a7ff0       ?setvar@@YAXPEBDH_N1@Z     00000001401a8ff0 f   command.obj
 0001:001a80d0       ?execfile@@YA_NPEBD_N@Z    00000001401a90d0 f   command.obj
 0001:001a82e0       ?execute@@YAHPEBD@Z        00000001401a92e0 f   command.obj
 0001:001a8450       ?fvariable@@YAMPEBDMMMPEAMP6AXXZH@Z 00000001401a9450 f   command.obj
 0001:001a84d0       ?variable@@YAHPEBDHHHPEAHP6AXXZH@Z 00000001401a94d0 f   command.obj
 0001:001a8540       ?result@@YAXPEBD@Z         00000001401a9540 f   command.obj
 0001:001a8570       ?intret@@YAXH@Z            00000001401a9570 f   command.obj
 0001:001a8590       ?addcommand@@YA_NPEBDP6AXXZ0@Z 00000001401a9590 f   command.obj
 0001:001a92a0       ?complete@@YAXPEADHPEBD@Z  00000001401aa2a0 f   console.obj
 0001:001a9840       ?addlistcomplete@@YAXPEAD0@Z 00000001401aa840 f   console.obj
 0001:001a9860       ?addfilecomplete@@YAXPEAD00@Z 00000001401aa860 f   console.obj
 0001:001a9880       ?addcomplete@@YAXPEADH00@Z 00000001401aa880 f   console.obj
 0001:001a9bc0       ?resetcomplete@@YAXXZ      00000001401aabc0 f   console.obj
 0001:001a9c90       ?clear_console@@YAXXZ      00000001401aac90 f   console.obj
 0001:001a9ce0       ?processkey@@YAXH_N@Z      00000001401aace0 f   console.obj
 0001:001a9d80       ?processtextinput@@YAXPEBDH@Z 00000001401aad80 f   console.obj
 0001:001a9eb0       ?consolekey@@YA_NH_N@Z     00000001401aaeb0 f   console.obj
 0001:001aa710       ?consoleinput@@YA_NPEBDH@Z 00000001401ab710 f   console.obj
 0001:001aa810       ?execbind@@YAXAEAUkeym@@_N@Z 00000001401ab810 f   console.obj
 0001:001aa980       ?onrelease@@YAXPEBD@Z      00000001401ab980 f   console.obj
 0001:001aa9a0       ?history_@@YAXPEAH@Z       00000001401ab9a0 f   console.obj
 0001:001aa9f0       ?pasteconsole@@YAXXZ       00000001401ab9f0 f   console.obj
 0001:001aaa90       ?run@?$_icmd_saycommand@$0BBE@@@SAXPEAD@Z 00000001401aba90 f   console.obj
 0001:001aaab0       ?inputcommand@@YAXPEAD000@Z 00000001401abab0 f   console.obj
 0001:001aac70       ?run@?$_icmd_searcheditbinds@$0PN@@@SAXPEAD@Z 00000001401abc70 f   console.obj
 0001:001aac80       ?run@?$_icmd_searchspecbinds@$0PM@@@SAXPEAD@Z 00000001401abc80 f   console.obj
 0001:001aac90       ?run@?$_icmd_searchbinds@$0PL@@@SAXPEAD@Z 00000001401abc90 f   console.obj
 0001:001aaca0       ?run@?$_icmd_geteditbind@$0PK@@@SAXPEAD@Z 00000001401abca0 f   console.obj
 0001:001aace0       ?run@?$_icmd_getspecbind@$0PJ@@@SAXPEAD@Z 00000001401abce0 f   console.obj
 0001:001aad20       ?run@?$_icmd_getbind@$0PI@@@SAXPEAD@Z 00000001401abd20 f   console.obj
 0001:001aad60       ?run@?$_icmd_editbind@$0PH@@@SAXPEAD0@Z 00000001401abd60 f   console.obj
 0001:001aada0       ?run@?$_icmd_specbind@$0PG@@@SAXPEAD0@Z 00000001401abda0 f   console.obj
 0001:001aade0       ?run@?$_icmd_bind@$0PF@@@SAXPEAD0@Z 00000001401abde0 f   console.obj
 0001:001aae20       ?bindkey@@YAXPEAD0HPEBD@Z  00000001401abe20 f   console.obj
 0001:001aaf10       ?getbind@@YAXPEADH@Z       00000001401abf10 f   console.obj
 0001:001aaf60       ?findbind@@YAPEAUkeym@@PEAD@Z 00000001401abf60 f   console.obj
 0001:001ab000       ?searchbinds@@YAXPEADH@Z   00000001401ac000 f   console.obj
 0001:001ab350       ?keymap@@YAXPEAHPEAD@Z     00000001401ac350 f   console.obj
 0001:001ab400       ?drawconlines@@YAHHHHHHHHH@Z 00000001401ac400 f   console.obj
 0001:001ab790       ?run@?$_icmd_clearconsole@$0GD@@@SAXXZ 00000001401ac790 f   console.obj
 0001:001ab810       ?run@?$_icmd_miniconskip@$0GB@@@SAXPEAH@Z 00000001401ac810 f   console.obj
 0001:001ab830       ?run@?$_icmd_conskip@$0GA@@@SAXPEAH@Z 00000001401ac830 f   console.obj
 0001:001ab860       ?setconskip@@YAXAEAHHH@Z   00000001401ac860 f   console.obj
 0001:001ab920       ?run@?$_icmd_toggleconsole@$0DG@@@SAXXZ 00000001401ac920 f   console.obj
 0001:001ab930       ?conline@@YAXHPEBD@Z       00000001401ac930 f   console.obj
 0001:001aba50       ?var_maxcon@@YAXXZ         00000001401aca50 f   console.obj
 0001:001abae0       ?conoutfv@@YAXHPEBDPEAD@Z  00000001401acae0 f   console.obj
 0001:001abc50       ?addreleaseaction@@YAPEBDPEAD@Z 00000001401acc50 f   console.obj
 0001:001abd90       ?writebinds@@YAXPEAUstream@@@Z 00000001401acd90 f   console.obj
 0001:001ac020       ?writecompletions@@YAXPEAUstream@@@Z 00000001401ad020 f   console.obj
 0001:001ac380       ?rendercommand@@YAHHHH@Z   00000001401ad380 f   console.obj
 0001:001ac500       ?renderconsole@@YAHHHH@Z   00000001401ad500 f   console.obj
 0001:001ac970       ?getkeyname@@YAPEBDH@Z     00000001401ad970 f   console.obj
 0001:001ac9c0       ?conoutf@@YAXPEBDZZ        00000001401ad9c0 f   console.obj
 0001:001aca00       ?conoutf@@YAXHPEBDZZ       00000001401ada00 f   console.obj
 0001:001acce0       ?getclockmillis@@YAHXZ     00000001401adce0 f   main.obj
 0001:001acd40       ?var_clockfix@@YAXXZ       00000001401add40 f   main.obj
 0001:001acd70       ?var_clockerror@@YAXXZ     00000001401add70 f   main.obj
 0001:001ace40       ?getfps_@@YAXPEAH@Z        00000001401ade40 f   main.obj
 0001:001acec0       ?updatefpshistory@@YAXH@Z  00000001401adec0 f   main.obj
 0001:001acf10       ?resetfpshistory@@YAXXZ    00000001401adf10 f   main.obj
 0001:001acf80       ?stackdumper@@YAXIPEAU_EXCEPTION_POINTERS@@@Z 00000001401adf80 f   main.obj
 0001:001ad1e0       ?limitfps@@YAXAEAHH@Z      00000001401ae1e0 f   main.obj
 0001:001ad2a0       ?swapbuffers@@YAX_N@Z      00000001401ae2a0 f   main.obj
 0001:001ad430       ?checkinput@@YAXXZ         00000001401ae430 f   main.obj
 0001:001ae010       ?pushevent@@YAXAEBTSDL_Event@@@Z 00000001401af010 f   main.obj
 0001:001ae020       ?resetgl@@YAXXZ            00000001401af020 f   main.obj
 0001:001aefd0       ?setupscreen@@YAXXZ        00000001401affd0 f   main.obj
 0001:001af430       ?var_vsynctear@@YAXXZ      00000001401b0430 f   main.obj
 0001:001af450       ?var_vsync@@YAXXZ          00000001401b0450 f   main.obj
 0001:001af4b0       ?restorevsync@@YAXXZ       00000001401b04b0 f   main.obj
 0001:001af510       ?cleargamma@@YAXXZ         00000001401b0510 f   main.obj
 0001:001af540       ?restoregamma@@YAXXZ       00000001401b0540 f   main.obj
 0001:001af560       ?var_gamma@@YAXXZ          00000001401b0560 f   main.obj
 0001:001af5f0       ?run@?$_icmd_screenres@$0CBP@@@SAXPEAH0@Z 00000001401b05f0 f   main.obj
 0001:001af770       ?screenres@@YAXHH@Z        00000001401b0770 f   main.obj
 0001:001af8f0       ?var_fullscreendesktop@@YAXXZ 00000001401b08f0 f   main.obj
 0001:001af990       ?resetfullscreen@@YAXXZ    00000001401b0990 f   main.obj
 0001:001afa20       ?var_fullscreen@@YAXXZ     00000001401b0a20 f   main.obj
 0001:001afa40       ?setfullscreen@@YAX_N@Z    00000001401b0a40 f   main.obj
 0001:001afad0       ?inputgrab@@YAX_N@Z        00000001401b0ad0 f   main.obj
 0001:001afba0       ?bgquad@@YAXMMMMMMMM@Z     00000001401b0ba0 f   main.obj
 0001:001afdb0       ?restorebackground@@YAX_N@Z 00000001401b0db0 f   main.obj
 0001:001afe50       ?setbackgroundinfo@@YAXPEBDPEAUTexture@@00@Z 00000001401b0e50 f   main.obj
 0001:001b0040       ?writeinitcfg@@YAXXZ       00000001401b1040 f   main.obj
 0001:001b0190       ?var_fsaa@@YAXXZ           00000001401b1190 f   main.obj
 0001:001b01c0       ?var_depthbits@@YAXXZ      00000001401b11c0 f   main.obj
 0001:001b01f0       ?var_scr_h@@YAXXZ          00000001401b11f0 f   main.obj
 0001:001b0220       ?var_scr_w@@YAXXZ          00000001401b1220 f   main.obj
 0001:001b0250       ?quit@@YAXXZ               00000001401b1250 f   main.obj
 0001:001b0290       ?cleanup@@YAXXZ            00000001401b1290 f   main.obj
 0001:001b04f0       ?initwarning@@YA_NPEBDHH@Z 00000001401b14f0 f   main.obj
 0001:001b0520       ?getfps@@YAXAEAH00@Z       00000001401b1520 f   main.obj
 0001:001b06d0       ?textinput@@YAX_NH@Z       00000001401b16d0 f   main.obj
 0001:001b0730       ?fatal@@YAXPEBDZZ          00000001401b1730 f   main.obj
 0001:001b0830       SDL_main                   00000001401b1830 f   main.obj
 0001:001b1120       ?keyrepeat@@YAX_NH@Z       00000001401b2120 f   main.obj
 0001:001b1140       ?interceptkey@@YA_NH@Z     00000001401b2140 f   main.obj
 0001:001b1260       ?renderprogress@@YAXMPEBDI_N@Z 00000001401b2260 f   main.obj
 0001:001b1f80       ?renderbackground@@YAXPEBDPEAUTexture@@00_N2@Z 00000001401b2f80 f   main.obj
 0001:001b3670       ?guiprefabpreview@@YAXPEADPEAH0PEAM1@Z 00000001401b4670 f   menus.obj
 0001:001b3760       ?guimodelpreview@@YAXPEAD00PEAMPEAH@Z 00000001401b4760 f   menus.obj
 0001:001b38b0       ?guiplayerpreview@@YAXPEAH00PEADPEAM0@Z 00000001401b48b0 f   menus.obj
 0001:001b3950       ?run@?$_icmd_cleargui@$0CED@@@SAXPEAH@Z 00000001401b4950 f   menus.obj
 0001:001b3980       ?notifywelcome@@YAXXZ      00000001401b4980 f   menus.obj
 0001:001b39d0       ?guiservers@@YAXPEAIPEAH1@Z 00000001401b49d0 f   menus.obj
 0001:001b3a90       ?newgui@@YAXPEAD000@Z      00000001401b4a90 f   menus.obj
 0001:001b3ca0       ?guialign@@YAXPEAHPEAI@Z   00000001401b4ca0 f   menus.obj
 0001:001b3d20       ?guilist@@YAXPEAI@Z        00000001401b4d20 f   menus.obj
 0001:001b3d70       ?guikeyfield@@YAXPEADPEAH0@Z 00000001401b4d70 f   menus.obj
 0001:001b3e30       ?guieditor@@YAXPEADPEAH11@Z 00000001401b4e30 f   menus.obj
 0001:001b3ed0       ?guifield@@YAXPEADPEAH0@Z  00000001401b4ed0 f   menus.obj
 0001:001b3f90       ?guibitfield@@YAXPEAD0PEAH0@Z 00000001401b4f90 f   menus.obj
 0001:001b4070       ?guiradio@@YAXPEAD0PEAM0@Z 00000001401b5070 f   menus.obj
 0001:001b4160       ?guicheckbox@@YAXPEAD0PEAM10@Z 00000001401b5160 f   menus.obj
 0001:001b4270       ?guinameslider@@YAXPEAD000@Z 00000001401b5270 f   menus.obj
 0001:001b4510       ?guilistslider@@YAXPEAD00@Z 00000001401b5510 f   menus.obj
 0001:001b4740       ?guislider@@YAXPEADPEAH10@Z 00000001401b5740 f   menus.obj
 0001:001b4a00       ?guicolumn@@YAXPEAH@Z      00000001401b5a00 f   menus.obj
 0001:001b4a70       ?guispring@@YAXPEAH@Z      00000001401b5a70 f   menus.obj
 0001:001b4aa0       ?guistrut@@YAXPEAMPEAH@Z   00000001401b5aa0 f   menus.obj
 0001:001b4ad0       ?guibar@@YAXXZ             00000001401b5ad0 f   menus.obj
 0001:001b4b40       ?guitab@@YAXPEAD@Z         00000001401b5b40 f   menus.obj
 0001:001b4b70       ?guititle@@YAXPEAD@Z       00000001401b5b70 f   menus.obj
 0001:001b4bf0       ?guitext@@YAXPEAD0@Z       00000001401b5bf0 f   menus.obj
 0001:001b4cc0       ?guitextbox@@YAXPEADPEAH11@Z 00000001401b5cc0 f   menus.obj
 0001:001b4e80       ?guicolor@@YAXPEAH@Z       00000001401b5e80 f   menus.obj
 0001:001b4f30       ?guiimage@@YAXPEAD0PEAMPEAH0@Z 00000001401b5f30 f   menus.obj
 0001:001b5160       ?guibutton@@YAXPEAD00@Z    00000001401b6160 f   menus.obj
 0001:001b52d0       ?guimerge@@YAXPEAI@Z       00000001401b62d0 f   menus.obj
 0001:001b5370       ?guinoautotab@@YAXPEAI@Z   00000001401b6370 f   menus.obj
 0001:001b5400       ?guistayopen@@YAXPEAI@Z    00000001401b6400 f   menus.obj
 0001:001b5430       ?guionclear@@YAXPEAD@Z     00000001401b6430 f   menus.obj
 0001:001b5490       ?clearguis@@YAXH@Z         00000001401b6490 f   menus.obj
 0001:001b5570       ?hidegui@@YAXPEBD@Z        00000001401b6570 f   menus.obj
 0001:001b55a0       ?showgui@@YAXPEBD@Z        00000001401b65a0 f   menus.obj
 0001:001b5610       ?restoregui@@YAXH@Z        00000001401b6610 f   menus.obj
 0001:001b5680       ?pushgui@@YAXPEAUmenu@@H@Z 00000001401b6680 f   menus.obj
 0001:001b57e0       ?removegui@@YAXPEAUmenu@@@Z 00000001401b67e0 f   menus.obj
 0001:001b5860       ?popgui@@YAXXZ             00000001401b6860 f   menus.obj
 0001:001b5890       ?addchange@@YAXPEBDH@Z     00000001401b6890 f   menus.obj
 0001:001b5a50       ?clearchanges@@YAXH@Z      00000001401b6a50 f   menus.obj
 0001:001b5ba0       ?menuprocess@@YAXXZ        00000001401b6ba0 f   menus.obj
 0001:001b5df0       ?cleargui@@YAHH@Z          00000001401b6df0 f   menus.obj
 0001:001b5ef0       ?g3d_mainmenu@@YAXXZ       00000001401b6ef0 f   menus.obj
 0001:001b5fc0       ?clearmainmenu@@YAXXZ      00000001401b6fc0 f   menus.obj
 0001:001b6000       ?menuinfrontofplayer@@YA?AUvec@@XZ 00000001401b7000 f   menus.obj
 0001:001b6110       ?run@?$_icmd_movierecording@$0EII@@@SAXXZ 00000001401b7110 f   movie.obj
 0001:001b6140       ?movie@@YAXPEAD@Z          00000001401b7140 f   movie.obj
 0001:001b61b0       ?drawhud@recorder@@YAXXZ   00000001401b71b0 f   movie.obj
 0001:001b6420       ?readbuffer@recorder@@YA_NXZ 00000001401b7420 f   movie.obj
 0001:001b6580       ?readbuffer@recorder@@YAXAEAUvideobuffer@1@I@Z 00000001401b7580 f   movie.obj
 0001:001b7190       ?start@recorder@@YAXPEBDHHH_N@Z 00000001401b8190 f   movie.obj
 0001:001b7570       ?soundencoder@recorder@@YAXPEAXPEAEH@Z 00000001401b8570 f   movie.obj
 0001:001b76f0       ?videoencoder@recorder@@YAHPEAX@Z 00000001401b86f0 f   movie.obj
 0001:001b7cb0       ?gettime@recorder@@YAHXZ   00000001401b8cb0 f   movie.obj
 0001:001b7cd0       ?calcquality@recorder@@YAMXZ 00000001401b8cd0 f   movie.obj
 0001:001b7d10       ?isrecording@recorder@@YA_NXZ 00000001401b8d10 f   movie.obj
 0001:001b7d30       ?stop@recorder@@YAXXZ      00000001401b8d30 f   movie.obj
 0001:001b7ed0       ?cleanup@recorder@@YAXXZ   00000001401b8ed0 f   movie.obj
 0001:001b7f80       ?capture@recorder@@YAX_N@Z 00000001401b8f80 f   movie.obj
 0001:001b81c0       ?updatemumble@@YAXXZ       00000001401b91c0 f   sound.obj
 0001:001b83e0       ?closemumble@@YAXXZ        00000001401b93e0 f   sound.obj
 0001:001b8430       ?var_mumble@@YAXXZ         00000001401b9430 f   sound.obj
 0001:001b8490       ?resetsound@@YAXXZ         00000001401b9490 f   sound.obj
 0001:001b85f0       ?sound@@YAXPEAH@Z          00000001401b95f0 f   sound.obj
 0001:001b8630       ?stopsound@@YA_NHHH@Z      00000001401b9630 f   sound.obj
 0001:001b8770       ?playsound@@YAHHPEBUvec@@PEAUextentity@@HHHHHH@Z 00000001401b9770 f   sound.obj
 0001:001b8d10       ?preloadmapsound@@YAXH@Z   00000001401b9d10 f   sound.obj
 0001:001b8d30       ?preloadsound@@YAXH@Z      00000001401b9d30 f   sound.obj
 0001:001b8d50       ?syncchannels@@YAXXZ       00000001401b9d50 f   sound.obj
 0001:001b8e00       ?reclaimchannels@@YAXXZ    00000001401b9e00 f   sound.obj
 0001:001b8e90       ?updatechannel@@YA_NAEAUsoundchannel@@@Z 00000001401b9e90 f   sound.obj
 0001:001b9090       ?checkmapsounds@@YAXXZ     00000001401ba090 f   sound.obj
 0001:001b9230       ?stopmapsound@@YAXPEAUextentity@@@Z 00000001401ba230 f   sound.obj
 0001:001b92c0       ?stopmapsounds@@YAXXZ      00000001401ba2c0 f   sound.obj
 0001:001b9350       ?resetchannels@@YAXXZ      00000001401ba350 f   sound.obj
 0001:001b93c0       ?mapsoundreset@@YAXXZ      00000001401ba3c0 f   sound.obj
 0001:001b93e0       ?soundreset@@YAXXZ         00000001401ba3e0 f   sound.obj
 0001:001b9400       ?run@?$_icmd_nummapsounds@$0BJC@@@SAXXZ 00000001401ba400 f   sound.obj
 0001:001b9420       ?run@?$_icmd_numsounds@$0BJB@@@SAXXZ 00000001401ba420 f   sound.obj
 0001:001b9440       ?altmapsound@@YAXPEADPEAH@Z 00000001401ba440 f   sound.obj
 0001:001b9480       ?altsound@@YAXPEADPEAH@Z   00000001401ba480 f   sound.obj
 0001:001b94c0       ?mapsound@@YAXPEADPEAH1@Z  00000001401ba4c0 f   sound.obj
 0001:001b9510       ?registersound@@YAXPEADPEAH@Z 00000001401ba510 f   sound.obj
 0001:001b95e0       ?load@soundsample@@QEAA_N_N@Z 00000001401ba5e0 f   sound.obj
 0001:001b9740       ?var_soundpack@@YAXXZ      00000001401ba740 f   sound.obj
 0001:001b9850       ?startmusic@@YAXPEAD0@Z    00000001401ba850 f   sound.obj
 0001:001b9a10       ?loadmusic@@YAPEAU_Mix_Music@@PEBD@Z 00000001401baa10 f   sound.obj
 0001:001b9b20       ?musicdone@@YAXXZ          00000001401bab20 f   sound.obj
 0001:001b9be0       ?var_soundbufferlen@@YAXXZ 00000001401babe0 f   sound.obj
 0001:001b9c10       ?var_soundfreq@@YAXXZ      00000001401bac10 f   sound.obj
 0001:001b9c40       ?var_soundchans@@YAXXZ     00000001401bac40 f   sound.obj
 0001:001b9c70       ?stopmusic@@YAXXZ          00000001401bac70 f   sound.obj
 0001:001b9d30       ?setmusicvol@@YAXH@Z       00000001401bad30 f   sound.obj
 0001:001b9d70       ?var_musicvol@@YAXXZ       00000001401bad70 f   sound.obj
 0001:001b9dc0       ?var_soundvol@@YAXXZ       00000001401badc0 f   sound.obj
 0001:001b9e80       ?stopchannels@@YAXXZ       00000001401bae80 f   sound.obj
 0001:001b9f10       ?syncchannel@@YAXAEAUsoundchannel@@@Z 00000001401baf10 f   sound.obj
 0001:001b9f60       ?freechannel@@YAXH@Z       00000001401baf60 f   sound.obj
 0001:001b9fa0       ?newchannel@@YAAEAUsoundchannel@@HPEAUsoundslot@@PEBUvec@@PEAUextentity@@HH@Z 00000001401bafa0 f   sound.obj
 0001:001ba200       ?stopsounds@@YAXXZ         00000001401bb200 f   sound.obj
 0001:001ba290       ?initsound@@YAXXZ          00000001401bb290 f   sound.obj
 0001:001ba350       ?initmumble@@YAXXZ         00000001401bb350 f   sound.obj
 0001:001ba440       ?updatesounds@@YAXXZ       00000001401bb440 f   sound.obj
 0001:001ba980       ?clear_sound@@YAXXZ        00000001401bb980 f   sound.obj
 0001:001baa40       ?preloadmapsounds@@YAXXZ   00000001401bba40 f   sound.obj
 0001:001bac70       ?clearmapsounds@@YAXXZ     00000001401bbc70 f   sound.obj
 0001:001bacd0       ?checkchallenge@@YA_NPEBDPEAX@Z 00000001401bbcd0 f   crypto.obj
 0001:001bad40       ?freechallenge@@YAXPEAX@Z  00000001401bbd40 f   crypto.obj
 0001:001bad50       ?genchallenge@@YAPEAXPEAXPEBXHAEAU?$vector@D@@@Z 00000001401bbd50 f   crypto.obj
 0001:001bafd0       ?freepubkey@@YAXPEAX@Z     00000001401bbfd0 f   crypto.obj
 0001:001bafe0       ?parsepubkey@@YAPEAXPEBD@Z 00000001401bbfe0 f   crypto.obj
 0001:001bb060       ?answerchallenge@@YAXPEBD0AEAU?$vector@D@@@Z 00000001401bc060 f   crypto.obj
 0001:001bb180       ?hashstring@@YA_NPEBDPEADH@Z 00000001401bc180 f   crypto.obj
 0001:001bb450       ?genprivkey@@YAXPEBDAEAU?$vector@D@@1@Z 00000001401bc450 f   crypto.obj
 0001:001bb7e0       ?hash@tiger@@YAXPEBEHAEAThashval@1@@Z 00000001401bc7e0 f   crypto.obj
 0001:001bb940       ?gensboxes@tiger@@YAXXZ    00000001401bc940 f   crypto.obj
 0001:001bbbd0       ?compress@tiger@@YAXPEB_KQEA_K@Z 00000001401bcbd0 f   crypto.obj
 0001:001bc2a0       ?linecylinderintersect@@YA_NAEBUvec@@000MAEAM@Z 00000001401bd2a0 f   geom.obj
 0001:001bc730       ?invert@matrix4@@QEAA_NAEBU1@N@Z 00000001401bd730 f   geom.obj
 0001:001bce20       ?rayboxintersect@@YA_NAEBUvec@@000AEAMAEAH@Z 00000001401bde20 f   geom.obj
 0001:001bd2c0       ?multidraw@gle@@YAXXZ      00000001401be2c0 f   glemu.obj
 0001:001bd3a0       ?setup@gle@@YAXXZ          00000001401be3a0 f   glemu.obj
 0001:001bd430       ?cleanup@gle@@YAXXZ        00000001401be430 f   glemu.obj
 0001:001bd4d0       ?enablequads@gle@@YAXXZ    00000001401be4d0 f   glemu.obj
 0001:001bd5d0       ?drawquads@gle@@YAXHH@Z    00000001401be5d0 f   glemu.obj
 0001:001bd670       ?disablequads@gle@@YAXXZ   00000001401be670 f   glemu.obj
 0001:001bd6a0       ?begin@gle@@YAXIH@Z        00000001401be6a0 f   glemu.obj
 0001:001bd7a0       ?defattrib@gle@@YAXHHH@Z   00000001401be7a0 f   glemu.obj
 0001:001bd990       ?begin@gle@@YAXI@Z         00000001401be990 f   glemu.obj
 0001:001bd9a0       ?end@gle@@YAHXZ            00000001401be9a0 f   glemu.obj
 0001:001bdcb0       ?forcedisable@gle@@YAXXZ   00000001401becb0 f   glemu.obj
 0001:001bde50       ?opentempfile@@YAPEAUstream@@PEBD0@Z 00000001401bee50 f   stream.obj
 0001:001bdf20       ?openrawfile@@YAPEAUstream@@PEBD0@Z 00000001401bef20 f   stream.obj
 0001:001bdfe0       ?printf@stream@@UEAA_KPEBDZZ 00000001401befe0 f   stream.obj
 0001:001be0e0       ?getline@stream@@UEAA_NPEAD_K@Z 00000001401bf0e0 f   stream.obj
 0001:001be1a0       ?size@stream@@UEAA_JXZ     00000001401bf1a0 f   stream.obj
 0001:001be2f0       ?listdir@@YA_NPEBD_N0AEAU?$vector@PEAD@@@Z 00000001401bf2f0 f   stream.obj
 0001:001be580       ?subhomedir@@YA_NPEADHPEBD@Z 00000001401bf580 f   stream.obj
 0001:001be6f0       ?fixpackagedir@@YA_KPEAD@Z 00000001401bf6f0 f   stream.obj
 0001:001be730       ?sethomedir@@YAPEBDPEBD@Z  00000001401bf730 f   stream.obj
 0001:001be960       ?addpackagedir@@YAPEBDPEBD@Z 00000001401bf960 f   stream.obj
 0001:001bede0       ?decodeutf8@@YA_KPEAE_KPEBE1PEA_K@Z 00000001401bfde0 f   stream.obj
 0001:001bf040       ?loadfile@@YAPEADPEBDPEA_K_N@Z 00000001401c0040 f   stream.obj
 0001:001bf1b0       ?listfiles@@YAHPEBD0AEAU?$vector@PEAD@@@Z 00000001401c01b0 f   stream.obj
 0001:001bf380       ?rwops@stream@@QEAAPEAUSDL_RWops@@XZ 00000001401c0380 f   stream.obj
 0001:001bf3e0       ?fileexists@@YA_NPEBD0@Z   00000001401c03e0 f   stream.obj
 0001:001bf430       ?createdir@@YA_NPEBD@Z     00000001401c0430 f   stream.obj
 0001:001bf490       ?parentdir@@YAPEBDPEBD@Z   00000001401c0490 f   stream.obj
 0001:001bf510       ?openutf8file@@YAPEAUstream@@PEBD0PEAU1@@Z 00000001401c0510 f   stream.obj
 0001:001bf670       ?path@@YAPEADPEBD_N@Z      00000001401c0670 f   stream.obj
 0001:001bf6d0       ?encodeutf8@@YA_KPEAE_KPEBE1PEA_K@Z 00000001401c06d0 f   stream.obj
 0001:001bf870       ?findfile@@YAPEBDPEBD0@Z   00000001401c0870 f   stream.obj
 0001:001bfb00       ?openfile@@YAPEAUstream@@PEBD0@Z 00000001401c0b00 f   stream.obj
 0001:001bfb40       ?makerelpath@@YAPEADPEBD000@Z 00000001401c0b40 f   stream.obj
 0001:001bfd20       ?path@@YAPEADPEAD@Z        00000001401c0d20 f   stream.obj
 0001:001bfed0       ?opengzfile@@YAPEAUstream@@PEBD0PEAU1@H@Z 00000001401c0ed0 f   stream.obj
 0001:001c0d80       ?parse@ipmask@@QEAAXPEBD@Z 00000001401c1d80 f   tools.obj
 0001:001c0e90       ?sendstring@@YAXPEBDAEAU?$databuf@E@@@Z 00000001401c1e90 f   tools.obj
 0001:001c0ed0       ?putfloat@@YAXAEAU?$databuf@E@@M@Z 00000001401c1ed0 f   tools.obj
 0001:001c0f40       ?putuint@@YAXAEAUpacketbuf@@H@Z 00000001401c1f40 f   tools.obj
 0001:001c0f50       ?putuint@@YAXAEAU?$databuf@E@@H@Z 00000001401c1f50 f   tools.obj
 0001:001c0f60       ?seedMT@@YAXI@Z            00000001401c1f60 f   tools.obj
 0001:001c0fb0       ??3@YAXPEAX@Z              00000001401c1fb0 f   tools.obj
 0001:001c0fe0       ?sendstring@@YAXPEBDAEAU?$vector@E@@@Z 00000001401c1fe0 f   tools.obj
 0001:001c1040       ?putfloat@@YAXAEAU?$vector@E@@M@Z 00000001401c2040 f   tools.obj
 0001:001c1090       ?putint@@YAXAEAU?$vector@E@@H@Z 00000001401c2090 f   tools.obj
 0001:001c10a0       ?putuint@@YAXAEAU?$vector@E@@H@Z 00000001401c20a0 f   tools.obj
 0001:001c10b0       ?getfloat@@YAMAEAU?$databuf@E@@@Z 00000001401c20b0 f   tools.obj
 0001:001c1120       ?getuint@@YAHAEAU?$databuf@E@@@Z 00000001401c2120 f   tools.obj
 0001:001c1200       ?getint@@YAHAEAU?$databuf@E@@@Z 00000001401c2200 f   tools.obj
 0001:001c1320       ?putint@@YAXAEAU?$databuf@E@@H@Z 00000001401c2320 f   tools.obj
 0001:001c1330       ?getstring@@YAXPEADAEAU?$databuf@E@@_K@Z 00000001401c2330 f   tools.obj
 0001:001c1420       ?filtertext@@YAXPEADPEBD_N2_K@Z 00000001401c2420 f   tools.obj
 0001:001c14b0       ?putint@@YAXAEAUpacketbuf@@H@Z 00000001401c24b0 f   tools.obj
 0001:001c14c0       ?putfloat@@YAXAEAUpacketbuf@@M@Z 00000001401c24c0 f   tools.obj
 0001:001c14f0       ?sendstring@@YAXPEBDAEAUpacketbuf@@@Z 00000001401c24f0 f   tools.obj
 0001:001c1550       ?randomMT@@YAIXZ           00000001401c2550 f   tools.obj
 0001:001c1650       ??_U@YAPEAX_K_N@Z          00000001401c2650 f   tools.obj
 0001:001c1660       ??2@YAPEAX_K@Z             00000001401c2660 f   tools.obj
 0001:001c1680       ??_U@YAPEAX_K@Z            00000001401c2680 f   tools.obj
 0001:001c16a0       ??_V@YAXPEAX@Z             00000001401c26a0 f   tools.obj
 0001:001c1800       ?run@?$_icmd_removezip@$0CEK@@@SAXPEBD@Z 00000001401c2800 f   zip.obj
 0001:001c1810       ?run@?$_icmd_addzip@$0CEJ@@@SAXPEBD00@Z 00000001401c2810 f   zip.obj
 0001:001c1840       ?removezip@@YA_NPEBD@Z     00000001401c2840 f   zip.obj
 0001:001c1aa0       ?addzip@@YA_NPEBD00@Z      00000001401c2aa0 f   zip.obj
 0001:001c2420       ?findzip@@YAPEAUziparchive@@PEBD@Z 00000001401c3420 f   zip.obj
 0001:001c2a70       ?listzipfiles@@YAHPEBD0AEAU?$vector@PEAD@@@Z 00000001401c3a70 f   zip.obj
 0001:001c2e30       ?findzipfile@@YA_NPEBD@Z   00000001401c3e30 f   zip.obj
 0001:001c2f20       ?openzipfile@@YAPEAUstream@@PEBD0@Z 00000001401c3f20 f   zip.obj
 0001:001c3220       ?render@ai@@YAXXZ          00000001401c4220 f   ai.obj
 0001:001c3ae0       ?drawroute@ai@@YAXPEAUfpsent@@M@Z 00000001401c4ae0 f   ai.obj
 0001:001c3ea0       ?think@ai@@YAXPEAUfpsent@@_N@Z 00000001401c4ea0 f   ai.obj
 0001:001c4210       ?avoid@ai@@YAXXZ           00000001401c5210 f   ai.obj
 0001:001c43f0       ?logic@ai@@YAXPEAUfpsent@@AEAUaistate@1@_N@Z 00000001401c53f0 f   ai.obj
 0001:001c4640       ?timeouts@ai@@YAXPEAUfpsent@@AEAUaistate@1@@Z 00000001401c5640 f   ai.obj
 0001:001c48b0       ?request@ai@@YA_NPEAUfpsent@@AEAUaistate@1@@Z 00000001401c58b0 f   ai.obj
 0001:001c4a30       ?hasrange@ai@@YA_NPEAUfpsent@@0H@Z 00000001401c5a30 f   ai.obj
 0001:001c4b20       ?process@ai@@YAHPEAUfpsent@@AEAUaistate@1@@Z 00000001401c5b20 f   ai.obj
 0001:001c5870       ?lockon@ai@@YA_NPEAUfpsent@@0M@Z 00000001401c6870 f   ai.obj
 0001:001c5920       ?scaleyawpitch@ai@@YAXAEAM0MMMM@Z 00000001401c6920 f   ai.obj
 0001:001c5a30       ?getyawpitch@ai@@YAXAEBUvec@@0AEAM1@Z 00000001401c6a30 f   ai.obj
 0001:001c5b30       ?fixrange@ai@@YAXAEAM0@Z   00000001401c6b30 f   ai.obj
 0001:001c5bb0       ?fixfullrange@ai@@YAXAEAM00_N@Z 00000001401c6bb0 f   ai.obj
 0001:001c5c50       ?jumpto@ai@@YAXPEAUfpsent@@AEAUaistate@1@AEBUvec@@@Z 00000001401c6c50 f   ai.obj
 0001:001c5eb0       ?hunt@ai@@YA_NPEAUfpsent@@AEAUaistate@1@@Z 00000001401c6eb0 f   ai.obj
 0001:001c5fe0       ?checkroute@ai@@YA_NPEAUfpsent@@H@Z 00000001401c6fe0 f   ai.obj
 0001:001c6280       ?anynode@ai@@YA_NPEAUfpsent@@AEAUaistate@1@H@Z 00000001401c7280 f   ai.obj
 0001:001c6420       ?randomlink@ai@@YAHPEAUfpsent@@H@Z 00000001401c7420 f   ai.obj
 0001:001c6620       ?wpspot@ai@@YAHPEAUfpsent@@H_N@Z 00000001401c7620 f   ai.obj
 0001:001c6750       ?closenode@ai@@YAHPEAUfpsent@@@Z 00000001401c7750 f   ai.obj
 0001:001c6950       ?dopursue@ai@@YAHPEAUfpsent@@AEAUaistate@1@@Z 00000001401c7950 f   ai.obj
 0001:001c6cb0       ?dointerest@ai@@YAHPEAUfpsent@@AEAUaistate@1@@Z 00000001401c7cb0 f   ai.obj
 0001:001c6e90       ?dodefend@ai@@YAHPEAUfpsent@@AEAUaistate@1@@Z 00000001401c7e90 f   ai.obj
 0001:001c70e0       ?dowait@ai@@YAHPEAUfpsent@@AEAUaistate@1@@Z 00000001401c80e0 f   ai.obj
 0001:001c71f0       ?check@ai@@YA_NPEAUfpsent@@AEAUaistate@1@@Z 00000001401c81f0 f   ai.obj
 0001:001c7230       ?itemspawned@ai@@YAXH@Z    00000001401c8230 f   ai.obj
 0001:001c7480       ?killed@ai@@YAXPEAUfpsent@@0@Z 00000001401c8480 f   ai.obj
 0001:001c74a0       ?spawned@ai@@YAXPEAUfpsent@@@Z 00000001401c84a0 f   ai.obj
 0001:001c74c0       ?setup@ai@@YAXPEAUfpsent@@@Z 00000001401c84c0 f   ai.obj
 0001:001c76a0       ?findorientation@ai@@YAXAEAUvec@@MM0@Z 00000001401c86a0 f   ai.obj
 0001:001c7870       ?damaged@ai@@YAXPEAUfpsent@@0@Z 00000001401c8870 f   ai.obj
 0001:001c7c00       ?find@ai@@YA_NPEAUfpsent@@AEAUaistate@1@_N@Z 00000001401c8c00 f   ai.obj
 0001:001c7fe0       ?parseinterests@ai@@YA_NPEAUfpsent@@AEAUaistate@1@AEAU?$vector@Uinterest@ai@@@@_N3@Z 00000001401c8fe0 f   ai.obj
 0001:001c81f0       ?items@ai@@YAXPEAUfpsent@@AEAUaistate@1@AEAU?$vector@Uinterest@ai@@@@_N@Z 00000001401c91f0 f   ai.obj
 0001:001c84b0       ?assist@ai@@YAXPEAUfpsent@@AEAUaistate@1@AEAU?$vector@Uinterest@ai@@@@_N3@Z 00000001401c94b0 f   ai.obj
 0001:001c8660       ?hasgoodammo@ai@@YA_NPEAUfpsent@@@Z 00000001401c9660 f   ai.obj
 0001:001c8690       ?isgoodammo@ai@@YAHH@Z     00000001401c9690 f   ai.obj
 0001:001c86b0       ?target@ai@@YA_NPEAUfpsent@@AEAUaistate@1@H_NM@Z 00000001401c96b0 f   ai.obj
 0001:001c8a90       ?violence@ai@@YA_NPEAUfpsent@@AEAUaistate@1@0H@Z 00000001401c9a90 f   ai.obj
 0001:001c8be0       ?defend@ai@@YA_NPEAUfpsent@@AEAUaistate@1@AEBUvec@@MMH@Z 00000001401c9be0 f   ai.obj
 0001:001c8e80       ?patrol@ai@@YA_NPEAUfpsent@@AEAUaistate@1@AEBUvec@@MMH_N@Z 00000001401c9e80 f   ai.obj
 0001:001c9040       ?enemy@ai@@YA_NPEAUfpsent@@AEAUaistate@1@AEBUvec@@MH@Z 00000001401ca040 f   ai.obj
 0001:001c9200       ?badhealth@ai@@YA_NPEAUfpsent@@@Z 00000001401ca200 f   ai.obj
 0001:001c9230       ?randomnode@ai@@YA_NPEAUfpsent@@AEAUaistate@1@MM@Z 00000001401ca230 f   ai.obj
 0001:001c9290       ?randomnode@ai@@YA_NPEAUfpsent@@AEAUaistate@1@AEBUvec@@MM@Z 00000001401ca290 f   ai.obj
 0001:001c94d0       ?makeroute@ai@@YA_NPEAUfpsent@@AEAUaistate@1@AEBUvec@@_NH@Z 00000001401ca4d0 f   ai.obj
 0001:001c9520       ?makeroute@ai@@YA_NPEAUfpsent@@AEAUaistate@1@H_NH@Z 00000001401ca520 f   ai.obj
 0001:001c95c0       ?checkothers@ai@@YA_NAEAU?$vector@H@@PEAUfpsent@@HHH_NPEAH@Z 00000001401ca5c0 f   ai.obj
 0001:001c9760       ?update@ai@@YAXXZ          00000001401ca760 f   ai.obj
 0001:001c9a70       ?init@ai@@YAXPEAUfpsent@@HHHHHPEBD1@Z 00000001401caa70 f   ai.obj
 0001:001ca0f0       ?destroy@ai@@YAXPEAUfpsent@@@Z 00000001401cb0f0 f   ai.obj
 0001:001ca130       ?create@ai@@YAXPEAUfpsent@@@Z 00000001401cb130 f   ai.obj
 0001:001ca290       ?getaimpos@ai@@YA?AUvec@@PEAUfpsent@@0@Z 00000001401cb290 f   ai.obj
 0001:001ca4a0       ?hastarget@ai@@YA_NPEAUfpsent@@AEAUaistate@1@0MMM@Z 00000001401cb4a0 f   ai.obj
 0001:001ca620       ?canshoot@ai@@YA_NPEAUfpsent@@0@Z 00000001401cb620 f   ai.obj
 0001:001ca6f0       ?cansee@ai@@YA_NPEAUfpsent@@AEAUvec@@11@Z 00000001401cb6f0 f   ai.obj
 0001:001ca8d0       ?getsight@ai@@YA_NAEAUvec@@MM00MMM@Z 00000001401cb8d0 f   ai.obj
 0001:001caa70       ?targetable@ai@@YA_NPEAUfpsent@@0@Z 00000001401cba70 f   ai.obj
 0001:001cab00       ?weaprange@ai@@YA_NPEAUfpsent@@HM@Z 00000001401cbb00 f   ai.obj
 0001:001cab60       ?weapmaxdist@ai@@YAMH@Z    00000001401cbb60 f   ai.obj
 0001:001cab90       ?weapmindist@ai@@YAMH@Z    00000001401cbb90 f   ai.obj
 0001:001cabc0       ?canmove@ai@@YA_NPEAUfpsent@@@Z 00000001401cbbc0 f   ai.obj
 0001:001cabe0       ?viewfieldy@ai@@YAMH@Z     00000001401cbbe0 f   ai.obj
 0001:001cac30       ?viewfieldx@ai@@YAMH@Z     00000001401cbc30 f   ai.obj
 0001:001cac70       ?viewdist@ai@@YAMH@Z       00000001401cbc70 f   ai.obj
 0001:001cacb0       ?run@?$_icmd_botbalance@$0BD@@ai@@SAXPEAH@Z 00000001401cbcb0 f   ai.obj
 0001:001cacd0       ?run@?$_icmd_botlimit@$0BC@@ai@@SAXPEAH@Z 00000001401cbcd0 f   ai.obj
 0001:001cacf0       ?run@?$_icmd_delbot@$0BB@@ai@@SAXXZ 00000001401cbcf0 f   ai.obj
 0001:001cad10       ?run@?$_icmd_addbot@$0BA@@ai@@SAXPEAD@Z 00000001401cbd10 f   ai.obj
 0001:001cad70       ?checktriggers@entities@@YAXXZ 00000001401cbd70 f   entities.obj
 0001:001cb210       ?doleveltrigger@entities@@YAXHH@Z 00000001401cc210 f   entities.obj
 0001:001cb270       ?run@?$_icmd_trigger@$0BPG@@entities@@SAXPEAH0@Z 00000001401cc270 f   entities.obj
 0001:001cb2a0       ?unlocktriggers@entities@@YAXHHH@Z 00000001401cc2a0 f   entities.obj
 0001:001cb3c0       ?resettriggers@entities@@YAXXZ 00000001401cc3c0 f   entities.obj
 0001:001cb4e0       ?setspawn@entities@@YAXH_N@Z 00000001401cc4e0 f   entities.obj
 0001:001cb510       ?spawnitems@entities@@YAX_N@Z 00000001401cc510 f   entities.obj
 0001:001cb640       ?resetspawns@entities@@YAXXZ 00000001401cc640 f   entities.obj
 0001:001cb680       ?putitems@entities@@YAXAEAUpacketbuf@@@Z 00000001401cc680 f   entities.obj
 0001:001cb750       ?trypickup@entities@@YAXHPEAUfpsent@@@Z 00000001401cc750 f   entities.obj
 0001:001cb9d0       ?teleport@entities@@YAXHPEAUfpsent@@@Z 00000001401cc9d0 f   entities.obj
 0001:001cbd20       ?jumppadeffects@entities@@YAXPEAUfpsent@@H_N@Z 00000001401ccd20 f   entities.obj
 0001:001cbec0       ?teleporteffects@entities@@YAXPEAUfpsent@@HH_N@Z 00000001401ccec0 f   entities.obj
 0001:001cc0e0       ?pickupeffects@entities@@YAXHPEAUfpsent@@@Z 00000001401cd0e0 f   entities.obj
 0001:001cc2b0       ?repammo@entities@@YAXPEAUfpsent@@H_N@Z 00000001401cd2b0 f   entities.obj
 0001:001cc350       ?addammo@entities@@YAXHAEAH_N@Z 00000001401cd350 f   entities.obj
 0001:001cc3e0       ?renderentities@entities@@YAXXZ 00000001401cd3e0 f   entities.obj
 0001:001cc630       ?preloadentities@entities@@YAXXZ 00000001401cd630 f   entities.obj
 0001:001cc840       ?entmdlname@entities@@YAPEBDH@Z 00000001401cd840 f   entities.obj
 0001:001cc860       ?itemicon@entities@@YAHH@Z 00000001401cd860 f   entities.obj
 0001:001cc8a0       ?checkquad@entities@@YAXHPEAUfpsent@@@Z 00000001401cd8a0 f   entities.obj
 0001:001cc930       ?checkitems@entities@@YAXPEAUfpsent@@@Z 00000001401cd930 f   entities.obj
 0001:001cca80       ?animatemapmodel@entities@@YAXAEBUextentity@@AEAH1@Z 00000001401cda80 f   entities.obj
 0001:001ccad0       ?readent@entities@@YAXAEAUentity@@PEADH@Z 00000001401cdad0 f   entities.obj
 0001:001ccba0       ?extraentinfosize@entities@@YAHXZ 00000001401cdba0 f   entities.obj
 0001:001ccbb0       ?writeent@entities@@YAXAEAUentity@@PEAD@Z 00000001401cdbb0 f   entities.obj
 0001:001ccbc0       ?entname@entities@@YAPEBDH@Z 00000001401cdbc0 f   entities.obj
 0001:001ccbf0       ?entnameinfo@entities@@YAPEBDAEAUentity@@@Z 00000001401cdbf0 f   entities.obj
 0001:001ccc00       ?mayattach@entities@@YA_NAEAUextentity@@@Z 00000001401cdc00 f   entities.obj
 0001:001ccc10       ?attachent@entities@@YA_NAEAUextentity@@0@Z 00000001401cdc10 f   entities.obj
 0001:001ccc20       ?newentity@entities@@YAPEAUextentity@@XZ 00000001401cdc20 f   entities.obj
 0001:001ccc90       ?editent@entities@@YAXH_N@Z 00000001401cdc90 f   entities.obj
 0001:001ccd90       ?entmodel@entities@@YAPEBDAEBUentity@@@Z 00000001401cdd90 f   entities.obj
 0001:001ccde0       ?entradius@entities@@YAXAEAUextentity@@_N@Z 00000001401cdde0 f   entities.obj
 0001:001cd0d0       ?fixentity@entities@@YAXAEAUextentity@@@Z 00000001401ce0d0 f   entities.obj
 0001:001cd120       ?deleteentity@entities@@YAXPEAUextentity@@@Z 00000001401ce120 f   entities.obj
 0001:001cd130       ?printent@entities@@YA_NAEAUextentity@@PEADH@Z 00000001401ce130 f   entities.obj
 0001:001cd140       ?clearents@entities@@YAXXZ 00000001401ce140 f   entities.obj
 0001:001cd190       ?dropheight@entities@@YAMAEAUentity@@@Z 00000001401ce190 f   entities.obj
 0001:001cd1b0       ?getents@entities@@YAAEAU?$vector@PEAUextentity@@@@XZ 00000001401ce1b0 f   entities.obj
 0001:001cd3b0       ?run@?$_icmd_isdead@$0EGF@@game@@SAXPEAH@Z 00000001401ce3b0 f   fps.obj
 0001:001cd410       ?run@?$_icmd_islagged@$0EFP@@game@@SAXPEAH@Z 00000001401ce410 f   fps.obj
 0001:001cd470       ?mastermodeicon@game@@YAPEBDHPEBD@Z 00000001401ce470 f   fps.obj
 0001:001cd4a0       ?mastermodecolor@game@@YAPEBDHPEBD@Z 00000001401ce4a0 f   fps.obj
 0001:001cd4d0       ?drawhudicons@game@@YAXPEAUfpsent@@@Z 00000001401ce4d0 f   fps.obj
 0001:001cd710       ?drawhealth@game@@YAXPEAUfpsent@@MMMM@Z 00000001401ce710 f   fps.obj
 0001:001cdba0       ?drawicon@game@@YAXHMMM@Z  00000001401ceba0 f   fps.obj
 0001:001cde50       ?run@?$_icmd_kill@$0DBI@@game@@SAXXZ 00000001401cee50 f   fps.obj
 0001:001cde70       ?run@?$_icmd_suicide@$0DBH@@game@@SAXXZ 00000001401cee70 f   fps.obj
 0001:001cde90       ?teamcolor@game@@YAPEBDPEBD00@Z 00000001401cee90 f   fps.obj
 0001:001cdfc0       ?teamcolor@game@@YAPEBDPEBD_N0@Z 00000001401cefc0 f   fps.obj
 0001:001ce0a0       ?teamcolorname@game@@YAPEBDPEAUfpsent@@PEBD@Z 00000001401cf0a0 f   fps.obj
 0001:001ce150       ?duplicatename@game@@YA_NPEAUfpsent@@PEBD1@Z 00000001401cf150 f   fps.obj
 0001:001ce220       ?startgame@game@@YAXXZ     00000001401cf220 f   fps.obj
 0001:001ce600       ?clearclients@game@@YAX_N@Z 00000001401cf600 f   fps.obj
 0001:001ce9e0       ?clientdisconnected@game@@YAXH_N@Z 00000001401cf9e0 f   fps.obj
 0001:001ced60       ?run@?$_icmd_gettotalshots@$0CAN@@game@@SAXXZ 00000001401cfd60 f   fps.obj
 0001:001ced90       ?run@?$_icmd_gettotaldamage@$0CAM@@game@@SAXXZ 00000001401cfd90 f   fps.obj
 0001:001cedc0       ?run@?$_icmd_getaccuracy@$0CAL@@game@@SAXXZ 00000001401cfdc0 f   fps.obj
 0001:001cee00       ?run@?$_icmd_getdeaths@$0CAK@@game@@SAXXZ 00000001401cfe00 f   fps.obj
 0001:001cee30       ?run@?$_icmd_getflags@$0CAJ@@game@@SAXXZ 00000001401cfe30 f   fps.obj
 0001:001cee60       ?run@?$_icmd_getfrags@$0CAI@@game@@SAXXZ 00000001401cfe60 f   fps.obj
 0001:001cee90       ?timeupdate@game@@YAXH@Z   00000001401cfe90 f   fps.obj
 0001:001cf100       ?killed@game@@YAXPEAUfpsent@@0H@Z 00000001401d0100 f   fps.obj
 0001:001cf5e0       ?deathstate@game@@YAXPEAUfpsent@@_N@Z 00000001401d05e0 f   fps.obj
 0001:001cf7c0       ?damaged@game@@YAXHPEAUfpsent@@0H_N@Z 00000001401d07c0 f   fps.obj
 0001:001cfa80       ?respawn@game@@YAXXZ       00000001401d0a80 f   fps.obj
 0001:001cff00       ?spawnplayer@game@@YAXPEAUfpsent@@@Z 00000001401d0f00 f   fps.obj
 0001:001cffa0       ?checkslowmo@game@@YAXXZ   00000001401d0fa0 f   fps.obj
 0001:001d0080       ?var_slowmosp@game@@YAXXZ  00000001401d1080 f   fps.obj
 0001:001d0100       ?otherplayers@game@@YAXH@Z 00000001401d1100 f   fps.obj
 0001:001d0500       ?predictplayer@game@@YAXPEAUfpsent@@_N@Z 00000001401d1500 f   fps.obj
 0001:001d0680       ?hudplayer@game@@YAPEAUfpsent@@XZ 00000001401d1680 f   fps.obj
 0001:001d06f0       ?followingplayer@game@@YAPEAUfpsent@@XZ 00000001401d16f0 f   fps.obj
 0001:001d0740       ?stopfollowing@game@@YAXXZ 00000001401d1740 f   fps.obj
 0001:001d0770       ?respawnself@game@@YAXXZ   00000001401d1770 f   fps.obj
 0001:001d0850       ?spawnstate@game@@YAPEAUfpsent@@PEAU2@@Z 00000001401d1850 f   fps.obj
 0001:001d0880       ?run@?$_icmd_nextfollow@$0EM@@game@@SAXPEAH@Z 00000001401d1880 f   fps.obj
 0001:001d08a0       ?nextfollow@game@@YAXH@Z   00000001401d18a0 f   fps.obj
 0001:001d0990       ?follow@game@@YAXPEAD@Z    00000001401d1990 f   fps.obj
 0001:001d0a30       ?run@?$_icmd_getfollow@$0CJ@@game@@SAXXZ 00000001401d1a30 f   fps.obj
 0001:001d0ab0       ?run@?$_icmd_togglespacepack@$0CD@@game@@SAXXZ 00000001401d1ab0 f   fps.obj
 0001:001d0b20       ?togglespacepack@game@@YAXXZ 00000001401d1b20 f   fps.obj
 0001:001d0b90       ?taunt@game@@YAXXZ         00000001401d1b90 f   fps.obj
 0001:001d0bf0       ?clientoption@game@@YA_NPEBD@Z 00000001401d1bf0 f   fps.obj
 0001:001d0c00       ?msgsound@game@@YAXHPEAUphysent@@@Z 00000001401d1c00 f   fps.obj
 0001:001d0cb0       ?newclient@game@@YAPEAUfpsent@@H@Z 00000001401d1cb0 f   fps.obj
 0001:001d0e80       ?colorname@game@@YAPEBDPEAUfpsent@@PEBD111@Z 00000001401d1e80 f   fps.obj
 0001:001d1040       ?getclient@game@@YAPEAUfpsent@@H@Z 00000001401d2040 f   fps.obj
 0001:001d1080       ?initclient@game@@YAXXZ    00000001401d2080 f   fps.obj
 0001:001d1150       ?restoreconfig@game@@YAPEBDXZ 00000001401d2150 f   fps.obj
 0001:001d1160       ?loadconfigs@game@@YAXXZ   00000001401d2160 f   fps.obj
 0001:001d11a0       ?updateworld@game@@YAXXZ   00000001401d21a0 f   fps.obj
 0001:001d1a70       ?clipconsole@game@@YAHHH@Z 00000001401d2a70 f   fps.obj
 0001:001d1aa0       ?savedconfig@game@@YAPEBDXZ 00000001401d2aa0 f   fps.obj
 0001:001d1ab0       ?autoexec@game@@YAPEBDXZ   00000001401d2ab0 f   fps.obj
 0001:001d1ac0       ?defaultconfig@game@@YAPEBDXZ 00000001401d2ac0 f   fps.obj
 0001:001d1ad0       ?lighteffects@game@@YAXPEAUdynent@@AEAUvec@@1@Z 00000001401d2ad0 f   fps.obj
 0001:001d1ae0       ?setupcamera@game@@YAXXZ   00000001401d2ae0 f   fps.obj
 0001:001d1bc0       ?detachcamera@game@@YA_NXZ 00000001401d2bc0 f   fps.obj
 0001:001d1be0       ?collidecamera@game@@YA_NXZ 00000001401d2be0 f   fps.obj
 0001:001d1c50       ?needminimap@game@@YA_NXZ  00000001401d2c50 f   fps.obj
 0001:001d1cb0       ?defaultcrosshair@game@@YAPEBDH@Z 00000001401d2cb0 f   fps.obj
 0001:001d1ce0       ?selectcrosshair@game@@YAHAEAUvec@@@Z 00000001401d2ce0 f   fps.obj
 0001:001d1f40       ?gameplayhud@game@@YAXHH@Z 00000001401d2f40 f   fps.obj
 0001:001d2480       ?abovegameplayhud@game@@YAMHH@Z 00000001401d3480 f   fps.obj
 0001:001d24c0       ?serverinfostartcolumn@game@@YA_NPEAUg3d_gui@@H@Z 00000001401d34c0 f   fps.obj
 0001:001d25d0       ?serverinfoentry@game@@YA_NPEAUg3d_gui@@HPEBDH11HAEBU?$vector@H@@H@Z 00000001401d35d0 f   fps.obj
 0001:001d2990       ?serverinfoendcolumn@game@@YAXPEAUg3d_gui@@H@Z 00000001401d3990 f   fps.obj
 0001:001d2a30       ?savedservers@game@@YAPEBDXZ 00000001401d3a30 f   fps.obj
 0001:001d2a40       ?writegamedata@game@@YAXAEAU?$vector@D@@@Z 00000001401d3a40 f   fps.obj
 0001:001d2a50       ?getmapinfo@game@@YAPEBDXZ 00000001401d3a50 f   fps.obj
 0001:001d2a90       ?loadingmap@game@@YAXPEBD@Z 00000001401d3a90 f   fps.obj
 0001:001d2ad0       ?readgamedata@game@@YAXAEAU?$vector@D@@@Z 00000001401d3ad0 f   fps.obj
 0001:001d2ae0       ?startmap@game@@YAXPEBD@Z  00000001401d3ae0 f   fps.obj
 0001:001d2c10       ?numdynents@game@@YAHXZ    00000001401d3c10 f   fps.obj
 0001:001d2c30       ?iterdynents@game@@YAPEAUdynent@@H@Z 00000001401d3c30 f   fps.obj
 0001:001d2c90       ?dynentcollide@game@@YAXPEAUphysent@@0AEBUvec@@@Z 00000001401d3c90 f   fps.obj
 0001:001d2d00       ?allowmove@game@@YA_NPEAUphysent@@@Z 00000001401d3d00 f   fps.obj
 0001:001d2d30       ?physicstrigger@game@@YAXPEAUphysent@@_NHHH@Z 00000001401d3d30 f   fps.obj
 0001:001d2e40       ?suicide@game@@YAXPEAUphysent@@@Z 00000001401d3e40 f   fps.obj
 0001:001d2f80       ?canjump@game@@YA_NXZ      00000001401d3f80 f   fps.obj
 0001:001d2fc0       ?doattack@game@@YAX_N@Z    00000001401d3fc0 f   fps.obj
 0001:001d2ff0       ?resetgamestate@game@@YAXXZ 00000001401d3ff0 f   fps.obj
 0001:001d3110       ?getclientmap@game@@YAPEBDXZ 00000001401d4110 f   fps.obj
 0001:001d31b0       ?hitmonster@game@@YAXHPEAUmonster@1@PEAUfpsent@@AEBUvec@@H@Z 00000001401d41b0 f   monster.obj
 0001:001d31d0       ?rendermonsters@game@@YAXXZ 00000001401d41d0 f   monster.obj
 0001:001d33e0       ?monsterkilled@game@@YAXXZ 00000001401d43e0 f   monster.obj
 0001:001d3430       ?run@?$_icmd_endsp@$0BFM@@game@@SAXXZ 00000001401d4430 f   monster.obj
 0001:001d34a0       ?spawnmonster@game@@YAXXZ  00000001401d44a0 f   monster.obj
 0001:001d3590       ?preloadmonsters@game@@YAXXZ 00000001401d4590 f   monster.obj
 0001:001d36c0       ?run@?$_icmd_nummonsters@$0BBK@@game@@SAXPEAH0@Z 00000001401d46c0 f   monster.obj
 0001:001d3730       ?nummonsters@game@@YAHHH@Z 00000001401d4730 f   monster.obj
 0001:001d37a0       ?clearmonsters@game@@YAXXZ 00000001401d47a0 f   monster.obj
 0001:001d3b70       ?updatemonsters@game@@YAXH@Z 00000001401d4b70 f   monster.obj
 0001:001d3ec0       ?spsummary@game@@YAXH@Z    00000001401d4ec0 f   monster.obj
 0001:001d4140       ?stackmonster@game@@YAXPEAUmonster@1@PEAUphysent@@@Z 00000001401d5140 f   monster.obj
 0001:001d4170       ?suicidemonster@game@@YAXPEAUmonster@1@@Z 00000001401d5170 f   monster.obj
 0001:001d4190       ?endsp@game@@YAX_N@Z       00000001401d5190 f   monster.obj
 0001:001d4230       ?hitmovable@game@@YAXHPEAUmovable@1@PEAUfpsent@@AEBUvec@@H@Z 00000001401d5230 f   movable.obj
 0001:001d4320       ?rendermovables@game@@YAXXZ 00000001401d5320 f   movable.obj
 0001:001d4450       ?run@?$_icmd_platform@$0HK@@game@@SAXPEAH0@Z 00000001401d5450 f   movable.obj
 0001:001d4610       ?triggerplatform@game@@YAXHH@Z 00000001401d5610 f   movable.obj
 0001:001d47d0       ?clearmovables@game@@YAXXZ 00000001401d57d0 f   movable.obj
 0001:001d4a50       ?updatemovables@game@@YAXH@Z 00000001401d5a50 f   movable.obj
 0001:001d4e80       ?stackmovable@game@@YAXPEAUmovable@1@PEAUphysent@@@Z 00000001401d5e80 f   movable.obj
 0001:001d4eb0       ?suicidemovable@game@@YAXPEAUmovable@1@@Z 00000001401d5eb0 f   movable.obj
 0001:001d4fb0       ?preloadsounds@game@@YAXXZ 00000001401d5fb0 f   render.obj
 0001:001d5060       ?preloadweapons@game@@YAXXZ 00000001401d6060 f   render.obj
 0001:001d5210       ?hudgunorigin@game@@YA?AUvec@@HAEBU2@0PEAUfpsent@@@Z 00000001401d6210 f   render.obj
 0001:001d5540       ?drawhudgun@game@@YAXXZ    00000001401d6540 f   render.obj
 0001:001d5640       ?drawhudmodel@game@@YAXPEAUfpsent@@HMH@Z 00000001401d6640 f   render.obj
 0001:001d5ad0       ?renderplayer@game@@YAXPEAUfpsent@@AEBUplayermodelinfo@1@HM_N@Z 00000001401d6ad0 f   render.obj
 0001:001d5ee0       ?preloadplayermodel@game@@YAXXZ 00000001401d6ee0 f   render.obj
 0001:001d6070       ?changedplayermodel@game@@YAXXZ 00000001401d7070 f   render.obj
 0001:001d61f0       ?getplayermodelinfo@game@@YAAEBUplayermodelinfo@1@PEAUfpsent@@@Z 00000001401d71f0 f   render.obj
 0001:001d6250       ?getplayermodelinfo@game@@YAPEBUplayermodelinfo@1@H@Z 00000001401d7250 f   render.obj
 0001:001d6280       ?saveragdoll@game@@YAXPEAUfpsent@@@Z 00000001401d7280 f   render.obj
 0001:001d63a0       ?var_playermodel@game@@YAXXZ 00000001401d73a0 f   render.obj
 0001:001d6520       ?moveragdolls@game@@YAXXZ  00000001401d7520 f   render.obj
 0001:001d6610       ?swayhudgun@game@@YAXH@Z   00000001401d7610 f   render.obj
 0001:001d6880       ?clearragdolls@game@@YAXXZ 00000001401d7880 f   render.obj
 0001:001d68e0       ?chooserandomplayermodel@game@@YAHH@Z 00000001401d78e0 f   render.obj
 0001:001d68f0       ?renderavatar@game@@YAXXZ  00000001401d78f0 f   render.obj
 0001:001d69f0       ?rendergame@game@@YAX_N@Z  00000001401d79f0 f   render.obj
 0001:001d7650       ?renderplayerpreview@game@@YAXHHH@Z 00000001401d8650 f   render.obj
 0001:001d7940       ?preload@game@@YAXXZ       00000001401d8940 f   render.obj
 0001:001d8a30       ?run@?$_icmd_showscores@$0BJI@@game@@SAXPEAH@Z 00000001401d9a30 f   scoreboard.obj
 0001:001d8a50       ?var_scoreboard@game@@YAXXZ 00000001401d9a50 f   scoreboard.obj
 0001:001d8a70       ?renderscoreboard@game@@YAXAEAUg3d_gui@@_N@Z 00000001401d9a70 f   scoreboard.obj
 0001:001da9f0       ?setteaminfo@game@@YAXPEBDH@Z 00000001401db9f0 f   scoreboard.obj
 0001:001dab60       ?getbestteams@game@@YAXAEAU?$vector@PEBD@@@Z 00000001401dbb60 f   scoreboard.obj
 0001:001db120       ?getbestplayers@game@@YAXAEAU?$vector@PEAUfpsent@@@@@Z 00000001401dc120 f   scoreboard.obj
 0001:001db2d0       ?showscores@game@@YAX_N@Z  00000001401dc2d0 f   scoreboard.obj
 0001:001db2f0       ?clearteaminfo@game@@YAXXZ 00000001401dc2f0 f   scoreboard.obj
 0001:001db380       ?g3d_gamemenus@game@@YAXXZ 00000001401dc380 f   scoreboard.obj
 0001:001db4b0       ?run@?$_icmd_movewaypoints@$0DCG@@ai@@SAXPEAH00@Z 00000001401dc4b0 f   waypoint.obj
 0001:001db5e0       ?movewaypoints@ai@@YAXAEBUvec@@@Z 00000001401dc5e0 f   waypoint.obj
 0001:001db730       ?delselwaypoints@ai@@YAXXZ 00000001401dc730 f   waypoint.obj
 0001:001db950       ?run@?$_icmd_savewaypoints@$0CPF@@ai@@SAXPEAD@Z 00000001401dc950 f   waypoint.obj
 0001:001db960       ?run@?$_icmd_loadwaypoints@$0CNI@@ai@@SAXPEAD@Z 00000001401dc960 f   waypoint.obj
 0001:001db970       ?getwaypointfile@ai@@YA_NPEBDPEAD@Z 00000001401dc970 f   waypoint.obj
 0001:001dba00       ?cleanwaypoints@ai@@YA_NXZ 00000001401dca00 f   waypoint.obj
 0001:001dbbe0       ?remapwaypoints@ai@@YAXXZ  00000001401dcbe0 f   waypoint.obj
 0001:001dbe40       ?seedwaypoints@ai@@YAXXZ   00000001401dce40 f   waypoint.obj
 0001:001dbee0       ?run@?$_icmd_clearwaypoints@$0CGB@@ai@@SAXXZ 00000001401dcee0 f   waypoint.obj
 0001:001dbef0       ?navigate@ai@@YAXPEAUfpsent@@@Z 00000001401dcef0 f   waypoint.obj
 0001:001dc1e0       ?linkwaypoint@ai@@YAXAEAUwaypoint@1@H@Z 00000001401dd1e0 f   waypoint.obj
 0001:001dc360       ?addwaypoint@ai@@YAHAEBUvec@@H@Z 00000001401dd360 f   waypoint.obj
 0001:001dc460       ?var_dropwaypoints@ai@@YAXXZ 00000001401dd460 f   waypoint.obj
 0001:001dc4a0       ?buildwpcache@ai@@YAXXZ    00000001401dd4a0 f   waypoint.obj
 0001:001dc5c0       ?run@?$_icmd_clearwpcache@$0LL@@ai@@SAXXZ 00000001401dd5c0 f   waypoint.obj
 0001:001dc690       ?clearwpcache@ai@@YAX_N@Z  00000001401dd690 f   waypoint.obj
 0001:001dc830       ?getweight@ai@@YAHAEBUvec@@@Z 00000001401dd830 f   waypoint.obj
 0001:001dc9c0       ?clipped@ai@@YA_NAEBUvec@@@Z 00000001401dd9c0 f   waypoint.obj
 0001:001dca00       ?navigate@ai@@YAXXZ        00000001401dda00 f   waypoint.obj
 0001:001dcab0       ?savewaypoints@ai@@YAX_NPEBD@Z 00000001401ddab0 f   waypoint.obj
 0001:001dce60       ?clearwaypoints@ai@@YAX_N@Z 00000001401dde60 f   waypoint.obj
 0001:001dcf50       ?inferwaypoints@ai@@YAXPEAUfpsent@@AEBUvec@@1M@Z 00000001401ddf50 f   waypoint.obj
 0001:001dd100       ?loadwaypoints@ai@@YAX_NPEBD@Z 00000001401de100 f   waypoint.obj
 0001:001dd720       ?route@ai@@YA_NPEAUfpsent@@HHAEAU?$vector@H@@AEBUavoidset@1@H@Z 00000001401de720 f   waypoint.obj
 0001:001de1f0       ?closestwaypoint@ai@@YAHAEBUvec@@M_NPEAUfpsent@@@Z 00000001401df1f0 f   waypoint.obj
 0001:001de7a0       ?findwaypointswithin@ai@@YAXAEBUvec@@MMAEAU?$vector@H@@@Z 00000001401df7a0 f   waypoint.obj
 0001:001dec30       ?remap@avoidset@ai@@QEAAHPEAUfpsent@@HAEAUvec@@_N@Z 00000001401dfc30 f   waypoint.obj
 0001:001dee60       ?avoidnear@avoidset@ai@@QEAAXPEAXMAEBUvec@@M@Z 00000001401dfe60 f   waypoint.obj
 0001:001df460       ?checkidlesound@game@@YAXPEAUfpsent@@_N@Z 00000001401e0460 f   weapon.obj
 0001:001df5d0       ?checkattacksound@game@@YAXPEAUfpsent@@_N@Z 00000001401e05d0 f   weapon.obj
 0001:001df6e0       ?raydamage@game@@YAXAEAUvec@@0PEAUfpsent@@@Z 00000001401e06e0 f   weapon.obj
 0001:001dfc40       ?shorten@game@@YAXAEAUvec@@0M@Z 00000001401e0c40 f   weapon.obj
 0001:001dfca0       ?shoteffects@game@@YAXHAEBUvec@@0PEAUfpsent@@_NHH@Z 00000001401e0ca0 f   weapon.obj
 0001:001e0c60       ?updateprojectiles@game@@YAXH@Z 00000001401e1c60 f   weapon.obj
 0001:001e1580       ?projdamage@game@@YA_NPEAUdynent@@AEAUprojectile@1@AEAUvec@@H@Z 00000001401e2580 f   weapon.obj
 0001:001e1710       ?explodeeffects@game@@YAXHPEAUfpsent@@_NH@Z 00000001401e2710 f   weapon.obj
 0001:001e1aa0       ?projsplash@game@@YAXAEAUprojectile@1@AEAUvec@@PEAUdynent@@H@Z 00000001401e2aa0 f   weapon.obj
 0001:001e1ca0       ?radialeffect@game@@YAXPEAUdynent@@AEBUvec@@HPEAUfpsent@@H@Z 00000001401e2ca0 f   weapon.obj
 0001:001e1dd0       ?projdist@game@@YAMPEAUdynent@@AEAUvec@@AEBU3@@Z 00000001401e2dd0 f   weapon.obj
 0001:001e1ea0       ?hitpush@game@@YAXHPEAUdynent@@PEAUfpsent@@AEAUvec@@2HH@Z 00000001401e2ea0 f   weapon.obj
 0001:001e1fd0       ?hit@game@@YAXHPEAUdynent@@PEAUfpsent@@AEBUvec@@HMH@Z 00000001401e2fd0 f   weapon.obj
 0001:001e24d0       ?spawnbouncer@game@@YAXAEBUvec@@0PEAUfpsent@@HPEAUentitylight@@@Z 00000001401e34d0 f   weapon.obj
 0001:001e2690       ?removeprojectiles@game@@YAXPEAUfpsent@@@Z 00000001401e3690 f   weapon.obj
 0001:001e2790       ?newprojectile@game@@YAXAEBUvec@@0M_NHPEAUfpsent@@H@Z 00000001401e3790 f   weapon.obj
 0001:001e2a90       ?removebouncers@game@@YAXPEAUfpsent@@@Z 00000001401e3a90 f   weapon.obj
 0001:001e2b50       ?updatebouncers@game@@YAXH@Z 00000001401e3b50 f   weapon.obj
 0001:001e32b0       ?newbouncer@game@@YAXAEBUvec@@0_NHPEAUfpsent@@HHHPEAUentitylight@@@Z 00000001401e42b0 f   weapon.obj
 0001:001e39a0       ?createrays@game@@YAXHAEBUvec@@0@Z 00000001401e49a0 f   weapon.obj
 0001:001e3d30       ?offsetray@game@@YAXAEBUvec@@0HMAEAU2@@Z 00000001401e4d30 f   weapon.obj
 0001:001e4010       ?run@?$_icmd_weapon@$0IF@@game@@SAXPEAUtagval@@H@Z 00000001401e5010 f   weapon.obj
 0001:001e4150       ?weaponswitch@game@@YAXPEAUfpsent@@@Z 00000001401e5150 f   weapon.obj
 0001:001e4230       ?run@?$_icmd_cycleweapon@$0GH@@game@@SAXPEAUtagval@@H@Z 00000001401e5230 f   weapon.obj
 0001:001e43a0       ?cycleweapon@game@@YAXHPEAH_N@Z 00000001401e53a0 f   weapon.obj
 0001:001e4480       ?run@?$_icmd_dbgreload@$0EP@@game@@SAXPEAD@Z 00000001401e5480 f   weapon.obj
 0001:001e44d0       ?dbgreload@game@@YAXPEBD@Z 00000001401e54d0 f   weapon.obj
 0001:001e4520       ?run@?$_icmd_setweapon@$0EH@@game@@SAXPEADPEAH@Z 00000001401e5520 f   weapon.obj
 0001:001e45a0       ?setweapon@game@@YAXPEBD_N@Z 00000001401e55a0 f   weapon.obj
 0001:001e4620       ?getweapon@game@@YAHPEBD@Z 00000001401e5620 f   weapon.obj
 0001:001e4700       ?run@?$_icmd_nextweapon@$0DC@@game@@SAXPEAH0@Z 00000001401e5700 f   weapon.obj
 0001:001e4720       ?nextweapon@game@@YAXH_N@Z 00000001401e5720 f   weapon.obj
 0001:001e48e0       ?run@?$_icmd_getweapon@$0BE@@game@@SAXXZ 00000001401e58e0 f   weapon.obj
 0001:001e4910       ?renderbouncers@game@@YAXXZ 00000001401e5910 f   weapon.obj
 0001:001e4c70       ?renderprojectiles@game@@YAXXZ 00000001401e5c70 f   weapon.obj
 0001:001e5010       ?preloadbouncers@game@@YAXXZ 00000001401e6010 f   weapon.obj
 0001:001e51b0       ?explode@game@@YAX_NPEAUfpsent@@AEBUvec@@PEAUdynent@@HH@Z 00000001401e61b0 f   weapon.obj
 0001:001e5910       ?clearprojectiles@game@@YAXXZ 00000001401e6910 f   weapon.obj
 0001:001e5930       ?clearbouncers@game@@YAXXZ 00000001401e6930 f   weapon.obj
 0001:001e5980       ?intersect@game@@YA_NPEAUdynent@@AEBUvec@@1AEAM@Z 00000001401e6980 f   weapon.obj
 0001:001e5a00       ?updateweapons@game@@YAXH@Z 00000001401e6a00 f   weapon.obj
 0001:001e5d20       ?damageeffect@game@@YAXHPEAUfpsent@@_N@Z 00000001401e6d20 f   weapon.obj
 0001:001e5ea0       ?gibeffect@game@@YAXHAEBUvec@@PEAUfpsent@@@Z 00000001401e6ea0 f   weapon.obj
 0001:001e5f70       ?getweaponname@game@@YAPEBDH@Z 00000001401e6f70 f   weapon.obj
 0001:001e5fe0       ?removeweapons@game@@YAXPEAUfpsent@@@Z 00000001401e6fe0 f   weapon.obj
 0001:001e6190       ?intersectclosest@game@@YAPEAUdynent@@AEBUvec@@0PEAUfpsent@@AEAM@Z 00000001401e7190 f   weapon.obj
 0001:001e6320       ?gunselect@game@@YAXHPEAUfpsent@@@Z 00000001401e7320 f   weapon.obj
 0001:001e63c0       ?shoot@game@@YAXPEAUfpsent@@AEBUvec@@@Z 00000001401e73c0 f   weapon.obj
 0001:001e6a00       ?avoidweapons@game@@YAXAEAUavoidset@ai@@M@Z 00000001401e7a00 f   weapon.obj
 0001:001e6b20       ?particletrack@game@@YAXPEAUphysent@@AEAUvec@@1@Z 00000001401e7b20 f   weapon.obj
 0001:001e6c70       ?adddynlights@game@@YAXXZ  00000001401e7c70 f   weapon.obj
 0001:001e6f20       ?dynlighttrack@game@@YAXPEAUphysent@@AEAUvec@@1@Z 00000001401e7f20 f   weapon.obj
 0001:001e6fc0       ?bounced@game@@YAXPEAUphysent@@AEBUvec@@@Z 00000001401e7fc0 f   weapon.obj
 0001:001e74a0       ?gotosel@game@@YAXXZ       00000001401e84a0 f   client1.obj
 0001:001e7670       ?gotoplayer@game@@YAXPEBD@Z 00000001401e8670 f   client1.obj
 0001:001e7810       ?sendmap@game@@YAXXZ       00000001401e8810 f   client1.obj
 0001:001e79d0       ?listdemos@game@@YAXXZ     00000001401e89d0 f   client1.obj
 0001:001e7a00       ?run@?$_icmd_getdemo@$0IAF@@game@@SAXPEAH@Z 00000001401e8a00 f   client1.obj
 0001:001e7a50       ?getdemo@game@@YAXH@Z      00000001401e8a50 f   client1.obj
 0001:001e7aa0       ?run@?$_icmd_cleardemos@$0HPN@@game@@SAXPEAH@Z 00000001401e8aa0 f   client1.obj
 0001:001e7ae0       ?cleardemos@game@@YAXH@Z   00000001401e8ae0 f   client1.obj
 0001:001e7b20       ?run@?$_icmd_recorddemo@$0HPG@@game@@SAXPEAH@Z 00000001401e8b20 f   client1.obj
 0001:001e7b60       ?recorddemo@game@@YAXH@Z   00000001401e8b60 f   client1.obj
 0001:001e7ba0       ?stopdemo@game@@YAXXZ      00000001401e8ba0 f   client1.obj
 0001:001e7c00       ?getmap@game@@YAXXZ        00000001401e8c00 f   client1.obj
 0001:001e7c70       ?receivefile@game@@YAXAEAUpacketbuf@@@Z 00000001401e8c70 f   client1.obj
 0001:001e7fc0       ?parsemessages@game@@YAXHPEAUfpsent@@AEAU?$databuf@E@@@Z 00000001401e8fc0 f   client1.obj
 0001:001eaec0       ?parsestate@game@@YAXPEAUfpsent@@AEAU?$databuf@E@@_N@Z 00000001401ebec0 f   client1.obj
 0001:001eb080       ?parsepositions@game@@YAXAEAU?$databuf@E@@@Z 00000001401ec080 f   client1.obj
 0001:001ebe50       ?updatepos@game@@YAXPEAUfpsent@@@Z 00000001401ece50 f   client1.obj
 0001:001ebf90       ?sendintro@game@@YAXXZ     00000001401ecf90 f   client1.obj
 0001:001ec240       ?sendmessages@game@@YAXXZ  00000001401ed240 f   client1.obj
 0001:001ec580       ?sendpositions@game@@YAXXZ 00000001401ed580 f   client1.obj
 0001:001ed320       ?run@?$_icmd_servcmd@$0DJN@@game@@SAXPEAD@Z 00000001401ee320 f   client1.obj
 0001:001ed340       ?sayteam@game@@YAXPEAD@Z   00000001401ee340 f   client1.obj
 0001:001ed3b0       ?run@?$_icmd_gamespeed@$0DCE@@game@@SAXPEAH0PEAUident@@@Z 00000001401ee3b0 f   client1.obj
 0001:001ed4d0       ?changegamespeed@game@@YAXH@Z 00000001401ee4d0 f   client1.obj
 0001:001ed560       ?run@?$_icmd_paused@$0DBD@@game@@SAXPEAH0PEAUident@@@Z 00000001401ee560 f   client1.obj
 0001:001ed600       ?run@?$_icmd_pausegame@$0DAN@@game@@SAXPEAH@Z 00000001401ee600 f   client1.obj
 0001:001ed620       ?pausegame@game@@YAX_N@Z   00000001401ee620 f   client1.obj
 0001:001ed6a0       ?printvar@game@@YAXPEAUfpsent@@PEAUident@@@Z 00000001401ee6a0 f   client1.obj
 0001:001ed840       ?sendclipboard@game@@YAXXZ 00000001401ee840 f   client1.obj
 0001:001edab0       ?run@?$_icmd_map@$0CEH@@game@@SAXPEAD@Z 00000001401eeab0 f   client1.obj
 0001:001edae0       ?run@?$_icmds_@$0CDI@@game@@SAXPEAH@Z 00000001401eeae0 f   client1.obj
 0001:001edb30       ?run@?$_icmds_@$0CDH@@game@@SAXPEAH@Z 00000001401eeb30 f   client1.obj
 0001:001edb80       ?run@?$_icmds_@$0CDG@@game@@SAXPEAH@Z 00000001401eeb80 f   client1.obj
 0001:001edbd0       ?run@?$_icmds_@$0CDF@@game@@SAXPEAH@Z 00000001401eebd0 f   client1.obj
 0001:001edc20       ?run@?$_icmds_@$0CDE@@game@@SAXPEAH@Z 00000001401eec20 f   client1.obj
 0001:001edc70       ?run@?$_icmds_@$0CDD@@game@@SAXPEAH@Z 00000001401eec70 f   client1.obj
 0001:001edcc0       ?run@?$_icmds_@$0CDC@@game@@SAXPEAH@Z 00000001401eecc0 f   client1.obj
 0001:001edd10       ?run@?$_icmds_@$0CDB@@game@@SAXPEAH@Z 00000001401eed10 f   client1.obj
 0001:001edd60       ?run@?$_icmds_@$0CDA@@game@@SAXPEAH@Z 00000001401eed60 f   client1.obj
 0001:001eddb0       ?run@?$_icmds_@$0CCP@@game@@SAXPEAH@Z 00000001401eedb0 f   client1.obj
 0001:001ede00       ?run@?$_icmds_@$0CCO@@game@@SAXPEAH@Z 00000001401eee00 f   client1.obj
 0001:001ede50       ?run@?$_icmds_@$0CCN@@game@@SAXPEAH@Z 00000001401eee50 f   client1.obj
 0001:001edea0       ?run@?$_icmds_@$0CCM@@game@@SAXPEAH@Z 00000001401eeea0 f   client1.obj
 0001:001edef0       ?run@?$_icmds_@$0CCL@@game@@SAXPEAH@Z 00000001401eeef0 f   client1.obj
 0001:001edf40       ?run@?$_icmds_@$0CCK@@game@@SAXPEAH@Z 00000001401eef40 f   client1.obj
 0001:001edf90       ?run@?$_icmds_@$0CCJ@@game@@SAXPEAH@Z 00000001401eef90 f   client1.obj
 0001:001edfe0       ?run@?$_icmds_@$0CCI@@game@@SAXPEAH@Z 00000001401eefe0 f   client1.obj
 0001:001ee030       ?run@?$_icmds_@$0CCH@@game@@SAXPEAH@Z 00000001401ef030 f   client1.obj
 0001:001ee080       ?run@?$_icmds_@$0CCG@@game@@SAXPEAH@Z 00000001401ef080 f   client1.obj
 0001:001ee0d0       ?run@?$_icmds_@$0CCF@@game@@SAXPEAH@Z 00000001401ef0d0 f   client1.obj
 0001:001ee120       ?run@?$_icmds_@$0CCE@@game@@SAXPEAH@Z 00000001401ef120 f   client1.obj
 0001:001ee170       ?run@?$_icmd_timeremaining@$0CCD@@game@@SAXPEAH@Z 00000001401ef170 f   client1.obj
 0001:001ee270       ?run@?$_icmd_getmode@$0CBJ@@game@@SAXXZ 00000001401ef270 f   client1.obj
 0001:001ee290       ?run@?$_icmd_mode@$0CBI@@game@@SAXPEAH@Z 00000001401ef290 f   client1.obj
 0001:001ee340       ?setmode@game@@YAXH@Z      00000001401ef340 f   client1.obj
 0001:001ee3f0       ?changemapserv@game@@YAXPEBDH@Z 00000001401ef3f0 f   client1.obj
 0001:001ee580       ?run@?$_icmd_checkmaps@$0BPE@@game@@SAXXZ 00000001401ef580 f   client1.obj
 0001:001ee5a0       ?run@?$_icmd_spectator@$0BPC@@game@@SAXPEAHPEAD@Z 00000001401ef5a0 f   client1.obj
 0001:001ee5f0       ?togglespectator@game@@YAXHPEBD@Z 00000001401ef5f0 f   client1.obj
 0001:001ee640       ?run@?$_icmd_dauth@$0BOL@@game@@SAXPEAD@Z 00000001401ef640 f   client1.obj
 0001:001ee690       ?run@?$_icmd_sauth@$0BOK@@game@@SAXXZ 00000001401ef690 f   client1.obj
 0001:001ee6e0       ?run@?$_icmd_auth@$0BOJ@@game@@SAXPEAD@Z 00000001401ef6e0 f   client1.obj
 0001:001ee720       ?tryauth@game@@YA_NPEBD@Z  00000001401ef720 f   client1.obj
 0001:001ee770       ?run@?$_icmd_mastermode@$0BNP@@game@@SAXPEAH@Z 00000001401ef770 f   client1.obj
 0001:001ee790       ?setmaster@game@@YAXPEBD0@Z 00000001401ef790 f   client1.obj
 0001:001ee870       ?hashpwd@game@@YAXPEBD@Z   00000001401ef870 f   client1.obj
 0001:001ee920       ?setteam@game@@YAXPEBD0@Z  00000001401ef920 f   client1.obj
 0001:001ee960       ?run@?$_icmd_isignored@$0BLK@@game@@SAXPEAD@Z 00000001401ef960 f   client1.obj
 0001:001ee9c0       ?run@?$_icmd_unignore@$0BLJ@@game@@SAXPEAD@Z 00000001401ef9c0 f   client1.obj
 0001:001ee9e0       ?run@?$_icmd_ignore@$0BLI@@game@@SAXPEAD@Z 00000001401ef9e0 f   client1.obj
 0001:001eeab0       ?isignored@game@@YA_NH@Z   00000001401efab0 f   client1.obj
 0001:001eeaf0       ?ignore@game@@YAXH@Z       00000001401efaf0 f   client1.obj
 0001:001eebb0       ?run@?$_icmd_dauthkick@$0BKC@@game@@SAXPEBD00@Z 00000001401efbb0 f   client1.obj
 0001:001eebc0       ?run@?$_icmd_sauthkick@$0BKB@@game@@SAXPEBD0@Z 00000001401efbc0 f   client1.obj
 0001:001eec50       ?run@?$_icmd_authkick@$0BKA@@game@@SAXPEBD0@Z 00000001401efc50 f   client1.obj
 0001:001eece0       ?authkick@game@@YAXPEBD00@Z 00000001401efce0 f   client1.obj
 0001:001eed60       ?kick@game@@YAXPEBD0@Z     00000001401efd60 f   client1.obj
 0001:001eedb0       ?clearbans@game@@YAXXZ     00000001401efdb0 f   client1.obj
 0001:001eedd0       ?run@?$_icmd_listclients@$0BIH@@game@@SAXPEAH0@Z 00000001401efdd0 f   client1.obj
 0001:001eedf0       ?listclients@game@@YAX_N0@Z 00000001401efdf0 f   client1.obj
 0001:001ef150       ?run@?$_icmd_getclientnum@$0BHB@@game@@SAXPEAD@Z 00000001401f0150 f   client1.obj
 0001:001ef190       ?run@?$_icmd_isai@$0BFI@@game@@SAXPEAH0@Z 00000001401f0190 f   client1.obj
 0001:001ef200       ?isai@game@@YA_NHH@Z       00000001401f0200 f   client1.obj
 0001:001ef260       ?run@?$_icmd_isspectator@$0BFA@@game@@SAXPEAH@Z 00000001401f0260 f   client1.obj
 0001:001ef2d0       ?isspectator@game@@YA_NH@Z 00000001401f02d0 f   client1.obj
 0001:001ef320       ?run@?$_icmd_mastermodename@$0BEJ@@game@@SAXPEAH@Z 00000001401f0320 f   client1.obj
 0001:001ef370       ?run@?$_icmd_getmastermode@$0BEI@@game@@SAXXZ 00000001401f0370 f   client1.obj
 0001:001ef390       ?run@?$_icmd_isadmin@$0BEG@@game@@SAXPEAH@Z 00000001401f0390 f   client1.obj
 0001:001ef400       ?isadmin@game@@YA_NH@Z     00000001401f0400 f   client1.obj
 0001:001ef450       ?run@?$_icmd_isauth@$0BDP@@game@@SAXPEAH@Z 00000001401f0450 f   client1.obj
 0001:001ef4c0       ?isauth@game@@YA_NH@Z      00000001401f04c0 f   client1.obj
 0001:001ef510       ?run@?$_icmd_ismaster@$0BDI@@game@@SAXPEAH@Z 00000001401f0510 f   client1.obj
 0001:001ef580       ?ismaster@game@@YA_NH@Z    00000001401f0580 f   client1.obj
 0001:001ef5d0       ?run@?$_icmd_getclienticon@$0BDB@@game@@SAXPEAH@Z 00000001401f05d0 f   client1.obj
 0001:001ef6b0       ?getclienticon@game@@YAPEBDH@Z 00000001401f06b0 f   client1.obj
 0001:001ef780       ?run@?$_icmd_getclientmodel@$0BCI@@game@@SAXPEAH@Z 00000001401f0780 f   client1.obj
 0001:001ef7f0       ?getclientmodel@game@@YAHH@Z 00000001401f07f0 f   client1.obj
 0001:001ef840       ?run@?$_icmd_getclientteam@$0BCB@@game@@SAXPEAH@Z 00000001401f0840 f   client1.obj
 0001:001ef8b0       ?getclientteam@game@@YAPEBDH@Z 00000001401f08b0 f   client1.obj
 0001:001ef900       ?run@?$_icmd_getclientname@$0BBK@@game@@SAXPEAH@Z 00000001401f0900 f   client1.obj
 0001:001ef970       ?getclientname@game@@YAPEBDH@Z 00000001401f0970 f   client1.obj
 0001:001ef9c0       ?saveauthkeys@game@@YAXXZ  00000001401f09c0 f   client1.obj
 0001:001efaf0       ?genauthkey@game@@YAXPEBD@Z 00000001401f0af0 f   client1.obj
 0001:001efba0       ?run@?$_icmd_hasauthkey@$0NJ@@game@@SAXPEAD0@Z 00000001401f0ba0 f   client1.obj
 0001:001efc70       ?hasauthkey@game@@YA_NPEBD0@Z 00000001401f0c70 f   client1.obj
 0001:001efd20       ?run@?$_icmd_authkey@$0NA@@game@@SAXPEAD00@Z 00000001401f0d20 f   client1.obj
 0001:001efd30       ?addauthkey@game@@YAXPEBD00@Z 00000001401f0d30 f   client1.obj
 0001:001effc0       ?findauthkey@game@@YAPEAUauthkey@1@PEBD@Z 00000001401f0fc0 f   client1.obj
 0001:001f00e0       ?run@?$_icmd_getteam@$0KG@@game@@SAXXZ 00000001401f10e0 f   client1.obj
 0001:001f0120       ?run@?$_icmd_team@$0KF@@game@@SAXPEADPEAH@Z 00000001401f1120 f   client1.obj
 0001:001f0240       ?printteam@game@@YAXXZ     00000001401f1240 f   client1.obj
 0001:001f0260       ?switchteam@game@@YAXPEBD@Z 00000001401f1260 f   client1.obj
 0001:001f02e0       ?run@?$_icmd_getname@$0JA@@game@@SAXXZ 00000001401f12e0 f   client1.obj
 0001:001f0320       ?run@?$_icmd_name@$0IP@@game@@SAXPEADPEAH@Z 00000001401f1320 f   client1.obj
 0001:001f0450       ?printname@game@@YAXXZ     00000001401f1450 f   client1.obj
 0001:001f04a0       ?switchname@game@@YAXPEBD@Z 00000001401f14a0 f   client1.obj
 0001:001f0560       ?run@?$_icmd_dropflag@$0ELA@@game@@SAXXZ 00000001401f1560 f   client1.obj
 0001:001f05d0       ?run@?$_icmd_insidebases@$0DAM@@game@@SAXXZ 00000001401f15d0 f   client1.obj
 0001:001f08e0       ?run@?$_icmd_repammo@$0CPM@@game@@SAXXZ 00000001401f18e0 f   client1.obj
 0001:001f0a30       ?drawteammates@game@@YAXPEAUfpsent@@MMM@Z 00000001401f1a30 f   client1.obj
 0001:001f0e00       ?drawteammate@game@@YAXPEAUfpsent@@MMM0M@Z 00000001401f1e00 f   client1.obj
 0001:001f1210       ?drawradar@game@@YAXMMM@Z  00000001401f2210 f   client1.obj
 0001:001f1440       ?drawminimap@game@@YAXPEAUfpsent@@MMM@Z 00000001401f2440 f   client1.obj
 0001:001f16f0       ?calcradarscale@game@@YAMXZ 00000001401f26f0 f   client1.obj
 0001:001f1730       ?forceintermission@game@@YAXXZ 00000001401f2730 f   client1.obj
 0001:001f1780       ?parseplayer@game@@YAHPEBD@Z 00000001401f2780 f   client1.obj
 0001:001f18a0       ?c2sinfo@game@@YAX_N@Z     00000001401f28a0 f   client1.obj
 0001:001f18f0       ?changemap@game@@YAXPEBDH@Z 00000001401f28f0 f   client1.obj
 0001:001f1a60       ?unignore@game@@YAXH@Z     00000001401f2a60 f   client1.obj
 0001:001f1b90       ?setclientmode@game@@YAXXZ 00000001401f2b90 f   client1.obj
 0001:001f1c10       ?switchplayermodel@game@@YAXH@Z 00000001401f2c10 f   client1.obj
 0001:001f1c50       ?sendmapinfo@game@@YAXXZ   00000001401f2c50 f   client1.obj
 0001:001f1c90       ?sendposition@game@@YAXPEAUfpsent@@_N@Z 00000001401f2c90 f   client1.obj
 0001:001f1dc0       ?addmsg@game@@YA_NHPEBDZZ  00000001401f2dc0 f   client1.obj
 0001:001f2240       ?changemap@game@@YAXPEBD@Z 00000001401f3240 f   client1.obj
 0001:001f2270       ?toserver@game@@YAXPEAD@Z  00000001401f3270 f   client1.obj
 0001:001f22e0       ?vartrigger@game@@YAXPEAUident@@@Z 00000001401f32e0 f   client1.obj
 0001:001f23c0       ?writeclientinfo@game@@YAXPEAUstream@@@Z 00000001401f33c0 f   client1.obj
 0001:001f2410       ?allowmouselook@game@@YA_NXZ 00000001401f3410 f   client1.obj
 0001:001f2460       ?ispaused@game@@YA_NXZ     00000001401f3460 f   client1.obj
 0001:001f2470       ?connectfail@game@@YAXXZ   00000001401f3470 f   client1.obj
 0001:001f2490       ?connectattempt@game@@YAXPEBD0AEBU_ENetAddress@@@Z 00000001401f3490 f   client1.obj
 0001:001f24e0       ?gamedisconnect@game@@YAX_N@Z 00000001401f34e0 f   client1.obj
 0001:001f2600       ?parsepacketclient@game@@YAXHAEAUpacketbuf@@@Z 00000001401f3600 f   client1.obj
 0001:001f2640       ?gameconnect@game@@YAX_N@Z 00000001401f3640 f   client1.obj
 0001:001f2650       ?forceedit@game@@YAXPEBD@Z 00000001401f3650 f   client1.obj
 0001:001f2670       ?newmap@game@@YAXH@Z       00000001401f3670 f   client1.obj
 0001:001f2690       ?scaletime@game@@YAHH@Z    00000001401f3690 f   client1.obj
 0001:001f26a0       ?allowedittoggle@game@@YA_NXZ 00000001401f36a0 f   client1.obj
 0001:001f2750       ?edittoggled@game@@YAX_N@Z 00000001401f3750 f   client1.obj
 0001:001f2800       ?edittrigger@game@@YAXAEBUselinfo@@HHHHPEBUVSlot@@@Z 00000001401f3800 f   client1.obj
 0001:001f32f0       ?changeteam@aiman@server@@YAXPEAUclientinfo@2@@Z 00000001401f42f0 f   server1.obj
 0001:001f3320       ?addclient@aiman@server@@YAXPEAUclientinfo@2@@Z 00000001401f4320 f   server1.obj
 0001:001f3350       ?changemap@aiman@server@@YAXXZ 00000001401f4350 f   server1.obj
 0001:001f3430       ?setbotbalance@aiman@server@@YAXPEAUclientinfo@2@_N@Z 00000001401f4430 f   server1.obj
 0001:001f34c0       ?setbotlimit@aiman@server@@YAXPEAUclientinfo@2@H@Z 00000001401f44c0 f   server1.obj
 0001:001f3550       ?reqdel@aiman@server@@YAXPEAUclientinfo@2@@Z 00000001401f4550 f   server1.obj
 0001:001f35b0       ?reqadd@aiman@server@@YAXPEAUclientinfo@2@H@Z 00000001401f45b0 f   server1.obj
 0001:001f3620       ?checkai@aiman@server@@YAXXZ 00000001401f4620 f   server1.obj
 0001:001f3790       ?clearai@aiman@server@@YAXXZ 00000001401f4790 f   server1.obj
 0001:001f3960       ?checksetup@aiman@server@@YAXXZ 00000001401f4960 f   server1.obj
 0001:001f3b70       ?reassignai@aiman@server@@YA_NXZ 00000001401f4b70 f   server1.obj
 0001:001f3c50       ?removeai@aiman@server@@YAXPEAUclientinfo@2@@Z 00000001401f4c50 f   server1.obj
 0001:001f3cb0       ?shiftai@aiman@server@@YAXPEAUclientinfo@2@0@Z 00000001401f4cb0 f   server1.obj
 0001:001f3da0       ?reinitai@aiman@server@@YAXPEAUclientinfo@2@@Z 00000001401f4da0 f   server1.obj
 0001:001f3f30       ?deleteai@aiman@server@@YA_NXZ 00000001401f4f30 f   server1.obj
 0001:001f40f0       ?deleteai@aiman@server@@YAXPEAUclientinfo@2@@Z 00000001401f50f0 f   server1.obj
 0001:001f4280       ?addai@aiman@server@@YA_NHH@Z 00000001401f5280 f   server1.obj
 0001:001f4680       ?findaiclient@aiman@server@@YAPEAUclientinfo@2@PEAU32@@Z 00000001401f5680 f   server1.obj
 0001:001f4750       ?chooseteam@aiman@server@@YAPEBDXZ 00000001401f5750 f   server1.obj
 0001:001f47d0       ?balanceteams@aiman@server@@YAXXZ 00000001401f57d0 f   server1.obj
 0001:001f4b20       ?calcteams@aiman@server@@YAXAEAU?$vector@Uteamscore@@@@@Z 00000001401f5b20 f   server1.obj
 0001:001f4e00       ?extserverinforeply@server@@YAXAEAU?$databuf@E@@0@Z 00000001401f5e00 f   server1.obj
 0001:001f5060       ?extinfoteams@server@@YAXAEAU?$databuf@E@@@Z 00000001401f6060 f   server1.obj
 0001:001f53c0       ?extinfoplayer@server@@YAXAEAU?$databuf@E@@PEAUclientinfo@1@@Z 00000001401f63c0 f   server1.obj
 0001:001f55d0       ?connected@server@@YAXPEAUclientinfo@1@@Z 00000001401f65d0 f   server1.obj
 0001:001f5b10       ?sendclipboard@server@@YAXPEAUclientinfo@1@@Z 00000001401f6b10 f   server1.obj
 0001:001f5c30       ?receivefile@server@@YAXHPEAEH@Z 00000001401f6c30 f   server1.obj
 0001:001f5d50       ?answerchallenge@server@@YA_NPEAUclientinfo@1@IPEADPEBD@Z 00000001401f6d50 f   server1.obj
 0001:001f6040       ?tryauth@server@@YA_NPEAUclientinfo@1@PEBD1@Z 00000001401f7040 f   server1.obj
 0001:001f6370       ?authchallenged@server@@YAXIPEBD0@Z 00000001401f7370 f   server1.obj
 0001:001f6400       ?authsucceeded@server@@YAXI@Z 00000001401f7400 f   server1.obj
 0001:001f6560       ?authfailed@server@@YAXI@Z 00000001401f7560 f   server1.obj
 0001:001f65b0       ?authfailed@server@@YAXPEAUclientinfo@1@@Z 00000001401f75b0 f   server1.obj
 0001:001f6630       ?findauth@server@@YAPEAUclientinfo@1@I@Z 00000001401f7630 f   server1.obj
 0001:001f6680       ?allowconnect@server@@YAHPEAUclientinfo@1@PEBD@Z 00000001401f7680 f   server1.obj
 0001:001f67f0       ?run@?$_icmd_ipban@$0KDJ@@server@@SAXPEBD@Z 00000001401f77f0 f   server1.obj
 0001:001f6810       ?run@?$_icmd_clearipbans@$0KDI@@server@@SAXXZ 00000001401f7810 f   server1.obj
 0001:001f6830       ?verifybans@server@@YAXXZ  00000001401f7830 f   server1.obj
 0001:001f68d0       ?checkbans@server@@YA_NI@Z 00000001401f78d0 f   server1.obj
 0001:001f6980       ?noclients@server@@YAXXZ   00000001401f7980 f   server1.obj
 0001:001f69a0       ?sendservinfo@server@@YAXPEAUclientinfo@1@@Z 00000001401f79a0 f   server1.obj
 0001:001f6a10       ?unspectate@server@@YAXPEAUclientinfo@1@@Z 00000001401f7a10 f   server1.obj
 0001:001f6b50       ?shouldspectate@server@@YA_NPEAUclientinfo@1@@Z 00000001401f7b50 f   server1.obj
 0001:001f6b90       ?checkmaps@server@@YAXH@Z  00000001401f7b90 f   server1.obj
 0001:001f7080       ?forcespectator@server@@YAXPEAUclientinfo@1@@Z 00000001401f8080 f   server1.obj
 0001:001f7160       ?cleartimedevents@server@@YAXPEAUclientinfo@1@@Z 00000001401f8160 f   server1.obj
 0001:001f72f0       ?processevents@server@@YAXXZ 00000001401f82f0 f   server1.obj
 0001:001f7420       ?flushevents@server@@YAXPEAUclientinfo@1@H@Z 00000001401f8420 f   server1.obj
 0001:001f74e0       ?clearevent@server@@YAXPEAUclientinfo@1@@Z 00000001401f84e0 f   server1.obj
 0001:001f7560       ?flush@timedevent@server@@UEAA_NPEAUclientinfo@2@H@Z 00000001401f8560 f   server1.obj
 0001:001f75a0       ?flush@gameevent@server@@UEAA_NPEAUclientinfo@2@H@Z 00000001401f85a0 f   server1.obj
 0001:001f75c0       ?process@pickupevent@server@@UEAAXPEAUclientinfo@2@@Z 00000001401f85c0 f   server1.obj
 0001:001f7740       ?process@shotevent@server@@UEAAXPEAUclientinfo@2@@Z 00000001401f8740 f   server1.obj
 0001:001f7b50       ?process@explodeevent@server@@UEAAXPEAUclientinfo@2@@Z 00000001401f8b50 f   server1.obj
 0001:001f7ec0       ?process@suicideevent@server@@UEAAXPEAUclientinfo@2@@Z 00000001401f8ec0 f   server1.obj
 0001:001f7ed0       ?suicide@server@@YAXPEAUclientinfo@1@@Z 00000001401f8ed0 f   server1.obj
 0001:001f8050       ?dodamage@server@@YAXPEAUclientinfo@1@0HHAEBUvec@@@Z 00000001401f9050 f   server1.obj
 0001:001f8650       ?checkintermission@server@@YAXXZ 00000001401f9650 f   server1.obj
 0001:001f86f0       ?vote@server@@YAXPEBDHH@Z  00000001401f96f0 f   server1.obj
 0001:001f89e0       ?checkvotes@server@@YAX_N@Z 00000001401f99e0 f   server1.obj
 0001:001f8d00       ?rotatemap@server@@YAX_N@Z 00000001401f9d00 f   server1.obj
 0001:001f8e90       ?changemap@server@@YAXPEBDH@Z 00000001401f9e90 f   server1.obj
 0001:001f96b0       ?loaditems@server@@YAXXZ   00000001401fa6b0 f   server1.obj
 0001:001f9970       ?sendinitclient@server@@YAXPEAUclientinfo@1@@Z 00000001401fa970 f   server1.obj
 0001:001f9a40       ?sendresume@server@@YAXPEAUclientinfo@1@@Z 00000001401faa40 f   server1.obj
 0001:001f9b00       ?restorescore@server@@YA_NPEAUclientinfo@1@@Z 00000001401fab00 f   server1.obj
 0001:001f9bc0       ?welcomepacket@server@@YAHAEAUpacketbuf@@PEAUclientinfo@1@@Z 00000001401fabc0 f   server1.obj
 0001:001fa280       ?hasmap@server@@YA_NPEAUclientinfo@1@@Z 00000001401fb280 f   server1.obj
 0001:001fa380       ?welcomeinitclient@server@@YAXAEAUpacketbuf@@H@Z 00000001401fb380 f   server1.obj
 0001:001fa540       ?putinitclient@server@@YAXPEAUclientinfo@1@AEAUpacketbuf@@@Z 00000001401fb540 f   server1.obj
 0001:001fa6b0       ?sendwelcome@server@@YAXPEAUclientinfo@1@@Z 00000001401fb6b0 f   server1.obj
 0001:001fa790       ?sendspawn@server@@YAXPEAUclientinfo@1@@Z 00000001401fb790 f   server1.obj
 0001:001fa830       ?spawnstate@server@@YAXPEAUclientinfo@1@@Z 00000001401fb830 f   server1.obj
 0001:001fa870       ?buildworldstate@server@@YA_NXZ 00000001401fb870 f   server1.obj
 0001:001fb420       ?flushclientposition@server@@YAXAEAUclientinfo@1@@Z 00000001401fc420 f   server1.obj
 0001:001fb530       ?cleanworldstate@server@@YAXPEAU_ENetPacket@@@Z 00000001401fc530 f   server1.obj
 0001:001fb5f0       ?checktype@server@@YAHHPEAUclientinfo@1@@Z 00000001401fc5f0 f   server1.obj
 0001:001fb730       ?savescore@server@@YAXPEAUclientinfo@1@@Z 00000001401fc730 f   server1.obj
 0001:001fb7d0       ?findscore@server@@YAPEAUsavedscore@1@PEAUclientinfo@1@_N@Z 00000001401fc7d0 f   server1.obj
 0001:001fbb00       ?trykick@server@@YA_NPEAUclientinfo@1@HPEBD11H_N@Z 00000001401fcb00 f   server1.obj
 0001:001fbd40       ?setmaster@server@@YA_NPEAUclientinfo@1@_NPEBD22H11@Z 00000001401fcd40 f   server1.obj
 0001:001fc1d0       ?revokemaster@server@@YAXPEAUclientinfo@1@@Z 00000001401fd1d0 f   server1.obj
 0001:001fc200       ?checkpassword@server@@YA_NPEAUclientinfo@1@PEBD1@Z 00000001401fd200 f   server1.obj
 0001:001fc260       ?clearusers@server@@YAXXZ  00000001401fd260 f   server1.obj
 0001:001fc2b0       ?adduser@server@@YAXPEAD000@Z 00000001401fd2b0 f   server1.obj
 0001:001fc4f0       ?changegamespeed@server@@YAXHPEAUclientinfo@1@@Z 00000001401fd4f0 f   server1.obj
 0001:001fc550       ?checkpausegame@server@@YAXXZ 00000001401fd550 f   server1.obj
 0001:001fc600       ?pausegame@server@@YAX_NPEAUclientinfo@1@@Z 00000001401fd600 f   server1.obj
 0001:001fc660       ?readdemo@server@@YAXXZ    00000001401fd660 f   server1.obj
 0001:001fc7b0       ?setupdemoplayback@server@@YAXXZ 00000001401fd7b0 f   server1.obj
 0001:001fcac0       ?enddemoplayback@server@@YAXXZ 00000001401fdac0 f   server1.obj
 0001:001fcbc0       ?senddemo@server@@YAXPEAUclientinfo@1@H@Z 00000001401fdbc0 f   server1.obj
 0001:001fccf0       ?cleardemos@server@@YAXH@Z 00000001401fdcf0 f   server1.obj
 0001:001fcea0       ?listdemos@server@@YAXH@Z  00000001401fdea0 f   server1.obj
 0001:001fd000       ?setupdemorecord@server@@YAXXZ 00000001401fe000 f   server1.obj
 0001:001fd1a0       ?writedemo@server@@YAXHPEAXH@Z 00000001401fe1a0 f   server1.obj
 0001:001fd230       ?enddemorecord@server@@YAXXZ 00000001401fe230 f   server1.obj
 0001:001fd3f0       ?adddemo@server@@YAXXZ     00000001401fe3f0 f   server1.obj
 0001:001fd690       ?prunedemos@server@@YAXH@Z 00000001401fe690 f   server1.obj
 0001:001fd7e0       ?chooseworstteam@server@@YAPEBDPEBDPEAUclientinfo@1@@Z 00000001401fe7e0 f   server1.obj
 0001:001fd9c0       ?autoteam@server@@YAXXZ    00000001401fe9c0 f   server1.obj
 0001:001fdf30       ?choosebestclient@server@@YAPEAUclientinfo@1@AEAM@Z 00000001401fef30 f   server1.obj
 0001:001fdfe0       ?addteaminfo@server@@YAPEAUteaminfo@@PEBD@Z 00000001401fefe0 f   server1.obj
 0001:001fe320       ?pruneteaminfo@server@@YA_NXZ 00000001401ff320 f   server1.obj
 0001:001fe510       ?teamhasplayers@server@@YA_NPEBD@Z 00000001401ff510 f   server1.obj
 0001:001fe580       ?clearteaminfo@server@@YAXXZ 00000001401ff580 f   server1.obj
 0001:001fe610       ?pickup@server@@YA_NHH@Z   00000001401ff610 f   server1.obj
 0001:001fe740       ?spawntime@server@@YAHH@Z  00000001401ff740 f   server1.obj
 0001:001fe870       ?canspawnitem@server@@YA_NH@Z 00000001401ff870 f   server1.obj
 0001:001fe8d0       ?colorname@server@@YAPEBDPEAUclientinfo@1@PEBD@Z 00000001401ff8d0 f   server1.obj
 0001:001fe9d0       ?duplicatename@server@@YA_NPEAUclientinfo@1@PEBD@Z 00000001401ff9d0 f   server1.obj
 0001:001fea60       ?numclients@server@@YAHH_N00@Z 00000001401ffa60 f   server1.obj
 0001:001feae0       ?serveroption@server@@YA_NPEBD@Z 00000001401ffae0 f   server1.obj
 0001:001feb80       ?resetitems@server@@YAXXZ  00000001401ffb80 f   server1.obj
 0001:001feba0       ?sendservmsgf@server@@YAXPEBDZZ 00000001401ffba0 f   server1.obj
 0001:001fec30       ?privname@server@@YAPEBDH@Z 00000001401ffc30 f   server1.obj
 0001:001fec70       ?getinfo@server@@YAPEAUclientinfo@1@H@Z 00000001401ffc70 f   server1.obj
 0001:001fecd0       ?checkteamkills@server@@YAXXZ 00000001401ffcd0 f   server1.obj
 0001:001feeb0       ?addteamkill@server@@YAXPEAUclientinfo@1@0H@Z 00000001401ffeb0 f   server1.obj
 0001:001ff070       ?addteamkillkick@server@@YAXPEADPEAH1@Z 0000000140200070 f   server1.obj
 0001:001ff230       ?teamkillkickreset@server@@YAXXZ 0000000140200230 f   server1.obj
 0001:001ff250       ?var_publicserver@server@@YAXXZ 0000000140200250 f   server1.obj
 0001:001ff290       ?addmaprotations@server@@YAXPEAUtagval@@H@Z 0000000140200290 f   server1.obj
 0001:001ff4a0       ?addmaprotation@server@@YA_NHPEBD@Z 00000001402004a0 f   server1.obj
 0001:001ff730       ?genmodemask@server@@YAHAEAU?$vector@PEAD@@@Z 0000000140200730 f   server1.obj
 0001:001ffbe0       ?searchmodename@server@@YA_NPEBD0@Z 0000000140200be0 f   server1.obj
 0001:001ffc80       ?findmaprotation@server@@YAHHPEBD@Z 0000000140200c80 f   server1.obj
 0001:001fff30       ?nextmaprotation@server@@YAXXZ 0000000140200f30 f   server1.obj
 0001:001fff90       ?maprotationreset@server@@YAXXZ 0000000140200f90 f   server1.obj
 0001:001fffb0       ?kickclients@server@@YAXIPEAUclientinfo@1@H@Z 0000000140200fb0 f   server1.obj
 0001:00200090       ?addban@server@@YAXIH@Z    0000000140201090 f   server1.obj
 0001:00200220       ?hashpassword@server@@YAXHHPEBDPEADH@Z 0000000140201220 f   server1.obj
 0001:00200620       ?forcemap@server@@YAXPEBDH@Z 0000000140201620 f   server1.obj
 0001:00200730       ?startintermission@server@@YAXXZ 0000000140201730 f   server1.obj
 0001:00200760       ?forcepaused@server@@YAX_N@Z 0000000140201760 f   server1.obj
 0001:002007b0       ?msgsizelookup@server@@YAHH@Z 00000001402017b0 f   server1.obj
 0001:00200830       ?stopdemo@server@@YAXXZ    0000000140201830 f   server1.obj
 0001:00200870       ?forcegamespeed@server@@YAXH@Z 0000000140201870 f   server1.obj
 0001:002008d0       ?modename@server@@YAPEBDHPEBD@Z 00000001402018d0 f   server1.obj
 0001:00200900       ?mastermodename@server@@YAPEBDHPEBD@Z 0000000140201900 f   server1.obj
 0001:00200930       ?delayspawn@server@@YA_NH@Z 0000000140201930 f   server1.obj
 0001:00200980       ?parseoptions@game@@YAXAEAU?$vector@PEBD@@@Z 0000000140201980 f   server1.obj
 0001:00200a50       ?servercompatible@server@@YA_NPEAD00HAEBU?$vector@H@@H@Z 0000000140201a50 f   server1.obj
 0001:00200a70       ?newclientinfo@server@@YAPEAXXZ 0000000140201a70 f   server1.obj
 0001:00200ab0       ?deleteclientinfo@server@@YAXPEAX@Z 0000000140201ab0 f   server1.obj
 0001:00200ae0       ?recordpacket@server@@YAXHPEAXH@Z 0000000140201ae0 f   server1.obj
 0001:00200af0       ?allowbroadcast@server@@YA_NH@Z 0000000140201af0 f   server1.obj
 0001:00200b60       ?clientdisconnect@server@@YAXH@Z 0000000140201b60 f   server1.obj
 0001:00200f30       ?sendservmsg@server@@YAXPEBD@Z 0000000140201f30 f   server1.obj
 0001:00200f60       ?parsepacket@server@@YAXHHAEAUpacketbuf@@@Z 0000000140201f60 f   server1.obj
 0001:00204000       ?masterdisconnected@server@@YAXXZ 0000000140205000 f   server1.obj
 0001:002040b0       ?defaultmaster@server@@YAPEBDXZ 00000001402050b0 f   server1.obj
 0001:002040c0       ?masterport@server@@YAHXZ  00000001402050c0 f   server1.obj
 0001:002040d0       ?processmasterinput@server@@YAXPEBDH0@Z 00000001402050d0 f   server1.obj
 0001:00204440       ?serverinforeply@server@@YAXAEAU?$databuf@E@@0@Z 0000000140205440 f   server1.obj
 0001:002046a0       ?masterconnected@server@@YAXXZ 00000001402056a0 f   server1.obj
 0001:002046b0       ?serverupdate@server@@YAXXZ 00000001402056b0 f   server1.obj
 0001:00204dd0       ?sendpackets@server@@YA_N_N@Z 0000000140205dd0 f   server1.obj
 0001:00204e50       ?scaletime@server@@YAHH@Z  0000000140205e50 f   server1.obj
 0001:00204e70       ?ispaused@server@@YA_NXZ   0000000140205e70 f   server1.obj
 0001:00204e80       ?clientconnect@server@@YAHHI@Z 0000000140205e80 f   server1.obj
 0001:00204f90       ?localdisconnect@server@@YAXH@Z 0000000140205f90 f   server1.obj
 0001:00204fe0       ?localconnect@server@@YAXH@Z 0000000140205fe0 f   server1.obj
 0001:002050c0       ?reserveclients@server@@YAHXZ 00000001402060c0 f   server1.obj
 0001:002050d0       ?serverinfoport@server@@YAHH@Z 00000001402060d0 f   server1.obj
 0001:002050f0       ?laninfoport@server@@YAHXZ 00000001402060f0 f   server1.obj
 0001:00205100       ?serverinit@server@@YAXXZ  0000000140206100 f   server1.obj
 0001:00205130       ?serverport@server@@YAHH@Z 0000000140206130 f   server1.obj
 0001:00205150       ?numchannels@server@@YAHXZ 0000000140206150 f   server1.obj
 0001:00205160       ?gameident@game@@YAPEBDXZ  0000000140206160 f   server1.obj
 0001:00205170       __vdecl_sin2               0000000140206170 f   LIBCMT:_svml_dsin2_dispatch_.obj
 0001:00205180       __libm_sse2_sincos_        0000000140206180 f   LIBCMT:_svml_dsin2_dispatch_.obj
 0001:002051d0       __vdecl_sinf4              00000001402061d0 f   LIBCMT:_svml_ssinf4_dispatch_.obj
 0001:002051e0       __libm_sse2_sincosf_       00000001402061e0 f   LIBCMT:_svml_ssinf4_dispatch_.obj
 0001:00205226       __libm_sse2_sincosf4_      0000000140206226 f   LIBCMT:_svml_ssinf4_dispatch_.obj
 0001:00205240       __vdecl_exp2               0000000140206240 f   LIBCMT:_svml_dexp2_dispatch_.obj
 0001:00205750       __sse2_sin2                0000000140206750 f   LIBCMT:_svml_dsin2_sse2_.obj
 0001:00205c10       __sse2_sinf4               0000000140206c10 f   LIBCMT:_svml_ssinf4_sse2_.obj
 0001:002064d0       __sse2_exp2                00000001402074d0 f   LIBCMT:_svml_dexp2_sse2_.obj
 0001:002067c0       __sse4_exp2                00000001402077c0 f   LIBCMT:_svml_dexp2_sse4_.obj
 0001:00206aa0       memchr                     0000000140207aa0 f   libvcruntime:memchr.obj
 0001:00206b10       acos                       0000000140207b10 f   libucrt:acos.obj
 0001:00206dd0       acosf                      0000000140207dd0 f   libucrt:acosf.obj
 0001:00207040       asin                       0000000140208040 f   libucrt:asin.obj
 0001:002072e0       atan                       00000001402082e0 f   libucrt:atan.obj
 0001:002074fc       atan2                      00000001402084fc f   libucrt:atan2.obj
 0001:00207c4c       atan2f                     0000000140208c4c f   libucrt:atan2f.obj
 0001:00208090       cos                        0000000140209090 f   libucrt:cos.obj
 0001:00208610       cosf                       0000000140209610 f   libucrt:cosf.obj
 0001:00208b10       exp                        0000000140209b10 f   libucrt:exp.obj
 0001:00208f10       expf                       0000000140209f10 f   libucrt:expf.obj
 0001:002091b8       fmod                       000000014020a1b8 f   libucrt:fmod.obj
 0001:00209680       fmodf                      000000014020a680 f   libucrt:fmodf.obj
 0001:002098d0       log                        000000014020a8d0 f   libucrt:log.obj
 0001:00209e00       log10f                     000000014020ae00 f   libucrt:log10f.obj
 0001:0020a2e0       logf                       000000014020b2e0 f   libucrt:logf.obj
 0001:0020a6e0       pow                        000000014020b6e0 f   libucrt:pow.obj
 0001:0020bd80       powf                       000000014020cd80 f   libucrt:powf.obj
 0001:0020cc50       sin                        000000014020dc50 f   libucrt:sin.obj
 0001:0020d1c0       sinf                       000000014020e1c0 f   libucrt:sinf.obj
 0001:0020d8d0       strcmp                     000000014020e8d0 f   libucrt:strcmp.obj
 0001:0020d940       tan                        000000014020e940 f   libucrt:tan.obj
 0001:0020e0e0       tanf                       000000014020f0e0 f   libucrt:tanf.obj
 0001:0020e760       __remainder_piby2_forAsm   000000014020f760 f   libucrt:remainder_piby2_forasm.obj
 0001:0020e970       __remainder_piby2_cw_forAsm 000000014020f970 f   libucrt:remainder_piby2_forasm.obj
 0001:0020eab0       __remainder_piby2_fma3     000000014020fab0 f   libucrt:remainder_piby2_forfma3.obj
 0001:0020eca0       __remainder_piby2_fma3_bdl 000000014020fca0 f   libucrt:remainder_piby2_forfma3.obj
 0001:0020ed18       _cos_special               000000014020fd18 f   libucrt:sincos_special.obj
 0001:0020ed2c       _cosf_special              000000014020fd2c f   libucrt:sincos_special.obj
 0001:0020ed40       _sin_special               000000014020fd40 f   libucrt:sincos_special.obj
 0001:0020ee84       _sinf_special              000000014020fe84 f   libucrt:sincos_special.obj
 0001:0020ee98       _tan_special               000000014020fe98 f   libucrt:sincos_special.obj
 0001:0020eeac       _tanf_special              000000014020feac f   libucrt:sincos_special.obj
 0001:0020eec0       __remainder_piby2d2f_forAsm 000000014020fec0 f   libucrt:remainder_piby2f_forasm.obj
 0001:0020f010       _exp_special               0000000140210010 f   libucrt:exp_special.obj
 0001:0020f0a8       _expf_special              00000001402100a8 f   libucrt:exp_special.obj
 0001:0020f150       _pow_special               0000000140210150 f   libucrt:pow_special.obj
 0001:0020f274       _powf_special              0000000140210274 f   libucrt:pow_special.obj
 0001:0020f400       __remainder_piby2d2f_forC  0000000140210400 f   libucrt:remainder_piby2f_forc.obj
 0001:0020f5a0       _guard_dispatch_icall_nop  00000001402105a0 f   LIBCMT:_guard_dispatch_.obj
 0001:002158c0       ??__Fmeshgroups@?1??sharemeshes@animmodel@@QEAAPEAUmeshgroup@1@PEBDZZ@YAXXZ 00000001402168c0 f i rendermodel.obj
 0001:00215900       ??__Fskeletons@?1??shareskeleton@skelmeshgroup@skelmodel@@QEAAXPEAD@Z@YAXXZ 0000000140216900 f i rendermodel.obj
 0001:002169c0       ??__Ftargets@?O@??aidefend@captureclientmode@game@@UEAA_NPEAUfpsent@@AEAUaistate@ai@@@Z@YAXXZ 00000001402179c0 f i client1.obj
 0001:002169e0       ??__Ftargets@?3??aifind@captureclientmode@game@@UEAAXPEAUfpsent@@AEAUaistate@ai@@AEAU?$vector@Uinterest@ai@@@@@Z@YAXXZ 00000001402179e0 f i client1.obj
 0001:00216a00       ??__Ftargets@?BA@??aidefend@ctfclientmode@game@@UEAA_NPEAUfpsent@@AEAUaistate@ai@@@Z@YAXXZ 0000000140217a00 f i client1.obj
 0001:00216a20       ??__Ftargets@?6??aifind@ctfclientmode@game@@UEAAXPEAUfpsent@@AEAUaistate@ai@@AEAU?$vector@Uinterest@ai@@@@@Z@YAXXZ 0000000140217a20 f i client1.obj
 0001:00216a40       ??__Ftakenflags@?1??aicheck@ctfclientmode@game@@UEAA_NPEAUfpsent@@AEAUaistate@ai@@@Z@YAXXZ 0000000140217a40 f i client1.obj
 0001:00216a60       ??__Finterests@?4??aihomerun@ctfclientmode@game@@QEAA_NPEAUfpsent@@AEAUaistate@ai@@@Z@YAXXZ 0000000140217a60 f i client1.obj
 0002:00000000       __imp_RtlUnwind            0000000140219000     kernel32:KERNEL32.dll
 0002:00000008       __imp_SetEndOfFile         0000000140219008     kernel32:KERNEL32.dll
 0002:00000010       __imp_HeapReAlloc          0000000140219010     kernel32:KERNEL32.dll
 0002:00000018       __imp_HeapSize             0000000140219018     kernel32:KERNEL32.dll
 0002:00000020       __imp_WriteConsoleW        0000000140219020     kernel32:KERNEL32.dll
 0002:00000028       __imp_CreateFileW          0000000140219028     kernel32:KERNEL32.dll
 0002:00000030       __imp_SetStdHandle         0000000140219030     kernel32:KERNEL32.dll
 0002:00000038       __imp_GetProcessHeap       0000000140219038     kernel32:KERNEL32.dll
 0002:00000040       __imp_SetEnvironmentVariableA 0000000140219040     kernel32:KERNEL32.dll
 0002:00000048       __imp_FreeEnvironmentStringsW 0000000140219048     kernel32:KERNEL32.dll
 0002:00000050       __imp_GetEnvironmentStringsW 0000000140219050     kernel32:KERNEL32.dll
 0002:00000058       __imp_UnhandledExceptionFilter 0000000140219058     kernel32:KERNEL32.dll
 0002:00000060       __imp_IsDebuggerPresent    0000000140219060     kernel32:KERNEL32.dll
 0002:00000068       __imp_RtlVirtualUnwind     0000000140219068     kernel32:KERNEL32.dll
 0002:00000070       __imp_RtlLookupFunctionEntry 0000000140219070     kernel32:KERNEL32.dll
 0002:00000078       __imp_RtlCaptureContext    0000000140219078     kernel32:KERNEL32.dll
 0002:00000080       __imp_GetProcAddress       0000000140219080     kernel32:KERNEL32.dll
 0002:00000088       __imp_GetModuleHandleW     0000000140219088     kernel32:KERNEL32.dll
 0002:00000090       __imp_CreateEventW         0000000140219090     kernel32:KERNEL32.dll
 0002:00000098       __imp_WaitForSingleObjectEx 0000000140219098     kernel32:KERNEL32.dll
 0002:000000a0       __imp_ResetEvent           00000001402190a0     kernel32:KERNEL32.dll
 0002:000000a8       __imp_SetEvent             00000001402190a8     kernel32:KERNEL32.dll
 0002:000000b0       __imp_DeleteCriticalSection 00000001402190b0     kernel32:KERNEL32.dll
 0002:000000b8       __imp_InitializeCriticalSectionAndSpinCount 00000001402190b8     kernel32:KERNEL32.dll
 0002:000000c0       __imp_LeaveCriticalSection 00000001402190c0     kernel32:KERNEL32.dll
 0002:000000c8       __imp_EnterCriticalSection 00000001402190c8     kernel32:KERNEL32.dll
 0002:000000d0       __imp_GetStartupInfoW      00000001402190d0     kernel32:KERNEL32.dll
 0002:000000d8       __imp_IsProcessorFeaturePresent 00000001402190d8     kernel32:KERNEL32.dll
 0002:000000e0       __imp_QueryPerformanceCounter 00000001402190e0     kernel32:KERNEL32.dll
 0002:000000e8       __imp_GetCurrentProcessId  00000001402190e8     kernel32:KERNEL32.dll
 0002:000000f0       __imp_GetCurrentThreadId   00000001402190f0     kernel32:KERNEL32.dll
 0002:000000f8       __imp_GetSystemTimeAsFileTime 00000001402190f8     kernel32:KERNEL32.dll
 0002:00000100       __imp_InitializeSListHead  0000000140219100     kernel32:KERNEL32.dll
 0002:00000108       __imp_RtlUnwindEx          0000000140219108     kernel32:KERNEL32.dll
 0002:00000110       __imp_GetLastError         0000000140219110     kernel32:KERNEL32.dll
 0002:00000118       __imp_SetLastError         0000000140219118     kernel32:KERNEL32.dll
 0002:00000120       __imp_EncodePointer        0000000140219120     kernel32:KERNEL32.dll
 0002:00000128       __imp_RaiseException       0000000140219128     kernel32:KERNEL32.dll
 0002:00000130       __imp_TlsAlloc             0000000140219130     kernel32:KERNEL32.dll
 0002:00000138       __imp_TlsGetValue          0000000140219138     kernel32:KERNEL32.dll
 0002:00000140       __imp_TlsSetValue          0000000140219140     kernel32:KERNEL32.dll
 0002:00000148       __imp_TlsFree              0000000140219148     kernel32:KERNEL32.dll
 0002:00000150       __imp_FreeLibrary          0000000140219150     kernel32:KERNEL32.dll
 0002:00000158       __imp_LoadLibraryExW       0000000140219158     kernel32:KERNEL32.dll
 0002:00000160       __imp_RtlPcToFileHeader    0000000140219160     kernel32:KERNEL32.dll
 0002:00000168       __imp_CreateThread         0000000140219168     kernel32:KERNEL32.dll
 0002:00000170       __imp_ExitThread           0000000140219170     kernel32:KERNEL32.dll
 0002:00000178       __imp_FindClose            0000000140219178     kernel32:KERNEL32.dll
 0002:00000180       __imp_FindNextFileA        0000000140219180     kernel32:KERNEL32.dll
 0002:00000188       __imp_FindFirstFileA       0000000140219188     kernel32:KERNEL32.dll
 0002:00000190       __imp_CreateDirectoryA     0000000140219190     kernel32:KERNEL32.dll
 0002:00000198       __imp_GetFileAttributesA   0000000140219198     kernel32:KERNEL32.dll
 0002:000001a0       __imp_CloseHandle          00000001402191a0     kernel32:KERNEL32.dll
 0002:000001a8       __imp_UnmapViewOfFile      00000001402191a8     kernel32:KERNEL32.dll
 0002:000001b0       __imp_MapViewOfFile        00000001402191b0     kernel32:KERNEL32.dll
 0002:000001b8       __imp_OpenFileMappingA     00000001402191b8     kernel32:KERNEL32.dll
 0002:000001c0       __imp_GetCurrentThread     00000001402191c0     kernel32:KERNEL32.dll
 0002:000001c8       __imp_GetCurrentProcess    00000001402191c8     kernel32:KERNEL32.dll
 0002:000001d0       __imp_SetPriorityClass     00000001402191d0     kernel32:KERNEL32.dll
 0002:000001d8       __imp_GetCommandLineA      00000001402191d8     kernel32:KERNEL32.dll
 0002:000001e0       __imp_SetConsoleOutputCP   00000001402191e0     kernel32:KERNEL32.dll
 0002:000001e8       __imp_SetConsoleCP         00000001402191e8     kernel32:KERNEL32.dll
 0002:000001f0       __imp_SetConsoleScreenBufferSize 00000001402191f0     kernel32:KERNEL32.dll
 0002:000001f8       __imp_GetConsoleScreenBufferInfo 00000001402191f8     kernel32:KERNEL32.dll
 0002:00000200       __imp_GetStdHandle         0000000140219200     kernel32:KERNEL32.dll
 0002:00000208       __imp_SetConsoleTitleA     0000000140219208     kernel32:KERNEL32.dll
 0002:00000210       __imp_GetConsoleWindow     0000000140219210     kernel32:KERNEL32.dll
 0002:00000218       __imp_SetConsoleCtrlHandler 0000000140219218     kernel32:KERNEL32.dll
 0002:00000220       __imp_AllocConsole         0000000140219220     kernel32:KERNEL32.dll
 0002:00000228       __imp_WriteConsoleA        0000000140219228     kernel32:KERNEL32.dll
 0002:00000230       __imp_FreeLibraryAndExitThread 0000000140219230     kernel32:KERNEL32.dll
 0002:00000238       __imp_GetModuleHandleExW   0000000140219238     kernel32:KERNEL32.dll
 0002:00000240       __imp_MultiByteToWideChar  0000000140219240     kernel32:KERNEL32.dll
 0002:00000248       __imp_ExitProcess          0000000140219248     kernel32:KERNEL32.dll
 0002:00000250       __imp_TerminateProcess     0000000140219250     kernel32:KERNEL32.dll
 0002:00000258       __imp_WideCharToMultiByte  0000000140219258     kernel32:KERNEL32.dll
 0002:00000260       __imp_ReadFile             0000000140219260     kernel32:KERNEL32.dll
 0002:00000268       __imp_GetModuleFileNameA   0000000140219268     kernel32:KERNEL32.dll
 0002:00000270       __imp_WriteFile            0000000140219270     kernel32:KERNEL32.dll
 0002:00000278       __imp_GetACP               0000000140219278     kernel32:KERNEL32.dll
 0002:00000280       __imp_HeapAlloc            0000000140219280     kernel32:KERNEL32.dll
 0002:00000288       __imp_HeapFree             0000000140219288     kernel32:KERNEL32.dll
 0002:00000290       __imp_GetDateFormatW       0000000140219290     kernel32:KERNEL32.dll
 0002:00000298       __imp_GetTimeFormatW       0000000140219298     kernel32:KERNEL32.dll
 0002:000002a0       __imp_CompareStringW       00000001402192a0     kernel32:KERNEL32.dll
 0002:000002a8       __imp_LCMapStringW         00000001402192a8     kernel32:KERNEL32.dll
 0002:000002b0       __imp_GetFileType          00000001402192b0     kernel32:KERNEL32.dll
 0002:000002b8       __imp_DeleteFileW          00000001402192b8     kernel32:KERNEL32.dll
 0002:000002c0       __imp_MoveFileExW          00000001402192c0     kernel32:KERNEL32.dll
 0002:000002c8       __imp_GetConsoleCP         00000001402192c8     kernel32:KERNEL32.dll
 0002:000002d0       __imp_GetConsoleMode       00000001402192d0     kernel32:KERNEL32.dll
 0002:000002d8       __imp_GetStringTypeW       00000001402192d8     kernel32:KERNEL32.dll
 0002:000002e0       __imp_GetTimeZoneInformation 00000001402192e0     kernel32:KERNEL32.dll
 0002:000002e8       __imp_SetFilePointerEx     00000001402192e8     kernel32:KERNEL32.dll
 0002:000002f0       __imp_ReadConsoleW         00000001402192f0     kernel32:KERNEL32.dll
 0002:000002f8       __imp_FlushFileBuffers     00000001402192f8     kernel32:KERNEL32.dll
 0002:00000300       __imp_FindFirstFileExA     0000000140219300     kernel32:KERNEL32.dll
 0002:00000308       __imp_IsValidCodePage      0000000140219308     kernel32:KERNEL32.dll
 0002:00000310       __imp_GetOEMCP             0000000140219310     kernel32:KERNEL32.dll
 0002:00000318       __imp_GetCPInfo            0000000140219318     kernel32:KERNEL32.dll
 0002:00000320       __imp_GetCommandLineW      0000000140219320     kernel32:KERNEL32.dll
 0002:00000328       __imp_SetUnhandledExceptionFilter 0000000140219328     kernel32:KERNEL32.dll
 0002:00000330       \177KERNEL32_NULL_THUNK_DATA 0000000140219330     kernel32:KERNEL32.dll
 0002:00000338       __imp_glCopyTexSubImage2D  0000000140219338     opengl32:OPENGL32.dll
 0002:00000340       __imp_glDepthRange         0000000140219340     opengl32:OPENGL32.dll
 0002:00000348       __imp_glHint               0000000140219348     opengl32:OPENGL32.dll
 0002:00000350       __imp_glTexImage1D         0000000140219350     opengl32:OPENGL32.dll
 0002:00000358       __imp_glTexImage2D         0000000140219358     opengl32:OPENGL32.dll
 0002:00000360       __imp_glCopyTexImage2D     0000000140219360     opengl32:OPENGL32.dll
 0002:00000368       __imp_glDeleteTextures     0000000140219368     opengl32:OPENGL32.dll
 0002:00000370       __imp_glGenTextures        0000000140219370     opengl32:OPENGL32.dll
 0002:00000378       __imp_glTexParameteri      0000000140219378     opengl32:OPENGL32.dll
 0002:00000380       __imp_glTexParameterfv     0000000140219380     opengl32:OPENGL32.dll
 0002:00000388       __imp_glReadPixels         0000000140219388     opengl32:OPENGL32.dll
 0002:00000390       __imp_glGetTexLevelParameteriv 0000000140219390     opengl32:OPENGL32.dll
 0002:00000398       __imp_glTexParameteriv     0000000140219398     opengl32:OPENGL32.dll
 0002:000003a0       __imp_glClear              00000001402193a0     opengl32:OPENGL32.dll
 0002:000003a8       __imp_glIsEnabled          00000001402193a8     opengl32:OPENGL32.dll
 0002:000003b0       __imp_glPolygonOffset      00000001402193b0     opengl32:OPENGL32.dll
 0002:000003b8       __imp_glCullFace           00000001402193b8     opengl32:OPENGL32.dll
 0002:000003c0       __imp_glFrontFace          00000001402193c0     opengl32:OPENGL32.dll
 0002:000003c8       __imp_glClearDepth         00000001402193c8     opengl32:OPENGL32.dll
 0002:000003d0       __imp_glClearColor         00000001402193d0     opengl32:OPENGL32.dll
 0002:000003d8       __imp_glGetString          00000001402193d8     opengl32:OPENGL32.dll
 0002:000003e0       __imp_glGetIntegerv        00000001402193e0     opengl32:OPENGL32.dll
 0002:000003e8       __imp_glViewport           00000001402193e8     opengl32:OPENGL32.dll
 0002:000003f0       __imp_glScissor            00000001402193f0     opengl32:OPENGL32.dll
 0002:000003f8       __imp_glFlush              00000001402193f8     opengl32:OPENGL32.dll
 0002:00000400       __imp_glDrawArrays         0000000140219400     opengl32:OPENGL32.dll
 0002:00000408       __imp_glDepthMask          0000000140219408     opengl32:OPENGL32.dll
 0002:00000410       __imp_glDepthFunc          0000000140219410     opengl32:OPENGL32.dll
 0002:00000418       __imp_glPolygonMode        0000000140219418     opengl32:OPENGL32.dll
 0002:00000420       __imp_glDisable            0000000140219420     opengl32:OPENGL32.dll
 0002:00000428       __imp_glBlendFunc          0000000140219428     opengl32:OPENGL32.dll
 0002:00000430       __imp_glEnable             0000000140219430     opengl32:OPENGL32.dll
 0002:00000438       __imp_glTexSubImage2D      0000000140219438     opengl32:OPENGL32.dll
 0002:00000440       __imp_glPixelStorei        0000000140219440     opengl32:OPENGL32.dll
 0002:00000448       __imp_glBindTexture        0000000140219448     opengl32:OPENGL32.dll
 0002:00000450       __imp_glColorMask          0000000140219450     opengl32:OPENGL32.dll
 0002:00000458       \177OPENGL32_NULL_THUNK_DATA 0000000140219458     opengl32:OPENGL32.dll
 0002:00000460       __imp_SDL_Quit             0000000140219460     SDL2:SDL2.dll
 0002:00000468       __imp_SDL_WasInit          0000000140219468     SDL2:SDL2.dll
 0002:00000470       __imp_SDL_ShowSimpleMessageBox 0000000140219470     SDL2:SDL2.dll
 0002:00000478       __imp_SDL_StartTextInput   0000000140219478     SDL2:SDL2.dll
 0002:00000480       __imp_SDL_StopTextInput    0000000140219480     SDL2:SDL2.dll
 0002:00000488       __imp_SDL_SetWindowFullscreen 0000000140219488     SDL2:SDL2.dll
 0002:00000490       __imp_SDL_SetWindowSize    0000000140219490     SDL2:SDL2.dll
 0002:00000498       __imp_SDL_SetWindowPosition 0000000140219498     SDL2:SDL2.dll
 0002:000004a0       __imp_SDL_GetWindowFlags   00000001402194a0     SDL2:SDL2.dll
 0002:000004a8       __imp_SDL_SetWindowBrightness 00000001402194a8     SDL2:SDL2.dll
 0002:000004b0       __imp_SDL_GetError         00000001402194b0     SDL2:SDL2.dll
 0002:000004b8       __imp_SDL_GL_SetSwapInterval 00000001402194b8     SDL2:SDL2.dll
 0002:000004c0       __imp_SDL_GL_DeleteContext 00000001402194c0     SDL2:SDL2.dll
 0002:000004c8       __imp_SDL_DestroyWindow    00000001402194c8     SDL2:SDL2.dll
 0002:000004d0       __imp_SDL_GetDisplayBounds 00000001402194d0     SDL2:SDL2.dll
 0002:000004d8       __imp_SDL_GL_ResetAttributes 00000001402194d8     SDL2:SDL2.dll
 0002:000004e0       __imp_SDL_GL_SetAttribute  00000001402194e0     SDL2:SDL2.dll
 0002:000004e8       __imp_SDL_CreateWindow     00000001402194e8     SDL2:SDL2.dll
 0002:000004f0       __imp_SDL_GL_CreateContext 00000001402194f0     SDL2:SDL2.dll
 0002:000004f8       __imp_SDL_SetWindowMinimumSize 00000001402194f8     SDL2:SDL2.dll
 0002:00000500       __imp_SDL_SetWindowMaximumSize 0000000140219500     SDL2:SDL2.dll
 0002:00000508       __imp_SDL_GetWindowSize    0000000140219508     SDL2:SDL2.dll
 0002:00000510       __imp_SDL_ShowCursor       0000000140219510     SDL2:SDL2.dll
 0002:00000518       __imp_SDL_GetModState      0000000140219518     SDL2:SDL2.dll
 0002:00000520       __imp_SDL_free             0000000140219520     SDL2:SDL2.dll
 0002:00000528       __imp_SDL_GetClipboardText 0000000140219528     SDL2:SDL2.dll
 0002:00000530       __imp_SDL_HasClipboardText 0000000140219530     SDL2:SDL2.dll
 0002:00000538       __imp_SDL_SetWindowGrab    0000000140219538     SDL2:SDL2.dll
 0002:00000540       __imp_SDL_FreeRW           0000000140219540     SDL2:SDL2.dll
 0002:00000548       __imp_SDL_GetColorKey      0000000140219548     SDL2:SDL2.dll
 0002:00000550       __imp_SDL_SetSurfaceBlendMode 0000000140219550     SDL2:SDL2.dll
 0002:00000558       __imp_SDL_FreeSurface      0000000140219558     SDL2:SDL2.dll
 0002:00000560       __imp_SDL_UpperBlit        0000000140219560     SDL2:SDL2.dll
 0002:00000568       __imp_SDL_CreateRGBSurface 0000000140219568     SDL2:SDL2.dll
 0002:00000570       __imp_SDL_CreateRGBSurfaceFrom 0000000140219570     SDL2:SDL2.dll
 0002:00000578       __imp_SDL_GL_GetProcAddress 0000000140219578     SDL2:SDL2.dll
 0002:00000580       __imp_SDL_DetachThread     0000000140219580     SDL2:SDL2.dll
 0002:00000588       __imp_SDL_ThreadID         0000000140219588     SDL2:SDL2.dll
 0002:00000590       __imp_SDL_GetThreadID      0000000140219590     SDL2:SDL2.dll
 0002:00000598       __imp_SDL_SetMainReady     0000000140219598     SDL2:SDL2.dll
 0002:000005a0       __imp_SDL_Delay            00000001402195a0     SDL2:SDL2.dll
 0002:000005a8       __imp_SDL_RemoveTimer      00000001402195a8     SDL2:SDL2.dll
 0002:000005b0       __imp_SDL_GetTicks         00000001402195b0     SDL2:SDL2.dll
 0002:000005b8       __imp_SDL_AddTimer         00000001402195b8     SDL2:SDL2.dll
 0002:000005c0       __imp_SDL_WaitThread       00000001402195c0     SDL2:SDL2.dll
 0002:000005c8       __imp_SDL_CreateMutex      00000001402195c8     SDL2:SDL2.dll
 0002:000005d0       __imp_SDL_DestroyMutex     00000001402195d0     SDL2:SDL2.dll
 0002:000005d8       __imp_SDL_CreateThread     00000001402195d8     SDL2:SDL2.dll
 0002:000005e0       __imp_SDL_CreateCond       00000001402195e0     SDL2:SDL2.dll
 0002:000005e8       __imp_SDL_DestroyCond      00000001402195e8     SDL2:SDL2.dll
 0002:000005f0       __imp_SDL_CondWaitTimeout  00000001402195f0     SDL2:SDL2.dll
 0002:000005f8       __imp_SDL_CondBroadcast    00000001402195f8     SDL2:SDL2.dll
 0002:00000600       __imp_SDL_CondWait         0000000140219600     SDL2:SDL2.dll
 0002:00000608       __imp_SDL_CondSignal       0000000140219608     SDL2:SDL2.dll
 0002:00000610       __imp_SDL_UnlockMutex      0000000140219610     SDL2:SDL2.dll
 0002:00000618       __imp_SDL_LockMutex        0000000140219618     SDL2:SDL2.dll
 0002:00000620       __imp_SDL_SaveBMP_RW       0000000140219620     SDL2:SDL2.dll
 0002:00000628       __imp_SDL_PollEvent        0000000140219628     SDL2:SDL2.dll
 0002:00000630       __imp_SDL_PumpEvents       0000000140219630     SDL2:SDL2.dll
 0002:00000638       __imp_SDL_PeepEvents       0000000140219638     SDL2:SDL2.dll
 0002:00000640       __imp_SDL_AllocRW          0000000140219640     SDL2:SDL2.dll
 0002:00000648       __imp_SDL_RWFromFile       0000000140219648     SDL2:SDL2.dll
 0002:00000650       __imp_SDL_GetVersion       0000000140219650     SDL2:SDL2.dll
 0002:00000658       __imp_SDL_SetHint          0000000140219658     SDL2:SDL2.dll
 0002:00000660       __imp_SDL_Init             0000000140219660     SDL2:SDL2.dll
 0002:00000668       __imp_SDL_GetCPUCount      0000000140219668     SDL2:SDL2.dll
 0002:00000670       __imp_SDL_GL_SwapWindow    0000000140219670     SDL2:SDL2.dll
 0002:00000678       __imp_SDL_SetRelativeMouseMode 0000000140219678     SDL2:SDL2.dll
 0002:00000680       __imp_SDL_WarpMouseInWindow 0000000140219680     SDL2:SDL2.dll
 0002:00000688       \177SDL2_NULL_THUNK_DATA   0000000140219688     SDL2:SDL2.dll
 0002:00000690       __imp_IMG_LoadTyped_RW     0000000140219690     SDL2_image:SDL2_image.dll
 0002:00000698       __imp_IMG_Load             0000000140219698     SDL2_image:SDL2_image.dll
 0002:000006a0       \177SDL2_image_NULL_THUNK_DATA 00000001402196a0     SDL2_image:SDL2_image.dll
 0002:000006a8       __imp_Mix_PlayingMusic     00000001402196a8     SDL2_mixer:SDL2_mixer.dll
 0002:000006b0       __imp_Mix_Playing          00000001402196b0     SDL2_mixer:SDL2_mixer.dll
 0002:000006b8       __imp_Mix_CloseAudio       00000001402196b8     SDL2_mixer:SDL2_mixer.dll
 0002:000006c0       __imp_Mix_LoadWAV_RW       00000001402196c0     SDL2_mixer:SDL2_mixer.dll
 0002:000006c8       __imp_Mix_PlayMusic        00000001402196c8     SDL2_mixer:SDL2_mixer.dll
 0002:000006d0       __imp_Mix_LoadMUS          00000001402196d0     SDL2_mixer:SDL2_mixer.dll
 0002:000006d8       __imp_Mix_LoadMUSType_RW   00000001402196d8     SDL2_mixer:SDL2_mixer.dll
 0002:000006e0       __imp_Mix_AllocateChannels 00000001402196e0     SDL2_mixer:SDL2_mixer.dll
 0002:000006e8       __imp_Mix_OpenAudio        00000001402196e8     SDL2_mixer:SDL2_mixer.dll
 0002:000006f0       __imp_Mix_ResumeMusic      00000001402196f0     SDL2_mixer:SDL2_mixer.dll
 0002:000006f8       __imp_Mix_HaltMusic        00000001402196f8     SDL2_mixer:SDL2_mixer.dll
 0002:00000700       __imp_Mix_VolumeMusic      0000000140219700     SDL2_mixer:SDL2_mixer.dll
 0002:00000708       __imp_Mix_HaltChannel      0000000140219708     SDL2_mixer:SDL2_mixer.dll
 0002:00000710       __imp_Mix_SetPanning       0000000140219710     SDL2_mixer:SDL2_mixer.dll
 0002:00000718       __imp_Mix_Volume           0000000140219718     SDL2_mixer:SDL2_mixer.dll
 0002:00000720       __imp_Mix_FadingChannel    0000000140219720     SDL2_mixer:SDL2_mixer.dll
 0002:00000728       __imp_Mix_FreeChunk        0000000140219728     SDL2_mixer:SDL2_mixer.dll
 0002:00000730       __imp_Mix_SetPostMix       0000000140219730     SDL2_mixer:SDL2_mixer.dll
 0002:00000738       __imp_Mix_QuerySpec        0000000140219738     SDL2_mixer:SDL2_mixer.dll
 0002:00000740       __imp_Mix_PausedMusic      0000000140219740     SDL2_mixer:SDL2_mixer.dll
 0002:00000748       __imp_Mix_PlayChannelTimed 0000000140219748     SDL2_mixer:SDL2_mixer.dll
 0002:00000750       __imp_Mix_FadeInChannelTimed 0000000140219750     SDL2_mixer:SDL2_mixer.dll
 0002:00000758       __imp_Mix_FreeMusic        0000000140219758     SDL2_mixer:SDL2_mixer.dll
 0002:00000760       __imp_Mix_FadeOutChannel   0000000140219760     SDL2_mixer:SDL2_mixer.dll
 0002:00000768       \177SDL2_mixer_NULL_THUNK_DATA 0000000140219768     SDL2_mixer:SDL2_mixer.dll
 0002:00000770       __imp_Shell_NotifyIconA    0000000140219770     shell32:SHELL32.dll
 0002:00000778       __imp_SHGetFolderPathA     0000000140219778     shell32:SHELL32.dll
 0002:00000780       \177SHELL32_NULL_THUNK_DATA 0000000140219780     shell32:SHELL32.dll
 0002:00000788       __imp_DispatchMessageA     0000000140219788     user32:USER32.dll
 0002:00000790       __imp_TranslateMessage     0000000140219790     user32:USER32.dll
 0002:00000798       __imp_PeekMessageA         0000000140219798     user32:USER32.dll
 0002:000007a0       __imp_CreateWindowExA      00000001402197a0     user32:USER32.dll
 0002:000007a8       __imp_RegisterClassA       00000001402197a8     user32:USER32.dll
 0002:000007b0       __imp_AppendMenuA          00000001402197b0     user32:USER32.dll
 0002:000007b8       __imp_CreatePopupMenu      00000001402197b8     user32:USER32.dll
 0002:000007c0       __imp_LoadIconA            00000001402197c0     user32:USER32.dll
 0002:000007c8       __imp_DefWindowProcA       00000001402197c8     user32:USER32.dll
 0002:000007d0       __imp_PostQuitMessage      00000001402197d0     user32:USER32.dll
 0002:000007d8       __imp_ShowWindow           00000001402197d8     user32:USER32.dll
 0002:000007e0       __imp_ModifyMenuA          00000001402197e0     user32:USER32.dll
 0002:000007e8       __imp_PostMessageA         00000001402197e8     user32:USER32.dll
 0002:000007f0       __imp_DestroyMenu          00000001402197f0     user32:USER32.dll
 0002:000007f8       __imp_GetCursorPos         00000001402197f8     user32:USER32.dll
 0002:00000800       __imp_SetForegroundWindow  0000000140219800     user32:USER32.dll
 0002:00000808       __imp_SendMessageA         0000000140219808     user32:USER32.dll
 0002:00000810       __imp_UnregisterClassA     0000000140219810     user32:USER32.dll
 0002:00000818       __imp_TrackPopupMenu       0000000140219818     user32:USER32.dll
 0002:00000820       \177USER32_NULL_THUNK_DATA 0000000140219820     user32:USER32.dll
 0002:00000828       __imp_timeBeginPeriod      0000000140219828     winmm:WINMM.dll
 0002:00000830       __imp_timeGetTime          0000000140219830     winmm:WINMM.dll
 0002:00000838       __imp_timeEndPeriod        0000000140219838     winmm:WINMM.dll
 0002:00000840       \177WINMM_NULL_THUNK_DATA  0000000140219840     winmm:WINMM.dll
 0002:00000848       __imp_WSACleanup           0000000140219848     ws2_32:WS2_32.dll
 0002:00000850       __imp_htons                0000000140219850     ws2_32:WS2_32.dll
 0002:00000858       __imp_ntohl                0000000140219858     ws2_32:WS2_32.dll
 0002:00000860       __imp___WSAFDIsSet         0000000140219860     ws2_32:WS2_32.dll
 0002:00000868       __imp_ntohs                0000000140219868     ws2_32:WS2_32.dll
 0002:00000870       __imp_htonl                0000000140219870     ws2_32:WS2_32.dll
 0002:00000878       __imp_WSAStartup           0000000140219878     ws2_32:WS2_32.dll
 0002:00000880       __imp_gethostbyname        0000000140219880     ws2_32:WS2_32.dll
 0002:00000888       __imp_select               0000000140219888     ws2_32:WS2_32.dll
 0002:00000890       __imp_WSARecvFrom          0000000140219890     ws2_32:WS2_32.dll
 0002:00000898       __imp_WSASendTo            0000000140219898     ws2_32:WS2_32.dll
 0002:000008a0       __imp_closesocket          00000001402198a0     ws2_32:WS2_32.dll
 0002:000008a8       __imp_shutdown             00000001402198a8     ws2_32:WS2_32.dll
 0002:000008b0       __imp_accept               00000001402198b0     ws2_32:WS2_32.dll
 0002:000008b8       __imp_WSAGetLastError      00000001402198b8     ws2_32:WS2_32.dll
 0002:000008c0       __imp_connect              00000001402198c0     ws2_32:WS2_32.dll
 0002:000008c8       __imp_getsockopt           00000001402198c8     ws2_32:WS2_32.dll
 0002:000008d0       __imp_ioctlsocket          00000001402198d0     ws2_32:WS2_32.dll
 0002:000008d8       __imp_setsockopt           00000001402198d8     ws2_32:WS2_32.dll
 0002:000008e0       __imp_socket               00000001402198e0     ws2_32:WS2_32.dll
 0002:000008e8       __imp_listen               00000001402198e8     ws2_32:WS2_32.dll
 0002:000008f0       __imp_getsockname          00000001402198f0     ws2_32:WS2_32.dll
 0002:000008f8       __imp_bind                 00000001402198f8     ws2_32:WS2_32.dll
 0002:00000900       __imp_gethostbyaddr        0000000140219900     ws2_32:WS2_32.dll
 0002:00000908       __imp_inet_ntoa            0000000140219908     ws2_32:WS2_32.dll
 0002:00000910       __imp_inet_addr            0000000140219910     ws2_32:WS2_32.dll
 0002:00000918       \177WS2_32_NULL_THUNK_DATA 0000000140219918     ws2_32:WS2_32.dll
 0002:00000920       __imp_StackWalk64          0000000140219920     dbghelp:dbghelp.dll
 0002:00000928       __imp_SymGetModuleBase64   0000000140219928     dbghelp:dbghelp.dll
 0002:00000930       __imp_SymFunctionTableAccess64 0000000140219930     dbghelp:dbghelp.dll
 0002:00000938       __imp_SymGetSymFromAddr64  0000000140219938     dbghelp:dbghelp.dll
 0002:00000940       __imp_SymGetLineFromAddr64 0000000140219940     dbghelp:dbghelp.dll
 0002:00000948       __imp_SymInitialize        0000000140219948     dbghelp:dbghelp.dll
 0002:00000950       \177dbghelp_NULL_THUNK_DATA 0000000140219950     dbghelp:dbghelp.dll
 0002:00000958       __imp_compress2            0000000140219958     zdll:zlib1.dll
 0002:00000960       __imp_zError               0000000140219960     zdll:zlib1.dll
 0002:00000968       __imp_inflate              0000000140219968     zdll:zlib1.dll
 0002:00000970       __imp_inflateReset         0000000140219970     zdll:zlib1.dll
 0002:00000978       __imp_inflateEnd           0000000140219978     zdll:zlib1.dll
 0002:00000980       __imp_deflateInit2_        0000000140219980     zdll:zlib1.dll
 0002:00000988       __imp_inflateInit2_        0000000140219988     zdll:zlib1.dll
 0002:00000990       __imp_deflateEnd           0000000140219990     zdll:zlib1.dll
 0002:00000998       __imp_deflate              0000000140219998     zdll:zlib1.dll
 0002:000009a0       __imp_deflateInit_         00000001402199a0     zdll:zlib1.dll
 0002:000009a8       __imp_crc32                00000001402199a8     zdll:zlib1.dll
 0002:000009b0       __imp_uncompress           00000001402199b0     zdll:zlib1.dll
 0002:000009b8       __imp_compressBound        00000001402199b8     zdll:zlib1.dll
 0002:000009c0       \177zlib1_NULL_THUNK_DATA  00000001402199c0     zdll:zlib1.dll
 0002:000009c8       __guard_check_icall_fptr   00000001402199c8     LIBCMT:guard_support.obj
 0002:000009d0       __guard_dispatch_icall_fptr 00000001402199d0     LIBCMT:guard_support.obj
 0002:000009d8       __xc_a                     00000001402199d8     LIBCMT:initializers.obj
 0002:00003428       __xc_z                     000000014021c428     LIBCMT:initializers.obj
 0002:00003430       __xi_a                     000000014021c430     LIBCMT:initializers.obj
 0002:00003450       __acrt_stdio_initializer   000000014021c450     libucrt:stdio_initializer.obj
 0002:00003458       __acrt_timeset_initializer 000000014021c458     libucrt:timeset_initializer.obj
 0002:00003460       __acrt_multibyte_initializer 000000014021c460     libucrt:multibyte_initializer.obj
 0002:00003468       __acrt_tran_fma3_initializer 000000014021c468     libucrt:fma3_initializer.obj
 0002:00003470       __xi_z                     000000014021c470     LIBCMT:initializers.obj
 0002:00003478       __xl_a                     000000014021c478     LIBCMT:tlssup.obj
 0002:00003480       __xl_z                     000000014021c480     LIBCMT:tlssup.obj
 0002:00003488       __xp_a                     000000014021c488     LIBCMT:initializers.obj
 0002:00003490       __acrt_locale_terminator   000000014021c490     libucrt:locale_initializer.obj
 0002:00003498       __dcrt_console_output_terminator 000000014021c498     libucrt:console_output_initializer.obj
 0002:000034a0       __acrt_stdio_terminator    000000014021c4a0     libucrt:stdio_initializer.obj
 0002:000034a8       __xp_z                     000000014021c4a8     LIBCMT:initializers.obj
 0002:000034b0       __xt_a                     000000014021c4b0     LIBCMT:initializers.obj
 0002:000034b8       __xt_z                     000000014021c4b8     LIBCMT:initializers.obj
 0002:00003630       ??_C@_1EC@JIJBPKFM@?$AAa?$AAp?$AAi?$AA?9?$AAm?$AAs?$AA?9?$AAw?$AAi?$AAn?$AA?9?$AAc?$AAo?$AAr?$AAe@ 000000014021c630     LIBCMT:thread_safe_statics.obj
 0002:00003678       ??_C@_1BK@MGMFAEKH@?$AAk?$AAe?$AAr?$AAn?$AAe?$AAl?$AA3?$AA2?$AA?4?$AAd?$AAl?$AAl@ 000000014021c678     LIBCMT:thread_safe_statics.obj
 0002:00003698       ??_C@_0BM@HLJJNPAH@InitializeConditionVariable@ 000000014021c698     LIBCMT:thread_safe_statics.obj
 0002:000036b8       ??_C@_0BJ@JEBJOJFJ@SleepConditionVariableCS@ 000000014021c6b8     LIBCMT:thread_safe_statics.obj
 0002:000036d8       ??_C@_0BJ@PGPPEPCC@WakeAllConditionVariable@ 000000014021c6d8     LIBCMT:thread_safe_statics.obj
 0002:00003700       ??_7type_info@@6B@         000000014021c700     LIBCMT:std_type_info_static.obj
 0002:000037a8       _pDestructExceptionObject  000000014021c7a8     libvcruntime:ehhelpers.obj
 0002:000037b8       ??_7exception@std@@6B@     000000014021c7b8     libvcruntime:frame.obj
 0002:000037c8       ??_C@_0BC@EOODALEL@Unknown?5exception@ 000000014021c7c8     libvcruntime:frame.obj
 0002:000037e8       ??_7bad_exception@std@@6B@ 000000014021c7e8     libvcruntime:frame.obj
 0002:000037f8       ??_C@_0O@DPKOEFFH@bad?5exception@ 000000014021c7f8     libvcruntime:frame.obj
 0002:00003820       ??_C@_1DM@KHCHBNEB@?$AAa?$AAp?$AAi?$AA?9?$AAm?$AAs?$AA?9?$AAw?$AAi?$AAn?$AA?9?$AAc?$AAo?$AAr?$AAe@ 000000014021c820     libvcruntime:winapi_downlevel.obj
 0002:00003860       ??_C@_1DK@LPPGFMPP@?$AAa?$AAp?$AAi?$AA?9?$AAm?$AAs?$AA?9?$AAw?$AAi?$AAn?$AA?9?$AAc?$AAo?$AAr?$AAe@ 000000014021c860     libvcruntime:winapi_downlevel.obj
 0002:000038a0       ??_C@_1BC@GDMECMAK@?$AAk?$AAe?$AAr?$AAn?$AAe?$AAl?$AA3?$AA2@ 000000014021c8a0     libvcruntime:winapi_downlevel.obj
 0002:000038b8       ??_C@_1BA@PFFKHIOG@?$AAa?$AAp?$AAi?$AA?9?$AAm?$AAs?$AA?9@ 000000014021c8b8     libvcruntime:winapi_downlevel.obj
 0002:000038c8       ??_C@_1BA@IAIFMGEF@?$AAe?$AAx?$AAt?$AA?9?$AAm?$AAs?$AA?9@ 000000014021c8c8     libvcruntime:winapi_downlevel.obj
 0002:000038e0       ??_C@_08KNHFBNJ@FlsAlloc@  000000014021c8e0     libvcruntime:winapi_downlevel.obj
 0002:000038f8       ??_C@_07PEJMOBNF@FlsFree@  000000014021c8f8     libvcruntime:winapi_downlevel.obj
 0002:00003908       ??_C@_0M@GDNOONDI@FlsGetValue@ 000000014021c908     libvcruntime:winapi_downlevel.obj
 0002:00003920       ??_C@_0M@JCPCPOEF@FlsSetValue@ 000000014021c920     libvcruntime:winapi_downlevel.obj
 0002:00003938       ??_C@_0BM@HCFOFFN@InitializeCriticalSectionEx@ 000000014021c938     libvcruntime:winapi_downlevel.obj
 0002:00003c98       ??_C@_08EHJDFFNH@__based?$CI@ 000000014021cc98     libvcruntime:undname.obj
 0002:00003ca8       ??_C@_07KOLFKCDI@__cdecl@  000000014021cca8     libvcruntime:undname.obj
 0002:00003cb0       ??_C@_08GHMPAG@__pascal@   000000014021ccb0     libvcruntime:undname.obj
 0002:00003cc0       ??_C@_09IFJBGAPI@__stdcall@ 000000014021ccc0     libvcruntime:undname.obj
 0002:00003cd0       ??_C@_0L@NPHFGOKO@__thiscall@ 000000014021ccd0     libvcruntime:undname.obj
 0002:00003ce0       ??_C@_0L@JMKHOMEK@__fastcall@ 000000014021cce0     libvcruntime:undname.obj
 0002:00003cf0       ??_C@_0N@BCKKPABJ@__vectorcall@ 000000014021ccf0     libvcruntime:undname.obj
 0002:00003d00       ??_C@_09HIJEGCPM@__clrcall@ 000000014021cd00     libvcruntime:undname.obj
 0002:00003d0c       ??_C@_06GHPCKEAG@__eabi@   000000014021cd0c     libvcruntime:undname.obj
 0002:00003d18       ??_C@_09IOPIDJLG@__swift_1@ 000000014021cd18     libvcruntime:undname.obj
 0002:00003d28       ??_C@_09KFNFGKHF@__swift_2@ 000000014021cd28     libvcruntime:undname.obj
 0002:00003d38       ??_C@_07JOMMBBKO@__ptr64@  000000014021cd38     libvcruntime:undname.obj
 0002:00003d40       ??_C@_0L@PILCLIHE@__restrict@ 000000014021cd40     libvcruntime:undname.obj
 0002:00003d50       ??_C@_0M@GFIIJFMG@__unaligned@ 000000014021cd50     libvcruntime:undname.obj
 0002:00003d60       ??_C@_09DHDLOLLB@restrict?$CI@ 000000014021cd60     libvcruntime:undname.obj
 0002:00003d6c       ??_C@_04NIHEBCM@?5new@     000000014021cd6c     libvcruntime:undname.obj
 0002:00003d78       ??_C@_07FPCDHGMM@?5delete@ 000000014021cd78     libvcruntime:undname.obj
 0002:00003d80       ??_C@_02EGOFBIJA@?$DN?$DN@ 000000014021cd80     libvcruntime:undname.obj
 0002:00003d84       ??_C@_02GPECMEKF@?$FL?$FN@ 000000014021cd84     libvcruntime:undname.obj
 0002:00003d88       ??_C@_08LHJFAFGD@operator@ 000000014021cd88     libvcruntime:undname.obj
 0002:00003d94       ??_C@_02HBOOOICD@?9?$DO@   000000014021cd94     libvcruntime:undname.obj
 0002:00003d98       ??_C@_02ECNGHCIF@?$CL?$CL@ 000000014021cd98     libvcruntime:undname.obj
 0002:00003d9c       ??_C@_02BAABKJLB@?9?9@     000000014021cd9c     libvcruntime:undname.obj
 0002:00003da0       ??_C@_03MNHNFDLC@?9?$DO?$CK@ 000000014021cda0     libvcruntime:undname.obj
 0002:00003da4       ??_C@_01FGNFDNOH@?$CF@     000000014021cda4     libvcruntime:undname.obj
 0002:00003da8       ??_C@_02HCKGKOFO@?$CI?$CJ@ 000000014021cda8     libvcruntime:undname.obj
 0002:00003dac       ??_C@_02FPIMKNGF@?$CK?$DN@ 000000014021cdac     libvcruntime:undname.obj
 0002:00003db0       ??_C@_02FOEOMHFC@?$CL?$DN@ 000000014021cdb0     libvcruntime:undname.obj
 0002:00003db4       ??_C@_02FKMDLLOA@?9?$DN@   000000014021cdb4     libvcruntime:undname.obj
 0002:00003db8       ??_C@_02FJEHGPIO@?1?$DN@   000000014021cdb8     libvcruntime:undname.obj
 0002:00003dbc       ??_C@_02FENAOKFI@?$CF?$DN@ 000000014021cdbc     libvcruntime:undname.obj
 0002:00003dc0       ??_C@_03IKFCCPFF@?$DO?$DO?$DN@ 000000014021cdc0     libvcruntime:undname.obj
 0002:00003dc4       ??_C@_03CDNPDDLA@?$DM?$DM?$DN@ 000000014021cdc4     libvcruntime:undname.obj
 0002:00003dc8       ??_C@_02FGJGFEAB@?$CG?$DN@ 000000014021cdc8     libvcruntime:undname.obj
 0002:00003dcc       ??_C@_02DHLNPPGH@?$HM?$DN@ 000000014021cdcc     libvcruntime:undname.obj
 0002:00003dd0       ??_C@_02MHEGNOJ@?$FO?$DN@  000000014021cdd0     libvcruntime:undname.obj
 0002:00003dd8       ??_C@_09IFPLHPGF@?$GAvftable?8@ 000000014021cdd8     libvcruntime:undname.obj
 0002:00003de8       ??_C@_09BLBHBJP@?$GAvbtable?8@ 000000014021cde8     libvcruntime:undname.obj
